

Microchip MPLAB XC8 Assembler V2.31 build 20201012212115 
                                                                                               Sun Aug 28 14:39:49 2022

Microchip MPLAB XC8 C Compiler v2.31 (Free license) build 20201012212115 Og1 
     1                           	processor	16F18326
     2                           	pagewidth 120
     3                           	opt	flic
     4                           	psect	stringtext1,global,class=STRCODE,delta=2,noexec
     5                           	psect	nvBANK2,global,class=BANK2,space=1,delta=1,noexec
     6                           	psect	stringtext2,global,class=STRCODE,delta=2,noexec
     7                           	psect	stringtext3,global,class=STRCODE,delta=2,noexec
     8                           	psect	stringtext4,global,class=STRCODE,delta=2,noexec
     9                           	psect	stringtext5,global,class=STRCODE,delta=2,noexec
    10                           	psect	stringtext6,global,class=STRCODE,delta=2,noexec
    11                           	psect	stringtext7,global,class=STRCODE,delta=2,noexec
    12                           	psect	stringtext8,global,class=STRCODE,delta=2,noexec
    13                           	psect	stringtext9,global,class=STRCODE,delta=2,noexec
    14                           	psect	cinit,global,class=CODE,merge=1,delta=2
    15                           	psect	bssBANK1,global,class=BANK1,space=1,delta=1,noexec
    16                           	psect	bssBANK2,global,class=BANK2,space=1,delta=1,noexec
    17                           	psect	bssBANK3,global,class=BANK3,space=1,delta=1,noexec
    18                           	psect	clrtext,global,class=CODE,delta=2
    19                           	psect	cstackBANK2,global,class=BANK2,space=1,delta=1,noexec
    20                           	psect	cstackBANK1,global,class=BANK1,space=1,delta=1,noexec
    21                           	psect	cstackCOMMON,global,class=COMMON,space=1,delta=1,noexec
    22                           	psect	cstackBANK0,global,class=BANK0,space=1,delta=1,noexec
    23                           	psect	maintext,global,class=CODE,merge=1,split=1,delta=2
    24                           	psect	text1,local,class=CODE,merge=1,delta=2,group=3
    25                           	psect	text2,local,class=CODE,merge=1,delta=2,group=1
    26                           	psect	text3,local,class=CODE,merge=1,delta=2,group=1
    27                           	psect	text4,local,class=CODE,merge=1,delta=2,group=3
    28                           	psect	text5,local,class=CODE,merge=1,delta=2,group=1
    29                           	psect	text6,local,class=CODE,merge=1,delta=2,group=3
    30                           	psect	text7,local,class=CODE,merge=1,delta=2,group=3
    31                           	psect	text8,local,class=CODE,merge=1,delta=2,group=3
    32                           	psect	text9,local,class=CODE,merge=1,delta=2,group=3
    33                           	psect	text10,local,class=CODE,merge=1,delta=2,group=3
    34                           	psect	text11,local,class=CODE,merge=1,delta=2,group=2
    35                           	psect	text12,local,class=CODE,merge=1,delta=2,group=2
    36                           	psect	text13,local,class=CODE,merge=1,delta=2,group=2
    37                           	psect	text14,local,class=CODE,merge=1,delta=2,group=2
    38                           	psect	text15,local,class=CODE,merge=1,delta=2,group=2
    39                           	psect	text16,local,class=CODE,merge=1,delta=2,group=2
    40                           	psect	text17,local,class=CODE,merge=1,delta=2,group=2
    41                           	psect	text18,local,class=CODE,merge=1,delta=2,group=2
    42                           	psect	text19,local,class=CODE,merge=1,delta=2,group=2
    43                           	psect	text20,local,class=CODE,merge=1,delta=2,group=2
    44                           	psect	text21,local,class=CODE,merge=1,delta=2,group=2
    45                           	psect	text22,local,class=CODE,merge=1,delta=2,group=1
    46                           	psect	text23,local,class=CODE,merge=1,delta=2,group=1
    47                           	psect	text24,local,class=CODE,merge=1,delta=2,group=3
    48                           	psect	text25,local,class=CODE,merge=1,delta=2,group=3
    49                           	psect	text26,local,class=CODE,merge=1,delta=2,group=3
    50                           	psect	text27,local,class=CODE,merge=1,delta=2,group=3
    51                           	psect	text28,local,class=CODE,merge=1,delta=2,group=3
    52                           	psect	text29,local,class=CODE,merge=1,delta=2,group=2
    53                           	psect	text30,local,class=CODE,merge=1,delta=2,group=2
    54                           	psect	text31,local,class=CODE,merge=1,delta=2,group=3
    55                           	psect	text32,local,class=CODE,merge=1,delta=2,group=3
    56                           	psect	text33,local,class=CODE,merge=1,delta=2,group=3
    57                           	psect	text34,local,class=CODE,merge=1,delta=2,group=2
    58                           	psect	text35,local,class=CODE,merge=1,delta=2
    59                           	psect	text36,local,class=CODE,merge=1,delta=2
    60                           	psect	text37,local,class=CODE,merge=1,delta=2,group=2
    61                           	psect	text38,local,class=CODE,merge=1,delta=2
    62                           	psect	text39,local,class=CODE,merge=1,delta=2
    63                           	psect	text40,local,class=CODE,merge=1,delta=2
    64                           	psect	text41,local,class=CODE,merge=1,delta=2
    65                           	psect	text42,local,class=CODE,merge=1,delta=2
    66                           	psect	text43,local,class=CODE,merge=1,delta=2
    67                           	psect	text44,local,class=CODE,merge=1,delta=2
    68                           	psect	text45,local,class=CODE,merge=1,delta=2
    69                           	psect	text46,local,class=CODE,merge=1,delta=2
    70                           	psect	text47,local,class=CODE,merge=1,delta=2
    71                           	psect	text48,local,class=CODE,merge=1,delta=2
    72                           	psect	idloc,global,abs,ovrld,class=IDLOC,space=5,delta=2,noexec
    73                           	psect	config,global,abs,ovrld,class=CONFIG,space=4,delta=2,noexec
    74                           	dabs	1,0x7E,2
    75  0000                     
    76                           ; Version 2.40
    77                           ; Generated 02/12/2021 GMT
    78                           ; 
    79                           ; Copyright © 2021, Microchip Technology Inc. and its subsidiaries ("Microchip")
    80                           ; All rights reserved.
    81                           ; 
    82                           ; This software is developed by Microchip Technology Inc. and its subsidiaries ("Microch
      +                          ip").
    83                           ; 
    84                           ; Redistribution and use in source and binary forms, with or without modification, are
    85                           ; permitted provided that the following conditions are met:
    86                           ; 
    87                           ;     1. Redistributions of source code must retain the above copyright notice, this lis
      +                          t of
    88                           ;        conditions and the following disclaimer.
    89                           ; 
    90                           ;     2. Redistributions in binary form must reproduce the above copyright notice, this 
      +                          list
    91                           ;        of conditions and the following disclaimer in the documentation and/or other
    92                           ;        materials provided with the distribution. Publication is not required when
    93                           ;        this file is used in an embedded application.
    94                           ; 
    95                           ;     3. Microchip's name may not be used to endorse or promote products derived from th
      +                          is
    96                           ;        software without specific prior written permission.
    97                           ; 
    98                           ; THIS SOFTWARE IS PROVIDED BY MICROCHIP "AS IS" AND ANY EXPRESS OR IMPLIED WARRANTIES,
    99                           ; INCLUDING, BUT NOT LIMITED TO, THE IMPLIED WARRANTIES OF MERCHANTABILITY AND FITNESS F
      +                          OR
   100                           ; PURPOSE ARE DISCLAIMED.  IN NO EVENT SHALL MICROCHIP BE LIABLE FOR ANY DIRECT, INDIREC
      +                          T,
   101                           ; INCIDENTAL, SPECIAL, EXEMPLARY, OR CONSEQUENTIAL DAMAGES (INCLUDING BUT NOT LIMITED TO
   102                           ; PROCUREMENT OF SUBSTITUTE GOODS OR SERVICES; LOSS OF USE, DATA OR PROFITS; OR BUSINESS
   103                           ; INTERRUPTION) HOWSOEVER CAUSED AND ON ANY THEORY OF LIABILITY, WHETHER IN CONTRACT, ST
      +                          RICT
   104                           ; LIABILITY, OR TORT (INCLUDING NEGLIGENCE OR OTHERWISE) ARISING IN ANY WAY OUT OF THE U
      +                          SE OF
   105                           ; THIS SOFTWARE, EVEN IF ADVISED OF THE POSSIBILITY OF SUCH DAMAGE.
   106                           ; 
   107                           ; 
   108                           ; Code-generator required, PIC16F18326 Definitions
   109                           ; 
   110                           ; SFR Addresses
   111  0000                     	;# 
   112  0001                     	;# 
   113  0002                     	;# 
   114  0003                     	;# 
   115  0004                     	;# 
   116  0005                     	;# 
   117  0006                     	;# 
   118  0007                     	;# 
   119  0008                     	;# 
   120  0009                     	;# 
   121  000A                     	;# 
   122  000B                     	;# 
   123  000C                     	;# 
   124  000E                     	;# 
   125  0010                     	;# 
   126  0011                     	;# 
   127  0012                     	;# 
   128  0013                     	;# 
   129  0014                     	;# 
   130  0015                     	;# 
   131  0015                     	;# 
   132  0016                     	;# 
   133  0016                     	;# 
   134  0017                     	;# 
   135  0018                     	;# 
   136  0019                     	;# 
   137  0019                     	;# 
   138  001A                     	;# 
   139  001B                     	;# 
   140  001C                     	;# 
   141  001D                     	;# 
   142  001E                     	;# 
   143  001F                     	;# 
   144  008C                     	;# 
   145  008E                     	;# 
   146  0090                     	;# 
   147  0091                     	;# 
   148  0092                     	;# 
   149  0093                     	;# 
   150  0094                     	;# 
   151  0097                     	;# 
   152  009B                     	;# 
   153  009B                     	;# 
   154  009C                     	;# 
   155  009D                     	;# 
   156  009E                     	;# 
   157  009F                     	;# 
   158  010C                     	;# 
   159  010E                     	;# 
   160  0111                     	;# 
   161  0112                     	;# 
   162  0113                     	;# 
   163  0114                     	;# 
   164  0115                     	;# 
   165  0116                     	;# 
   166  0117                     	;# 
   167  0118                     	;# 
   168  0119                     	;# 
   169  018C                     	;# 
   170  018E                     	;# 
   171  0197                     	;# 
   172  0199                     	;# 
   173  0199                     	;# 
   174  0199                     	;# 
   175  019A                     	;# 
   176  019A                     	;# 
   177  019A                     	;# 
   178  019B                     	;# 
   179  019B                     	;# 
   180  019B                     	;# 
   181  019B                     	;# 
   182  019B                     	;# 
   183  019C                     	;# 
   184  019C                     	;# 
   185  019C                     	;# 
   186  019D                     	;# 
   187  019D                     	;# 
   188  019D                     	;# 
   189  019E                     	;# 
   190  019E                     	;# 
   191  019E                     	;# 
   192  019F                     	;# 
   193  019F                     	;# 
   194  019F                     	;# 
   195  019F                     	;# 
   196  019F                     	;# 
   197  020C                     	;# 
   198  020E                     	;# 
   199  0211                     	;# 
   200  0211                     	;# 
   201  0212                     	;# 
   202  0212                     	;# 
   203  0213                     	;# 
   204  0213                     	;# 
   205  0214                     	;# 
   206  0214                     	;# 
   207  0215                     	;# 
   208  0215                     	;# 
   209  0215                     	;# 
   210  0215                     	;# 
   211  0216                     	;# 
   212  0216                     	;# 
   213  0217                     	;# 
   214  0217                     	;# 
   215  0219                     	;# 
   216  021A                     	;# 
   217  021B                     	;# 
   218  021C                     	;# 
   219  021D                     	;# 
   220  021D                     	;# 
   221  021E                     	;# 
   222  021F                     	;# 
   223  028C                     	;# 
   224  028E                     	;# 
   225  0291                     	;# 
   226  0291                     	;# 
   227  0292                     	;# 
   228  0293                     	;# 
   229  0294                     	;# 
   230  0295                     	;# 
   231  0295                     	;# 
   232  0296                     	;# 
   233  0297                     	;# 
   234  0298                     	;# 
   235  029F                     	;# 
   236  030C                     	;# 
   237  030E                     	;# 
   238  0311                     	;# 
   239  0311                     	;# 
   240  0312                     	;# 
   241  0313                     	;# 
   242  0314                     	;# 
   243  0315                     	;# 
   244  0315                     	;# 
   245  0316                     	;# 
   246  0317                     	;# 
   247  0318                     	;# 
   248  038C                     	;# 
   249  038E                     	;# 
   250  0391                     	;# 
   251  0392                     	;# 
   252  0393                     	;# 
   253  0397                     	;# 
   254  0398                     	;# 
   255  0399                     	;# 
   256  039A                     	;# 
   257  039C                     	;# 
   258  039D                     	;# 
   259  039E                     	;# 
   260  039F                     	;# 
   261  0411                     	;# 
   262  0411                     	;# 
   263  0412                     	;# 
   264  0413                     	;# 
   265  0414                     	;# 
   266  0415                     	;# 
   267  0416                     	;# 
   268  0417                     	;# 
   269  0418                     	;# 
   270  0418                     	;# 
   271  0419                     	;# 
   272  041A                     	;# 
   273  041B                     	;# 
   274  041C                     	;# 
   275  041D                     	;# 
   276  041E                     	;# 
   277  041F                     	;# 
   278  0498                     	;# 
   279  0498                     	;# 
   280  0499                     	;# 
   281  049A                     	;# 
   282  049B                     	;# 
   283  049B                     	;# 
   284  049C                     	;# 
   285  049D                     	;# 
   286  049E                     	;# 
   287  049F                     	;# 
   288  0617                     	;# 
   289  0618                     	;# 
   290  0619                     	;# 
   291  0619                     	;# 
   292  061A                     	;# 
   293  061B                     	;# 
   294  061C                     	;# 
   295  061C                     	;# 
   296  061F                     	;# 
   297  0691                     	;# 
   298  0692                     	;# 
   299  0693                     	;# 
   300  0694                     	;# 
   301  0695                     	;# 
   302  0696                     	;# 
   303  0697                     	;# 
   304  0698                     	;# 
   305  0699                     	;# 
   306  0711                     	;# 
   307  0712                     	;# 
   308  0713                     	;# 
   309  0714                     	;# 
   310  0715                     	;# 
   311  0716                     	;# 
   312  0717                     	;# 
   313  0718                     	;# 
   314  0719                     	;# 
   315  0891                     	;# 
   316  0891                     	;# 
   317  0891                     	;# 
   318  0891                     	;# 
   319  0891                     	;# 
   320  0891                     	;# 
   321  0892                     	;# 
   322  0892                     	;# 
   323  0892                     	;# 
   324  0893                     	;# 
   325  0893                     	;# 
   326  0893                     	;# 
   327  0893                     	;# 
   328  0893                     	;# 
   329  0893                     	;# 
   330  0894                     	;# 
   331  0894                     	;# 
   332  0894                     	;# 
   333  0895                     	;# 
   334  0895                     	;# 
   335  0895                     	;# 
   336  0896                     	;# 
   337  0896                     	;# 
   338  0896                     	;# 
   339  089B                     	;# 
   340  0911                     	;# 
   341  0912                     	;# 
   342  0913                     	;# 
   343  0914                     	;# 
   344  0915                     	;# 
   345  0916                     	;# 
   346  0918                     	;# 
   347  0919                     	;# 
   348  091A                     	;# 
   349  091B                     	;# 
   350  091C                     	;# 
   351  091D                     	;# 
   352  091E                     	;# 
   353  091F                     	;# 
   354  0E0F                     	;# 
   355  0E10                     	;# 
   356  0E11                     	;# 
   357  0E12                     	;# 
   358  0E13                     	;# 
   359  0E14                     	;# 
   360  0E15                     	;# 
   361  0E16                     	;# 
   362  0E17                     	;# 
   363  0E18                     	;# 
   364  0E19                     	;# 
   365  0E1A                     	;# 
   366  0E1B                     	;# 
   367  0E1C                     	;# 
   368  0E1D                     	;# 
   369  0E1E                     	;# 
   370  0E1F                     	;# 
   371  0E20                     	;# 
   372  0E21                     	;# 
   373  0E22                     	;# 
   374  0E24                     	;# 
   375  0E25                     	;# 
   376  0E28                     	;# 
   377  0E29                     	;# 
   378  0E2A                     	;# 
   379  0E2B                     	;# 
   380  0E2C                     	;# 
   381  0E2D                     	;# 
   382  0E2E                     	;# 
   383  0E2F                     	;# 
   384  0E90                     	;# 
   385  0E91                     	;# 
   386  0E92                     	;# 
   387  0E94                     	;# 
   388  0E95                     	;# 
   389  0EA0                     	;# 
   390  0EA1                     	;# 
   391  0EA2                     	;# 
   392  0EA3                     	;# 
   393  0EA4                     	;# 
   394  0EA5                     	;# 
   395  0F0F                     	;# 
   396  0F10                     	;# 
   397  0F11                     	;# 
   398  0F12                     	;# 
   399  0F13                     	;# 
   400  0F14                     	;# 
   401  0F15                     	;# 
   402  0F16                     	;# 
   403  0F17                     	;# 
   404  0F18                     	;# 
   405  0F19                     	;# 
   406  0F1A                     	;# 
   407  0F1B                     	;# 
   408  0F1C                     	;# 
   409  0F1D                     	;# 
   410  0F1E                     	;# 
   411  0F1F                     	;# 
   412  0F20                     	;# 
   413  0F21                     	;# 
   414  0F22                     	;# 
   415  0F23                     	;# 
   416  0F24                     	;# 
   417  0F25                     	;# 
   418  0F26                     	;# 
   419  0F27                     	;# 
   420  0F28                     	;# 
   421  0F29                     	;# 
   422  0F2A                     	;# 
   423  0F2B                     	;# 
   424  0F2C                     	;# 
   425  0F2D                     	;# 
   426  0F2E                     	;# 
   427  0F2F                     	;# 
   428  0F30                     	;# 
   429  0F31                     	;# 
   430  0F32                     	;# 
   431  0F33                     	;# 
   432  0F34                     	;# 
   433  0F35                     	;# 
   434  0F36                     	;# 
   435  0F37                     	;# 
   436  0FE4                     	;# 
   437  0FE5                     	;# 
   438  0FE6                     	;# 
   439  0FE7                     	;# 
   440  0FE8                     	;# 
   441  0FE9                     	;# 
   442  0FEA                     	;# 
   443  0FEB                     	;# 
   444  0FED                     	;# 
   445  0FEE                     	;# 
   446  0FEF                     	;# 
   447  0000                     	;# 
   448  0001                     	;# 
   449  0002                     	;# 
   450  0003                     	;# 
   451  0004                     	;# 
   452  0005                     	;# 
   453  0006                     	;# 
   454  0007                     	;# 
   455  0008                     	;# 
   456  0009                     	;# 
   457  000A                     	;# 
   458  000B                     	;# 
   459  000C                     	;# 
   460  000E                     	;# 
   461  0010                     	;# 
   462  0011                     	;# 
   463  0012                     	;# 
   464  0013                     	;# 
   465  0014                     	;# 
   466  0015                     	;# 
   467  0015                     	;# 
   468  0016                     	;# 
   469  0016                     	;# 
   470  0017                     	;# 
   471  0018                     	;# 
   472  0019                     	;# 
   473  0019                     	;# 
   474  001A                     	;# 
   475  001B                     	;# 
   476  001C                     	;# 
   477  001D                     	;# 
   478  001E                     	;# 
   479  001F                     	;# 
   480  008C                     	;# 
   481  008E                     	;# 
   482  0090                     	;# 
   483  0091                     	;# 
   484  0092                     	;# 
   485  0093                     	;# 
   486  0094                     	;# 
   487  0097                     	;# 
   488  009B                     	;# 
   489  009B                     	;# 
   490  009C                     	;# 
   491  009D                     	;# 
   492  009E                     	;# 
   493  009F                     	;# 
   494  010C                     	;# 
   495  010E                     	;# 
   496  0111                     	;# 
   497  0112                     	;# 
   498  0113                     	;# 
   499  0114                     	;# 
   500  0115                     	;# 
   501  0116                     	;# 
   502  0117                     	;# 
   503  0118                     	;# 
   504  0119                     	;# 
   505  018C                     	;# 
   506  018E                     	;# 
   507  0197                     	;# 
   508  0199                     	;# 
   509  0199                     	;# 
   510  0199                     	;# 
   511  019A                     	;# 
   512  019A                     	;# 
   513  019A                     	;# 
   514  019B                     	;# 
   515  019B                     	;# 
   516  019B                     	;# 
   517  019B                     	;# 
   518  019B                     	;# 
   519  019C                     	;# 
   520  019C                     	;# 
   521  019C                     	;# 
   522  019D                     	;# 
   523  019D                     	;# 
   524  019D                     	;# 
   525  019E                     	;# 
   526  019E                     	;# 
   527  019E                     	;# 
   528  019F                     	;# 
   529  019F                     	;# 
   530  019F                     	;# 
   531  019F                     	;# 
   532  019F                     	;# 
   533  020C                     	;# 
   534  020E                     	;# 
   535  0211                     	;# 
   536  0211                     	;# 
   537  0212                     	;# 
   538  0212                     	;# 
   539  0213                     	;# 
   540  0213                     	;# 
   541  0214                     	;# 
   542  0214                     	;# 
   543  0215                     	;# 
   544  0215                     	;# 
   545  0215                     	;# 
   546  0215                     	;# 
   547  0216                     	;# 
   548  0216                     	;# 
   549  0217                     	;# 
   550  0217                     	;# 
   551  0219                     	;# 
   552  021A                     	;# 
   553  021B                     	;# 
   554  021C                     	;# 
   555  021D                     	;# 
   556  021D                     	;# 
   557  021E                     	;# 
   558  021F                     	;# 
   559  028C                     	;# 
   560  028E                     	;# 
   561  0291                     	;# 
   562  0291                     	;# 
   563  0292                     	;# 
   564  0293                     	;# 
   565  0294                     	;# 
   566  0295                     	;# 
   567  0295                     	;# 
   568  0296                     	;# 
   569  0297                     	;# 
   570  0298                     	;# 
   571  029F                     	;# 
   572  030C                     	;# 
   573  030E                     	;# 
   574  0311                     	;# 
   575  0311                     	;# 
   576  0312                     	;# 
   577  0313                     	;# 
   578  0314                     	;# 
   579  0315                     	;# 
   580  0315                     	;# 
   581  0316                     	;# 
   582  0317                     	;# 
   583  0318                     	;# 
   584  038C                     	;# 
   585  038E                     	;# 
   586  0391                     	;# 
   587  0392                     	;# 
   588  0393                     	;# 
   589  0397                     	;# 
   590  0398                     	;# 
   591  0399                     	;# 
   592  039A                     	;# 
   593  039C                     	;# 
   594  039D                     	;# 
   595  039E                     	;# 
   596  039F                     	;# 
   597  0411                     	;# 
   598  0411                     	;# 
   599  0412                     	;# 
   600  0413                     	;# 
   601  0414                     	;# 
   602  0415                     	;# 
   603  0416                     	;# 
   604  0417                     	;# 
   605  0418                     	;# 
   606  0418                     	;# 
   607  0419                     	;# 
   608  041A                     	;# 
   609  041B                     	;# 
   610  041C                     	;# 
   611  041D                     	;# 
   612  041E                     	;# 
   613  041F                     	;# 
   614  0498                     	;# 
   615  0498                     	;# 
   616  0499                     	;# 
   617  049A                     	;# 
   618  049B                     	;# 
   619  049B                     	;# 
   620  049C                     	;# 
   621  049D                     	;# 
   622  049E                     	;# 
   623  049F                     	;# 
   624  0617                     	;# 
   625  0618                     	;# 
   626  0619                     	;# 
   627  0619                     	;# 
   628  061A                     	;# 
   629  061B                     	;# 
   630  061C                     	;# 
   631  061C                     	;# 
   632  061F                     	;# 
   633  0691                     	;# 
   634  0692                     	;# 
   635  0693                     	;# 
   636  0694                     	;# 
   637  0695                     	;# 
   638  0696                     	;# 
   639  0697                     	;# 
   640  0698                     	;# 
   641  0699                     	;# 
   642  0711                     	;# 
   643  0712                     	;# 
   644  0713                     	;# 
   645  0714                     	;# 
   646  0715                     	;# 
   647  0716                     	;# 
   648  0717                     	;# 
   649  0718                     	;# 
   650  0719                     	;# 
   651  0891                     	;# 
   652  0891                     	;# 
   653  0891                     	;# 
   654  0891                     	;# 
   655  0891                     	;# 
   656  0891                     	;# 
   657  0892                     	;# 
   658  0892                     	;# 
   659  0892                     	;# 
   660  0893                     	;# 
   661  0893                     	;# 
   662  0893                     	;# 
   663  0893                     	;# 
   664  0893                     	;# 
   665  0893                     	;# 
   666  0894                     	;# 
   667  0894                     	;# 
   668  0894                     	;# 
   669  0895                     	;# 
   670  0895                     	;# 
   671  0895                     	;# 
   672  0896                     	;# 
   673  0896                     	;# 
   674  0896                     	;# 
   675  089B                     	;# 
   676  0911                     	;# 
   677  0912                     	;# 
   678  0913                     	;# 
   679  0914                     	;# 
   680  0915                     	;# 
   681  0916                     	;# 
   682  0918                     	;# 
   683  0919                     	;# 
   684  091A                     	;# 
   685  091B                     	;# 
   686  091C                     	;# 
   687  091D                     	;# 
   688  091E                     	;# 
   689  091F                     	;# 
   690  0E0F                     	;# 
   691  0E10                     	;# 
   692  0E11                     	;# 
   693  0E12                     	;# 
   694  0E13                     	;# 
   695  0E14                     	;# 
   696  0E15                     	;# 
   697  0E16                     	;# 
   698  0E17                     	;# 
   699  0E18                     	;# 
   700  0E19                     	;# 
   701  0E1A                     	;# 
   702  0E1B                     	;# 
   703  0E1C                     	;# 
   704  0E1D                     	;# 
   705  0E1E                     	;# 
   706  0E1F                     	;# 
   707  0E20                     	;# 
   708  0E21                     	;# 
   709  0E22                     	;# 
   710  0E24                     	;# 
   711  0E25                     	;# 
   712  0E28                     	;# 
   713  0E29                     	;# 
   714  0E2A                     	;# 
   715  0E2B                     	;# 
   716  0E2C                     	;# 
   717  0E2D                     	;# 
   718  0E2E                     	;# 
   719  0E2F                     	;# 
   720  0E90                     	;# 
   721  0E91                     	;# 
   722  0E92                     	;# 
   723  0E94                     	;# 
   724  0E95                     	;# 
   725  0EA0                     	;# 
   726  0EA1                     	;# 
   727  0EA2                     	;# 
   728  0EA3                     	;# 
   729  0EA4                     	;# 
   730  0EA5                     	;# 
   731  0F0F                     	;# 
   732  0F10                     	;# 
   733  0F11                     	;# 
   734  0F12                     	;# 
   735  0F13                     	;# 
   736  0F14                     	;# 
   737  0F15                     	;# 
   738  0F16                     	;# 
   739  0F17                     	;# 
   740  0F18                     	;# 
   741  0F19                     	;# 
   742  0F1A                     	;# 
   743  0F1B                     	;# 
   744  0F1C                     	;# 
   745  0F1D                     	;# 
   746  0F1E                     	;# 
   747  0F1F                     	;# 
   748  0F20                     	;# 
   749  0F21                     	;# 
   750  0F22                     	;# 
   751  0F23                     	;# 
   752  0F24                     	;# 
   753  0F25                     	;# 
   754  0F26                     	;# 
   755  0F27                     	;# 
   756  0F28                     	;# 
   757  0F29                     	;# 
   758  0F2A                     	;# 
   759  0F2B                     	;# 
   760  0F2C                     	;# 
   761  0F2D                     	;# 
   762  0F2E                     	;# 
   763  0F2F                     	;# 
   764  0F30                     	;# 
   765  0F31                     	;# 
   766  0F32                     	;# 
   767  0F33                     	;# 
   768  0F34                     	;# 
   769  0F35                     	;# 
   770  0F36                     	;# 
   771  0F37                     	;# 
   772  0FE4                     	;# 
   773  0FE5                     	;# 
   774  0FE6                     	;# 
   775  0FE7                     	;# 
   776  0FE8                     	;# 
   777  0FE9                     	;# 
   778  0FEA                     	;# 
   779  0FEB                     	;# 
   780  0FED                     	;# 
   781  0FEE                     	;# 
   782  0FEF                     	;# 
   783  0000                     	;# 
   784  0001                     	;# 
   785  0002                     	;# 
   786  0003                     	;# 
   787  0004                     	;# 
   788  0005                     	;# 
   789  0006                     	;# 
   790  0007                     	;# 
   791  0008                     	;# 
   792  0009                     	;# 
   793  000A                     	;# 
   794  000B                     	;# 
   795  000C                     	;# 
   796  000E                     	;# 
   797  0010                     	;# 
   798  0011                     	;# 
   799  0012                     	;# 
   800  0013                     	;# 
   801  0014                     	;# 
   802  0015                     	;# 
   803  0015                     	;# 
   804  0016                     	;# 
   805  0016                     	;# 
   806  0017                     	;# 
   807  0018                     	;# 
   808  0019                     	;# 
   809  0019                     	;# 
   810  001A                     	;# 
   811  001B                     	;# 
   812  001C                     	;# 
   813  001D                     	;# 
   814  001E                     	;# 
   815  001F                     	;# 
   816  008C                     	;# 
   817  008E                     	;# 
   818  0090                     	;# 
   819  0091                     	;# 
   820  0092                     	;# 
   821  0093                     	;# 
   822  0094                     	;# 
   823  0097                     	;# 
   824  009B                     	;# 
   825  009B                     	;# 
   826  009C                     	;# 
   827  009D                     	;# 
   828  009E                     	;# 
   829  009F                     	;# 
   830  010C                     	;# 
   831  010E                     	;# 
   832  0111                     	;# 
   833  0112                     	;# 
   834  0113                     	;# 
   835  0114                     	;# 
   836  0115                     	;# 
   837  0116                     	;# 
   838  0117                     	;# 
   839  0118                     	;# 
   840  0119                     	;# 
   841  018C                     	;# 
   842  018E                     	;# 
   843  0197                     	;# 
   844  0199                     	;# 
   845  0199                     	;# 
   846  0199                     	;# 
   847  019A                     	;# 
   848  019A                     	;# 
   849  019A                     	;# 
   850  019B                     	;# 
   851  019B                     	;# 
   852  019B                     	;# 
   853  019B                     	;# 
   854  019B                     	;# 
   855  019C                     	;# 
   856  019C                     	;# 
   857  019C                     	;# 
   858  019D                     	;# 
   859  019D                     	;# 
   860  019D                     	;# 
   861  019E                     	;# 
   862  019E                     	;# 
   863  019E                     	;# 
   864  019F                     	;# 
   865  019F                     	;# 
   866  019F                     	;# 
   867  019F                     	;# 
   868  019F                     	;# 
   869  020C                     	;# 
   870  020E                     	;# 
   871  0211                     	;# 
   872  0211                     	;# 
   873  0212                     	;# 
   874  0212                     	;# 
   875  0213                     	;# 
   876  0213                     	;# 
   877  0214                     	;# 
   878  0214                     	;# 
   879  0215                     	;# 
   880  0215                     	;# 
   881  0215                     	;# 
   882  0215                     	;# 
   883  0216                     	;# 
   884  0216                     	;# 
   885  0217                     	;# 
   886  0217                     	;# 
   887  0219                     	;# 
   888  021A                     	;# 
   889  021B                     	;# 
   890  021C                     	;# 
   891  021D                     	;# 
   892  021D                     	;# 
   893  021E                     	;# 
   894  021F                     	;# 
   895  028C                     	;# 
   896  028E                     	;# 
   897  0291                     	;# 
   898  0291                     	;# 
   899  0292                     	;# 
   900  0293                     	;# 
   901  0294                     	;# 
   902  0295                     	;# 
   903  0295                     	;# 
   904  0296                     	;# 
   905  0297                     	;# 
   906  0298                     	;# 
   907  029F                     	;# 
   908  030C                     	;# 
   909  030E                     	;# 
   910  0311                     	;# 
   911  0311                     	;# 
   912  0312                     	;# 
   913  0313                     	;# 
   914  0314                     	;# 
   915  0315                     	;# 
   916  0315                     	;# 
   917  0316                     	;# 
   918  0317                     	;# 
   919  0318                     	;# 
   920  038C                     	;# 
   921  038E                     	;# 
   922  0391                     	;# 
   923  0392                     	;# 
   924  0393                     	;# 
   925  0397                     	;# 
   926  0398                     	;# 
   927  0399                     	;# 
   928  039A                     	;# 
   929  039C                     	;# 
   930  039D                     	;# 
   931  039E                     	;# 
   932  039F                     	;# 
   933  0411                     	;# 
   934  0411                     	;# 
   935  0412                     	;# 
   936  0413                     	;# 
   937  0414                     	;# 
   938  0415                     	;# 
   939  0416                     	;# 
   940  0417                     	;# 
   941  0418                     	;# 
   942  0418                     	;# 
   943  0419                     	;# 
   944  041A                     	;# 
   945  041B                     	;# 
   946  041C                     	;# 
   947  041D                     	;# 
   948  041E                     	;# 
   949  041F                     	;# 
   950  0498                     	;# 
   951  0498                     	;# 
   952  0499                     	;# 
   953  049A                     	;# 
   954  049B                     	;# 
   955  049B                     	;# 
   956  049C                     	;# 
   957  049D                     	;# 
   958  049E                     	;# 
   959  049F                     	;# 
   960  0617                     	;# 
   961  0618                     	;# 
   962  0619                     	;# 
   963  0619                     	;# 
   964  061A                     	;# 
   965  061B                     	;# 
   966  061C                     	;# 
   967  061C                     	;# 
   968  061F                     	;# 
   969  0691                     	;# 
   970  0692                     	;# 
   971  0693                     	;# 
   972  0694                     	;# 
   973  0695                     	;# 
   974  0696                     	;# 
   975  0697                     	;# 
   976  0698                     	;# 
   977  0699                     	;# 
   978  0711                     	;# 
   979  0712                     	;# 
   980  0713                     	;# 
   981  0714                     	;# 
   982  0715                     	;# 
   983  0716                     	;# 
   984  0717                     	;# 
   985  0718                     	;# 
   986  0719                     	;# 
   987  0891                     	;# 
   988  0891                     	;# 
   989  0891                     	;# 
   990  0891                     	;# 
   991  0891                     	;# 
   992  0891                     	;# 
   993  0892                     	;# 
   994  0892                     	;# 
   995  0892                     	;# 
   996  0893                     	;# 
   997  0893                     	;# 
   998  0893                     	;# 
   999  0893                     	;# 
  1000  0893                     	;# 
  1001  0893                     	;# 
  1002  0894                     	;# 
  1003  0894                     	;# 
  1004  0894                     	;# 
  1005  0895                     	;# 
  1006  0895                     	;# 
  1007  0895                     	;# 
  1008  0896                     	;# 
  1009  0896                     	;# 
  1010  0896                     	;# 
  1011  089B                     	;# 
  1012  0911                     	;# 
  1013  0912                     	;# 
  1014  0913                     	;# 
  1015  0914                     	;# 
  1016  0915                     	;# 
  1017  0916                     	;# 
  1018  0918                     	;# 
  1019  0919                     	;# 
  1020  091A                     	;# 
  1021  091B                     	;# 
  1022  091C                     	;# 
  1023  091D                     	;# 
  1024  091E                     	;# 
  1025  091F                     	;# 
  1026  0E0F                     	;# 
  1027  0E10                     	;# 
  1028  0E11                     	;# 
  1029  0E12                     	;# 
  1030  0E13                     	;# 
  1031  0E14                     	;# 
  1032  0E15                     	;# 
  1033  0E16                     	;# 
  1034  0E17                     	;# 
  1035  0E18                     	;# 
  1036  0E19                     	;# 
  1037  0E1A                     	;# 
  1038  0E1B                     	;# 
  1039  0E1C                     	;# 
  1040  0E1D                     	;# 
  1041  0E1E                     	;# 
  1042  0E1F                     	;# 
  1043  0E20                     	;# 
  1044  0E21                     	;# 
  1045  0E22                     	;# 
  1046  0E24                     	;# 
  1047  0E25                     	;# 
  1048  0E28                     	;# 
  1049  0E29                     	;# 
  1050  0E2A                     	;# 
  1051  0E2B                     	;# 
  1052  0E2C                     	;# 
  1053  0E2D                     	;# 
  1054  0E2E                     	;# 
  1055  0E2F                     	;# 
  1056  0E90                     	;# 
  1057  0E91                     	;# 
  1058  0E92                     	;# 
  1059  0E94                     	;# 
  1060  0E95                     	;# 
  1061  0EA0                     	;# 
  1062  0EA1                     	;# 
  1063  0EA2                     	;# 
  1064  0EA3                     	;# 
  1065  0EA4                     	;# 
  1066  0EA5                     	;# 
  1067  0F0F                     	;# 
  1068  0F10                     	;# 
  1069  0F11                     	;# 
  1070  0F12                     	;# 
  1071  0F13                     	;# 
  1072  0F14                     	;# 
  1073  0F15                     	;# 
  1074  0F16                     	;# 
  1075  0F17                     	;# 
  1076  0F18                     	;# 
  1077  0F19                     	;# 
  1078  0F1A                     	;# 
  1079  0F1B                     	;# 
  1080  0F1C                     	;# 
  1081  0F1D                     	;# 
  1082  0F1E                     	;# 
  1083  0F1F                     	;# 
  1084  0F20                     	;# 
  1085  0F21                     	;# 
  1086  0F22                     	;# 
  1087  0F23                     	;# 
  1088  0F24                     	;# 
  1089  0F25                     	;# 
  1090  0F26                     	;# 
  1091  0F27                     	;# 
  1092  0F28                     	;# 
  1093  0F29                     	;# 
  1094  0F2A                     	;# 
  1095  0F2B                     	;# 
  1096  0F2C                     	;# 
  1097  0F2D                     	;# 
  1098  0F2E                     	;# 
  1099  0F2F                     	;# 
  1100  0F30                     	;# 
  1101  0F31                     	;# 
  1102  0F32                     	;# 
  1103  0F33                     	;# 
  1104  0F34                     	;# 
  1105  0F35                     	;# 
  1106  0F36                     	;# 
  1107  0F37                     	;# 
  1108  0FE4                     	;# 
  1109  0FE5                     	;# 
  1110  0FE6                     	;# 
  1111  0FE7                     	;# 
  1112  0FE8                     	;# 
  1113  0FE9                     	;# 
  1114  0FEA                     	;# 
  1115  0FEB                     	;# 
  1116  0FED                     	;# 
  1117  0FEE                     	;# 
  1118  0FEF                     	;# 
  1119  0000                     	;# 
  1120  0001                     	;# 
  1121  0002                     	;# 
  1122  0003                     	;# 
  1123  0004                     	;# 
  1124  0005                     	;# 
  1125  0006                     	;# 
  1126  0007                     	;# 
  1127  0008                     	;# 
  1128  0009                     	;# 
  1129  000A                     	;# 
  1130  000B                     	;# 
  1131  000C                     	;# 
  1132  000E                     	;# 
  1133  0010                     	;# 
  1134  0011                     	;# 
  1135  0012                     	;# 
  1136  0013                     	;# 
  1137  0014                     	;# 
  1138  0015                     	;# 
  1139  0015                     	;# 
  1140  0016                     	;# 
  1141  0016                     	;# 
  1142  0017                     	;# 
  1143  0018                     	;# 
  1144  0019                     	;# 
  1145  0019                     	;# 
  1146  001A                     	;# 
  1147  001B                     	;# 
  1148  001C                     	;# 
  1149  001D                     	;# 
  1150  001E                     	;# 
  1151  001F                     	;# 
  1152  008C                     	;# 
  1153  008E                     	;# 
  1154  0090                     	;# 
  1155  0091                     	;# 
  1156  0092                     	;# 
  1157  0093                     	;# 
  1158  0094                     	;# 
  1159  0097                     	;# 
  1160  009B                     	;# 
  1161  009B                     	;# 
  1162  009C                     	;# 
  1163  009D                     	;# 
  1164  009E                     	;# 
  1165  009F                     	;# 
  1166  010C                     	;# 
  1167  010E                     	;# 
  1168  0111                     	;# 
  1169  0112                     	;# 
  1170  0113                     	;# 
  1171  0114                     	;# 
  1172  0115                     	;# 
  1173  0116                     	;# 
  1174  0117                     	;# 
  1175  0118                     	;# 
  1176  0119                     	;# 
  1177  018C                     	;# 
  1178  018E                     	;# 
  1179  0197                     	;# 
  1180  0199                     	;# 
  1181  0199                     	;# 
  1182  0199                     	;# 
  1183  019A                     	;# 
  1184  019A                     	;# 
  1185  019A                     	;# 
  1186  019B                     	;# 
  1187  019B                     	;# 
  1188  019B                     	;# 
  1189  019B                     	;# 
  1190  019B                     	;# 
  1191  019C                     	;# 
  1192  019C                     	;# 
  1193  019C                     	;# 
  1194  019D                     	;# 
  1195  019D                     	;# 
  1196  019D                     	;# 
  1197  019E                     	;# 
  1198  019E                     	;# 
  1199  019E                     	;# 
  1200  019F                     	;# 
  1201  019F                     	;# 
  1202  019F                     	;# 
  1203  019F                     	;# 
  1204  019F                     	;# 
  1205  020C                     	;# 
  1206  020E                     	;# 
  1207  0211                     	;# 
  1208  0211                     	;# 
  1209  0212                     	;# 
  1210  0212                     	;# 
  1211  0213                     	;# 
  1212  0213                     	;# 
  1213  0214                     	;# 
  1214  0214                     	;# 
  1215  0215                     	;# 
  1216  0215                     	;# 
  1217  0215                     	;# 
  1218  0215                     	;# 
  1219  0216                     	;# 
  1220  0216                     	;# 
  1221  0217                     	;# 
  1222  0217                     	;# 
  1223  0219                     	;# 
  1224  021A                     	;# 
  1225  021B                     	;# 
  1226  021C                     	;# 
  1227  021D                     	;# 
  1228  021D                     	;# 
  1229  021E                     	;# 
  1230  021F                     	;# 
  1231  028C                     	;# 
  1232  028E                     	;# 
  1233  0291                     	;# 
  1234  0291                     	;# 
  1235  0292                     	;# 
  1236  0293                     	;# 
  1237  0294                     	;# 
  1238  0295                     	;# 
  1239  0295                     	;# 
  1240  0296                     	;# 
  1241  0297                     	;# 
  1242  0298                     	;# 
  1243  029F                     	;# 
  1244  030C                     	;# 
  1245  030E                     	;# 
  1246  0311                     	;# 
  1247  0311                     	;# 
  1248  0312                     	;# 
  1249  0313                     	;# 
  1250  0314                     	;# 
  1251  0315                     	;# 
  1252  0315                     	;# 
  1253  0316                     	;# 
  1254  0317                     	;# 
  1255  0318                     	;# 
  1256  038C                     	;# 
  1257  038E                     	;# 
  1258  0391                     	;# 
  1259  0392                     	;# 
  1260  0393                     	;# 
  1261  0397                     	;# 
  1262  0398                     	;# 
  1263  0399                     	;# 
  1264  039A                     	;# 
  1265  039C                     	;# 
  1266  039D                     	;# 
  1267  039E                     	;# 
  1268  039F                     	;# 
  1269  0411                     	;# 
  1270  0411                     	;# 
  1271  0412                     	;# 
  1272  0413                     	;# 
  1273  0414                     	;# 
  1274  0415                     	;# 
  1275  0416                     	;# 
  1276  0417                     	;# 
  1277  0418                     	;# 
  1278  0418                     	;# 
  1279  0419                     	;# 
  1280  041A                     	;# 
  1281  041B                     	;# 
  1282  041C                     	;# 
  1283  041D                     	;# 
  1284  041E                     	;# 
  1285  041F                     	;# 
  1286  0498                     	;# 
  1287  0498                     	;# 
  1288  0499                     	;# 
  1289  049A                     	;# 
  1290  049B                     	;# 
  1291  049B                     	;# 
  1292  049C                     	;# 
  1293  049D                     	;# 
  1294  049E                     	;# 
  1295  049F                     	;# 
  1296  0617                     	;# 
  1297  0618                     	;# 
  1298  0619                     	;# 
  1299  0619                     	;# 
  1300  061A                     	;# 
  1301  061B                     	;# 
  1302  061C                     	;# 
  1303  061C                     	;# 
  1304  061F                     	;# 
  1305  0691                     	;# 
  1306  0692                     	;# 
  1307  0693                     	;# 
  1308  0694                     	;# 
  1309  0695                     	;# 
  1310  0696                     	;# 
  1311  0697                     	;# 
  1312  0698                     	;# 
  1313  0699                     	;# 
  1314  0711                     	;# 
  1315  0712                     	;# 
  1316  0713                     	;# 
  1317  0714                     	;# 
  1318  0715                     	;# 
  1319  0716                     	;# 
  1320  0717                     	;# 
  1321  0718                     	;# 
  1322  0719                     	;# 
  1323  0891                     	;# 
  1324  0891                     	;# 
  1325  0891                     	;# 
  1326  0891                     	;# 
  1327  0891                     	;# 
  1328  0891                     	;# 
  1329  0892                     	;# 
  1330  0892                     	;# 
  1331  0892                     	;# 
  1332  0893                     	;# 
  1333  0893                     	;# 
  1334  0893                     	;# 
  1335  0893                     	;# 
  1336  0893                     	;# 
  1337  0893                     	;# 
  1338  0894                     	;# 
  1339  0894                     	;# 
  1340  0894                     	;# 
  1341  0895                     	;# 
  1342  0895                     	;# 
  1343  0895                     	;# 
  1344  0896                     	;# 
  1345  0896                     	;# 
  1346  0896                     	;# 
  1347  089B                     	;# 
  1348  0911                     	;# 
  1349  0912                     	;# 
  1350  0913                     	;# 
  1351  0914                     	;# 
  1352  0915                     	;# 
  1353  0916                     	;# 
  1354  0918                     	;# 
  1355  0919                     	;# 
  1356  091A                     	;# 
  1357  091B                     	;# 
  1358  091C                     	;# 
  1359  091D                     	;# 
  1360  091E                     	;# 
  1361  091F                     	;# 
  1362  0E0F                     	;# 
  1363  0E10                     	;# 
  1364  0E11                     	;# 
  1365  0E12                     	;# 
  1366  0E13                     	;# 
  1367  0E14                     	;# 
  1368  0E15                     	;# 
  1369  0E16                     	;# 
  1370  0E17                     	;# 
  1371  0E18                     	;# 
  1372  0E19                     	;# 
  1373  0E1A                     	;# 
  1374  0E1B                     	;# 
  1375  0E1C                     	;# 
  1376  0E1D                     	;# 
  1377  0E1E                     	;# 
  1378  0E1F                     	;# 
  1379  0E20                     	;# 
  1380  0E21                     	;# 
  1381  0E22                     	;# 
  1382  0E24                     	;# 
  1383  0E25                     	;# 
  1384  0E28                     	;# 
  1385  0E29                     	;# 
  1386  0E2A                     	;# 
  1387  0E2B                     	;# 
  1388  0E2C                     	;# 
  1389  0E2D                     	;# 
  1390  0E2E                     	;# 
  1391  0E2F                     	;# 
  1392  0E90                     	;# 
  1393  0E91                     	;# 
  1394  0E92                     	;# 
  1395  0E94                     	;# 
  1396  0E95                     	;# 
  1397  0EA0                     	;# 
  1398  0EA1                     	;# 
  1399  0EA2                     	;# 
  1400  0EA3                     	;# 
  1401  0EA4                     	;# 
  1402  0EA5                     	;# 
  1403  0F0F                     	;# 
  1404  0F10                     	;# 
  1405  0F11                     	;# 
  1406  0F12                     	;# 
  1407  0F13                     	;# 
  1408  0F14                     	;# 
  1409  0F15                     	;# 
  1410  0F16                     	;# 
  1411  0F17                     	;# 
  1412  0F18                     	;# 
  1413  0F19                     	;# 
  1414  0F1A                     	;# 
  1415  0F1B                     	;# 
  1416  0F1C                     	;# 
  1417  0F1D                     	;# 
  1418  0F1E                     	;# 
  1419  0F1F                     	;# 
  1420  0F20                     	;# 
  1421  0F21                     	;# 
  1422  0F22                     	;# 
  1423  0F23                     	;# 
  1424  0F24                     	;# 
  1425  0F25                     	;# 
  1426  0F26                     	;# 
  1427  0F27                     	;# 
  1428  0F28                     	;# 
  1429  0F29                     	;# 
  1430  0F2A                     	;# 
  1431  0F2B                     	;# 
  1432  0F2C                     	;# 
  1433  0F2D                     	;# 
  1434  0F2E                     	;# 
  1435  0F2F                     	;# 
  1436  0F30                     	;# 
  1437  0F31                     	;# 
  1438  0F32                     	;# 
  1439  0F33                     	;# 
  1440  0F34                     	;# 
  1441  0F35                     	;# 
  1442  0F36                     	;# 
  1443  0F37                     	;# 
  1444  0FE4                     	;# 
  1445  0FE5                     	;# 
  1446  0FE6                     	;# 
  1447  0FE7                     	;# 
  1448  0FE8                     	;# 
  1449  0FE9                     	;# 
  1450  0FEA                     	;# 
  1451  0FEB                     	;# 
  1452  0FED                     	;# 
  1453  0FEE                     	;# 
  1454  0FEF                     	;# 
  1455  0000                     	;# 
  1456  0001                     	;# 
  1457  0002                     	;# 
  1458  0003                     	;# 
  1459  0004                     	;# 
  1460  0005                     	;# 
  1461  0006                     	;# 
  1462  0007                     	;# 
  1463  0008                     	;# 
  1464  0009                     	;# 
  1465  000A                     	;# 
  1466  000B                     	;# 
  1467  000C                     	;# 
  1468  000E                     	;# 
  1469  0010                     	;# 
  1470  0011                     	;# 
  1471  0012                     	;# 
  1472  0013                     	;# 
  1473  0014                     	;# 
  1474  0015                     	;# 
  1475  0015                     	;# 
  1476  0016                     	;# 
  1477  0016                     	;# 
  1478  0017                     	;# 
  1479  0018                     	;# 
  1480  0019                     	;# 
  1481  0019                     	;# 
  1482  001A                     	;# 
  1483  001B                     	;# 
  1484  001C                     	;# 
  1485  001D                     	;# 
  1486  001E                     	;# 
  1487  001F                     	;# 
  1488  008C                     	;# 
  1489  008E                     	;# 
  1490  0090                     	;# 
  1491  0091                     	;# 
  1492  0092                     	;# 
  1493  0093                     	;# 
  1494  0094                     	;# 
  1495  0097                     	;# 
  1496  009B                     	;# 
  1497  009B                     	;# 
  1498  009C                     	;# 
  1499  009D                     	;# 
  1500  009E                     	;# 
  1501  009F                     	;# 
  1502  010C                     	;# 
  1503  010E                     	;# 
  1504  0111                     	;# 
  1505  0112                     	;# 
  1506  0113                     	;# 
  1507  0114                     	;# 
  1508  0115                     	;# 
  1509  0116                     	;# 
  1510  0117                     	;# 
  1511  0118                     	;# 
  1512  0119                     	;# 
  1513  018C                     	;# 
  1514  018E                     	;# 
  1515  0197                     	;# 
  1516  0199                     	;# 
  1517  0199                     	;# 
  1518  0199                     	;# 
  1519  019A                     	;# 
  1520  019A                     	;# 
  1521  019A                     	;# 
  1522  019B                     	;# 
  1523  019B                     	;# 
  1524  019B                     	;# 
  1525  019B                     	;# 
  1526  019B                     	;# 
  1527  019C                     	;# 
  1528  019C                     	;# 
  1529  019C                     	;# 
  1530  019D                     	;# 
  1531  019D                     	;# 
  1532  019D                     	;# 
  1533  019E                     	;# 
  1534  019E                     	;# 
  1535  019E                     	;# 
  1536  019F                     	;# 
  1537  019F                     	;# 
  1538  019F                     	;# 
  1539  019F                     	;# 
  1540  019F                     	;# 
  1541  020C                     	;# 
  1542  020E                     	;# 
  1543  0211                     	;# 
  1544  0211                     	;# 
  1545  0212                     	;# 
  1546  0212                     	;# 
  1547  0213                     	;# 
  1548  0213                     	;# 
  1549  0214                     	;# 
  1550  0214                     	;# 
  1551  0215                     	;# 
  1552  0215                     	;# 
  1553  0215                     	;# 
  1554  0215                     	;# 
  1555  0216                     	;# 
  1556  0216                     	;# 
  1557  0217                     	;# 
  1558  0217                     	;# 
  1559  0219                     	;# 
  1560  021A                     	;# 
  1561  021B                     	;# 
  1562  021C                     	;# 
  1563  021D                     	;# 
  1564  021D                     	;# 
  1565  021E                     	;# 
  1566  021F                     	;# 
  1567  028C                     	;# 
  1568  028E                     	;# 
  1569  0291                     	;# 
  1570  0291                     	;# 
  1571  0292                     	;# 
  1572  0293                     	;# 
  1573  0294                     	;# 
  1574  0295                     	;# 
  1575  0295                     	;# 
  1576  0296                     	;# 
  1577  0297                     	;# 
  1578  0298                     	;# 
  1579  029F                     	;# 
  1580  030C                     	;# 
  1581  030E                     	;# 
  1582  0311                     	;# 
  1583  0311                     	;# 
  1584  0312                     	;# 
  1585  0313                     	;# 
  1586  0314                     	;# 
  1587  0315                     	;# 
  1588  0315                     	;# 
  1589  0316                     	;# 
  1590  0317                     	;# 
  1591  0318                     	;# 
  1592  038C                     	;# 
  1593  038E                     	;# 
  1594  0391                     	;# 
  1595  0392                     	;# 
  1596  0393                     	;# 
  1597  0397                     	;# 
  1598  0398                     	;# 
  1599  0399                     	;# 
  1600  039A                     	;# 
  1601  039C                     	;# 
  1602  039D                     	;# 
  1603  039E                     	;# 
  1604  039F                     	;# 
  1605  0411                     	;# 
  1606  0411                     	;# 
  1607  0412                     	;# 
  1608  0413                     	;# 
  1609  0414                     	;# 
  1610  0415                     	;# 
  1611  0416                     	;# 
  1612  0417                     	;# 
  1613  0418                     	;# 
  1614  0418                     	;# 
  1615  0419                     	;# 
  1616  041A                     	;# 
  1617  041B                     	;# 
  1618  041C                     	;# 
  1619  041D                     	;# 
  1620  041E                     	;# 
  1621  041F                     	;# 
  1622  0498                     	;# 
  1623  0498                     	;# 
  1624  0499                     	;# 
  1625  049A                     	;# 
  1626  049B                     	;# 
  1627  049B                     	;# 
  1628  049C                     	;# 
  1629  049D                     	;# 
  1630  049E                     	;# 
  1631  049F                     	;# 
  1632  0617                     	;# 
  1633  0618                     	;# 
  1634  0619                     	;# 
  1635  0619                     	;# 
  1636  061A                     	;# 
  1637  061B                     	;# 
  1638  061C                     	;# 
  1639  061C                     	;# 
  1640  061F                     	;# 
  1641  0691                     	;# 
  1642  0692                     	;# 
  1643  0693                     	;# 
  1644  0694                     	;# 
  1645  0695                     	;# 
  1646  0696                     	;# 
  1647  0697                     	;# 
  1648  0698                     	;# 
  1649  0699                     	;# 
  1650  0711                     	;# 
  1651  0712                     	;# 
  1652  0713                     	;# 
  1653  0714                     	;# 
  1654  0715                     	;# 
  1655  0716                     	;# 
  1656  0717                     	;# 
  1657  0718                     	;# 
  1658  0719                     	;# 
  1659  0891                     	;# 
  1660  0891                     	;# 
  1661  0891                     	;# 
  1662  0891                     	;# 
  1663  0891                     	;# 
  1664  0891                     	;# 
  1665  0892                     	;# 
  1666  0892                     	;# 
  1667  0892                     	;# 
  1668  0893                     	;# 
  1669  0893                     	;# 
  1670  0893                     	;# 
  1671  0893                     	;# 
  1672  0893                     	;# 
  1673  0893                     	;# 
  1674  0894                     	;# 
  1675  0894                     	;# 
  1676  0894                     	;# 
  1677  0895                     	;# 
  1678  0895                     	;# 
  1679  0895                     	;# 
  1680  0896                     	;# 
  1681  0896                     	;# 
  1682  0896                     	;# 
  1683  089B                     	;# 
  1684  0911                     	;# 
  1685  0912                     	;# 
  1686  0913                     	;# 
  1687  0914                     	;# 
  1688  0915                     	;# 
  1689  0916                     	;# 
  1690  0918                     	;# 
  1691  0919                     	;# 
  1692  091A                     	;# 
  1693  091B                     	;# 
  1694  091C                     	;# 
  1695  091D                     	;# 
  1696  091E                     	;# 
  1697  091F                     	;# 
  1698  0E0F                     	;# 
  1699  0E10                     	;# 
  1700  0E11                     	;# 
  1701  0E12                     	;# 
  1702  0E13                     	;# 
  1703  0E14                     	;# 
  1704  0E15                     	;# 
  1705  0E16                     	;# 
  1706  0E17                     	;# 
  1707  0E18                     	;# 
  1708  0E19                     	;# 
  1709  0E1A                     	;# 
  1710  0E1B                     	;# 
  1711  0E1C                     	;# 
  1712  0E1D                     	;# 
  1713  0E1E                     	;# 
  1714  0E1F                     	;# 
  1715  0E20                     	;# 
  1716  0E21                     	;# 
  1717  0E22                     	;# 
  1718  0E24                     	;# 
  1719  0E25                     	;# 
  1720  0E28                     	;# 
  1721  0E29                     	;# 
  1722  0E2A                     	;# 
  1723  0E2B                     	;# 
  1724  0E2C                     	;# 
  1725  0E2D                     	;# 
  1726  0E2E                     	;# 
  1727  0E2F                     	;# 
  1728  0E90                     	;# 
  1729  0E91                     	;# 
  1730  0E92                     	;# 
  1731  0E94                     	;# 
  1732  0E95                     	;# 
  1733  0EA0                     	;# 
  1734  0EA1                     	;# 
  1735  0EA2                     	;# 
  1736  0EA3                     	;# 
  1737  0EA4                     	;# 
  1738  0EA5                     	;# 
  1739  0F0F                     	;# 
  1740  0F10                     	;# 
  1741  0F11                     	;# 
  1742  0F12                     	;# 
  1743  0F13                     	;# 
  1744  0F14                     	;# 
  1745  0F15                     	;# 
  1746  0F16                     	;# 
  1747  0F17                     	;# 
  1748  0F18                     	;# 
  1749  0F19                     	;# 
  1750  0F1A                     	;# 
  1751  0F1B                     	;# 
  1752  0F1C                     	;# 
  1753  0F1D                     	;# 
  1754  0F1E                     	;# 
  1755  0F1F                     	;# 
  1756  0F20                     	;# 
  1757  0F21                     	;# 
  1758  0F22                     	;# 
  1759  0F23                     	;# 
  1760  0F24                     	;# 
  1761  0F25                     	;# 
  1762  0F26                     	;# 
  1763  0F27                     	;# 
  1764  0F28                     	;# 
  1765  0F29                     	;# 
  1766  0F2A                     	;# 
  1767  0F2B                     	;# 
  1768  0F2C                     	;# 
  1769  0F2D                     	;# 
  1770  0F2E                     	;# 
  1771  0F2F                     	;# 
  1772  0F30                     	;# 
  1773  0F31                     	;# 
  1774  0F32                     	;# 
  1775  0F33                     	;# 
  1776  0F34                     	;# 
  1777  0F35                     	;# 
  1778  0F36                     	;# 
  1779  0F37                     	;# 
  1780  0FE4                     	;# 
  1781  0FE5                     	;# 
  1782  0FE6                     	;# 
  1783  0FE7                     	;# 
  1784  0FE8                     	;# 
  1785  0FE9                     	;# 
  1786  0FEA                     	;# 
  1787  0FEB                     	;# 
  1788  0FED                     	;# 
  1789  0FEE                     	;# 
  1790  0FEF                     	;# 
  1791  0000                     	;# 
  1792  0001                     	;# 
  1793  0002                     	;# 
  1794  0003                     	;# 
  1795  0004                     	;# 
  1796  0005                     	;# 
  1797  0006                     	;# 
  1798  0007                     	;# 
  1799  0008                     	;# 
  1800  0009                     	;# 
  1801  000A                     	;# 
  1802  000B                     	;# 
  1803  000C                     	;# 
  1804  000E                     	;# 
  1805  0010                     	;# 
  1806  0011                     	;# 
  1807  0012                     	;# 
  1808  0013                     	;# 
  1809  0014                     	;# 
  1810  0015                     	;# 
  1811  0015                     	;# 
  1812  0016                     	;# 
  1813  0016                     	;# 
  1814  0017                     	;# 
  1815  0018                     	;# 
  1816  0019                     	;# 
  1817  0019                     	;# 
  1818  001A                     	;# 
  1819  001B                     	;# 
  1820  001C                     	;# 
  1821  001D                     	;# 
  1822  001E                     	;# 
  1823  001F                     	;# 
  1824  008C                     	;# 
  1825  008E                     	;# 
  1826  0090                     	;# 
  1827  0091                     	;# 
  1828  0092                     	;# 
  1829  0093                     	;# 
  1830  0094                     	;# 
  1831  0097                     	;# 
  1832  009B                     	;# 
  1833  009B                     	;# 
  1834  009C                     	;# 
  1835  009D                     	;# 
  1836  009E                     	;# 
  1837  009F                     	;# 
  1838  010C                     	;# 
  1839  010E                     	;# 
  1840  0111                     	;# 
  1841  0112                     	;# 
  1842  0113                     	;# 
  1843  0114                     	;# 
  1844  0115                     	;# 
  1845  0116                     	;# 
  1846  0117                     	;# 
  1847  0118                     	;# 
  1848  0119                     	;# 
  1849  018C                     	;# 
  1850  018E                     	;# 
  1851  0197                     	;# 
  1852  0199                     	;# 
  1853  0199                     	;# 
  1854  0199                     	;# 
  1855  019A                     	;# 
  1856  019A                     	;# 
  1857  019A                     	;# 
  1858  019B                     	;# 
  1859  019B                     	;# 
  1860  019B                     	;# 
  1861  019B                     	;# 
  1862  019B                     	;# 
  1863  019C                     	;# 
  1864  019C                     	;# 
  1865  019C                     	;# 
  1866  019D                     	;# 
  1867  019D                     	;# 
  1868  019D                     	;# 
  1869  019E                     	;# 
  1870  019E                     	;# 
  1871  019E                     	;# 
  1872  019F                     	;# 
  1873  019F                     	;# 
  1874  019F                     	;# 
  1875  019F                     	;# 
  1876  019F                     	;# 
  1877  020C                     	;# 
  1878  020E                     	;# 
  1879  0211                     	;# 
  1880  0211                     	;# 
  1881  0212                     	;# 
  1882  0212                     	;# 
  1883  0213                     	;# 
  1884  0213                     	;# 
  1885  0214                     	;# 
  1886  0214                     	;# 
  1887  0215                     	;# 
  1888  0215                     	;# 
  1889  0215                     	;# 
  1890  0215                     	;# 
  1891  0216                     	;# 
  1892  0216                     	;# 
  1893  0217                     	;# 
  1894  0217                     	;# 
  1895  0219                     	;# 
  1896  021A                     	;# 
  1897  021B                     	;# 
  1898  021C                     	;# 
  1899  021D                     	;# 
  1900  021D                     	;# 
  1901  021E                     	;# 
  1902  021F                     	;# 
  1903  028C                     	;# 
  1904  028E                     	;# 
  1905  0291                     	;# 
  1906  0291                     	;# 
  1907  0292                     	;# 
  1908  0293                     	;# 
  1909  0294                     	;# 
  1910  0295                     	;# 
  1911  0295                     	;# 
  1912  0296                     	;# 
  1913  0297                     	;# 
  1914  0298                     	;# 
  1915  029F                     	;# 
  1916  030C                     	;# 
  1917  030E                     	;# 
  1918  0311                     	;# 
  1919  0311                     	;# 
  1920  0312                     	;# 
  1921  0313                     	;# 
  1922  0314                     	;# 
  1923  0315                     	;# 
  1924  0315                     	;# 
  1925  0316                     	;# 
  1926  0317                     	;# 
  1927  0318                     	;# 
  1928  038C                     	;# 
  1929  038E                     	;# 
  1930  0391                     	;# 
  1931  0392                     	;# 
  1932  0393                     	;# 
  1933  0397                     	;# 
  1934  0398                     	;# 
  1935  0399                     	;# 
  1936  039A                     	;# 
  1937  039C                     	;# 
  1938  039D                     	;# 
  1939  039E                     	;# 
  1940  039F                     	;# 
  1941  0411                     	;# 
  1942  0411                     	;# 
  1943  0412                     	;# 
  1944  0413                     	;# 
  1945  0414                     	;# 
  1946  0415                     	;# 
  1947  0416                     	;# 
  1948  0417                     	;# 
  1949  0418                     	;# 
  1950  0418                     	;# 
  1951  0419                     	;# 
  1952  041A                     	;# 
  1953  041B                     	;# 
  1954  041C                     	;# 
  1955  041D                     	;# 
  1956  041E                     	;# 
  1957  041F                     	;# 
  1958  0498                     	;# 
  1959  0498                     	;# 
  1960  0499                     	;# 
  1961  049A                     	;# 
  1962  049B                     	;# 
  1963  049B                     	;# 
  1964  049C                     	;# 
  1965  049D                     	;# 
  1966  049E                     	;# 
  1967  049F                     	;# 
  1968  0617                     	;# 
  1969  0618                     	;# 
  1970  0619                     	;# 
  1971  0619                     	;# 
  1972  061A                     	;# 
  1973  061B                     	;# 
  1974  061C                     	;# 
  1975  061C                     	;# 
  1976  061F                     	;# 
  1977  0691                     	;# 
  1978  0692                     	;# 
  1979  0693                     	;# 
  1980  0694                     	;# 
  1981  0695                     	;# 
  1982  0696                     	;# 
  1983  0697                     	;# 
  1984  0698                     	;# 
  1985  0699                     	;# 
  1986  0711                     	;# 
  1987  0712                     	;# 
  1988  0713                     	;# 
  1989  0714                     	;# 
  1990  0715                     	;# 
  1991  0716                     	;# 
  1992  0717                     	;# 
  1993  0718                     	;# 
  1994  0719                     	;# 
  1995  0891                     	;# 
  1996  0891                     	;# 
  1997  0891                     	;# 
  1998  0891                     	;# 
  1999  0891                     	;# 
  2000  0891                     	;# 
  2001  0892                     	;# 
  2002  0892                     	;# 
  2003  0892                     	;# 
  2004  0893                     	;# 
  2005  0893                     	;# 
  2006  0893                     	;# 
  2007  0893                     	;# 
  2008  0893                     	;# 
  2009  0893                     	;# 
  2010  0894                     	;# 
  2011  0894                     	;# 
  2012  0894                     	;# 
  2013  0895                     	;# 
  2014  0895                     	;# 
  2015  0895                     	;# 
  2016  0896                     	;# 
  2017  0896                     	;# 
  2018  0896                     	;# 
  2019  089B                     	;# 
  2020  0911                     	;# 
  2021  0912                     	;# 
  2022  0913                     	;# 
  2023  0914                     	;# 
  2024  0915                     	;# 
  2025  0916                     	;# 
  2026  0918                     	;# 
  2027  0919                     	;# 
  2028  091A                     	;# 
  2029  091B                     	;# 
  2030  091C                     	;# 
  2031  091D                     	;# 
  2032  091E                     	;# 
  2033  091F                     	;# 
  2034  0E0F                     	;# 
  2035  0E10                     	;# 
  2036  0E11                     	;# 
  2037  0E12                     	;# 
  2038  0E13                     	;# 
  2039  0E14                     	;# 
  2040  0E15                     	;# 
  2041  0E16                     	;# 
  2042  0E17                     	;# 
  2043  0E18                     	;# 
  2044  0E19                     	;# 
  2045  0E1A                     	;# 
  2046  0E1B                     	;# 
  2047  0E1C                     	;# 
  2048  0E1D                     	;# 
  2049  0E1E                     	;# 
  2050  0E1F                     	;# 
  2051  0E20                     	;# 
  2052  0E21                     	;# 
  2053  0E22                     	;# 
  2054  0E24                     	;# 
  2055  0E25                     	;# 
  2056  0E28                     	;# 
  2057  0E29                     	;# 
  2058  0E2A                     	;# 
  2059  0E2B                     	;# 
  2060  0E2C                     	;# 
  2061  0E2D                     	;# 
  2062  0E2E                     	;# 
  2063  0E2F                     	;# 
  2064  0E90                     	;# 
  2065  0E91                     	;# 
  2066  0E92                     	;# 
  2067  0E94                     	;# 
  2068  0E95                     	;# 
  2069  0EA0                     	;# 
  2070  0EA1                     	;# 
  2071  0EA2                     	;# 
  2072  0EA3                     	;# 
  2073  0EA4                     	;# 
  2074  0EA5                     	;# 
  2075  0F0F                     	;# 
  2076  0F10                     	;# 
  2077  0F11                     	;# 
  2078  0F12                     	;# 
  2079  0F13                     	;# 
  2080  0F14                     	;# 
  2081  0F15                     	;# 
  2082  0F16                     	;# 
  2083  0F17                     	;# 
  2084  0F18                     	;# 
  2085  0F19                     	;# 
  2086  0F1A                     	;# 
  2087  0F1B                     	;# 
  2088  0F1C                     	;# 
  2089  0F1D                     	;# 
  2090  0F1E                     	;# 
  2091  0F1F                     	;# 
  2092  0F20                     	;# 
  2093  0F21                     	;# 
  2094  0F22                     	;# 
  2095  0F23                     	;# 
  2096  0F24                     	;# 
  2097  0F25                     	;# 
  2098  0F26                     	;# 
  2099  0F27                     	;# 
  2100  0F28                     	;# 
  2101  0F29                     	;# 
  2102  0F2A                     	;# 
  2103  0F2B                     	;# 
  2104  0F2C                     	;# 
  2105  0F2D                     	;# 
  2106  0F2E                     	;# 
  2107  0F2F                     	;# 
  2108  0F30                     	;# 
  2109  0F31                     	;# 
  2110  0F32                     	;# 
  2111  0F33                     	;# 
  2112  0F34                     	;# 
  2113  0F35                     	;# 
  2114  0F36                     	;# 
  2115  0F37                     	;# 
  2116  0FE4                     	;# 
  2117  0FE5                     	;# 
  2118  0FE6                     	;# 
  2119  0FE7                     	;# 
  2120  0FE8                     	;# 
  2121  0FE9                     	;# 
  2122  0FEA                     	;# 
  2123  0FEB                     	;# 
  2124  0FED                     	;# 
  2125  0FEE                     	;# 
  2126  0FEF                     	;# 
  2127                           
  2128 ;; Function _EUSART_DefaultFramingErrorHandler is unused but had its address taken
  2129  0000                     
  2130 ;; Function _EUSART_DefaultOverrunErrorHandler is unused but had its address taken
  2131  0000                     
  2132 ;; Function _EUSART_DefaultErrorHandler is unused but had its address taken
  2133  0000                     
  2134                           	psect	stringtext1
  2135  1800                     __pstringtext1:
  2136  1800                     _tvalTable:
  2137  1800  349A               	retlw	154
  2138  1801  3499               	retlw	153
  2139  1802  3499               	retlw	153
  2140  1803  343E               	retlw	62
  2141  1804  3400               	retlw	0
  2142  1805  3400               	retlw	0
  2143  1806  3400               	retlw	0
  2144  1807  3400               	retlw	0
  2145  1808  3400               	retlw	0
  2146  1809  343F               	retlw	63
  2147  180A  3405               	retlw	5
  2148  180B  3400               	retlw	0
  2149  180C  34CD               	retlw	205
  2150  180D  34CC               	retlw	204
  2151  180E  344C               	retlw	76
  2152  180F  343F               	retlw	63
  2153  1810  340A               	retlw	10
  2154  1811  3400               	retlw	0
  2155  1812  3400               	retlw	0
  2156  1813  3400               	retlw	0
  2157  1814  3480               	retlw	128
  2158  1815  343F               	retlw	63
  2159  1816  340F               	retlw	15
  2160  1817  3400               	retlw	0
  2161  1818  3400               	retlw	0
  2162  1819  3400               	retlw	0
  2163  181A  34A0               	retlw	160
  2164  181B  343F               	retlw	63
  2165  181C  3414               	retlw	20
  2166  181D  3400               	retlw	0
  2167  181E  3400               	retlw	0
  2168  181F  3400               	retlw	0
  2169  1820  34C0               	retlw	192
  2170  1821  343F               	retlw	63
  2171  1822  3419               	retlw	25
  2172  1823  3400               	retlw	0
  2173  1824  349A               	retlw	154
  2174  1825  3499               	retlw	153
  2175  1826  34D9               	retlw	217
  2176  1827  343F               	retlw	63
  2177  1828  341E               	retlw	30
  2178  1829  3400               	retlw	0
  2179  182A  34CD               	retlw	205
  2180  182B  34CC               	retlw	204
  2181  182C  34EC               	retlw	236
  2182  182D  343F               	retlw	63
  2183  182E  3423               	retlw	35
  2184  182F  3400               	retlw	0
  2185  1830  349A               	retlw	154
  2186  1831  3499               	retlw	153
  2187  1832  34F9               	retlw	249
  2188  1833  343F               	retlw	63
  2189  1834  3428               	retlw	40
  2190  1835  3400               	retlw	0
  2191  1836  34CD               	retlw	205
  2192  1837  34CC               	retlw	204
  2193  1838  340C               	retlw	12
  2194  1839  3440               	retlw	64
  2195  183A  3432               	retlw	50
  2196  183B  3400               	retlw	0
  2197  183C  3466               	retlw	102
  2198  183D  3466               	retlw	102
  2199  183E  3416               	retlw	22
  2200  183F  3440               	retlw	64
  2201  1840  343C               	retlw	60
  2202  1841  3400               	retlw	0
  2203  1842  3433               	retlw	51
  2204  1843  3433               	retlw	51
  2205  1844  3423               	retlw	35
  2206  1845  3440               	retlw	64
  2207  1846  3446               	retlw	70
  2208  1847  3400               	retlw	0
  2209  1848  341F               	retlw	31
  2210  1849  3485               	retlw	133
  2211  184A  342B               	retlw	43
  2212  184B  3440               	retlw	64
  2213  184C  3450               	retlw	80
  2214  184D  3400               	retlw	0
  2215  184E  34E1               	retlw	225
  2216  184F  347A               	retlw	122
  2217  1850  3434               	retlw	52
  2218  1851  3440               	retlw	64
  2219  1852  345A               	retlw	90
  2220  1853  3400               	retlw	0
  2221  1854  3452               	retlw	82
  2222  1855  34B8               	retlw	184
  2223  1856  343E               	retlw	62
  2224  1857  3440               	retlw	64
  2225  1858  3464               	retlw	100
  2226  1859  3400               	retlw	0
  2227  185A  3414               	retlw	20
  2228  185B  34AE               	retlw	174
  2229  185C  3447               	retlw	71
  2230  185D  3440               	retlw	64
  2231  185E  346E               	retlw	110
  2232  185F  3400               	retlw	0
  2233  1860  3400               	retlw	0
  2234  1861  3400               	retlw	0
  2235  1862  3450               	retlw	80
  2236  1863  3440               	retlw	64
  2237  1864  3478               	retlw	120
  2238  1865  3400               	retlw	0
  2239  1866  3466               	retlw	102
  2240  1867  3466               	retlw	102
  2241  1868  3456               	retlw	86
  2242  1869  3440               	retlw	64
  2243  186A  3482               	retlw	130
  2244  186B  3400               	retlw	0
  2245  186C  34CD               	retlw	205
  2246  186D  34CC               	retlw	204
  2247  186E  345C               	retlw	92
  2248  186F  3440               	retlw	64
  2249  1870  348C               	retlw	140
  2250  1871  3400               	retlw	0
  2251  1872  3433               	retlw	51
  2252  1873  3433               	retlw	51
  2253  1874  3463               	retlw	99
  2254  1875  3440               	retlw	64
  2255  1876  3496               	retlw	150
  2256  1877  3400               	retlw	0
  2257  1878  3466               	retlw	102
  2258  1879  3466               	retlw	102
  2259  187A  3466               	retlw	102
  2260  187B  3440               	retlw	64
  2261  187C  34A0               	retlw	160
  2262  187D  3400               	retlw	0
  2263  187E  341F               	retlw	31
  2264  187F  3485               	retlw	133
  2265  1880  346B               	retlw	107
  2266  1881  3440               	retlw	64
  2267  1882  34AA               	retlw	170
  2268  1883  3400               	retlw	0
  2269  1884  3452               	retlw	82
  2270  1885  34B8               	retlw	184
  2271  1886  346E               	retlw	110
  2272  1887  3440               	retlw	64
  2273  1888  34B4               	retlw	180
  2274  1889  3400               	retlw	0
  2275  188A  34D7               	retlw	215
  2276  188B  34A3               	retlw	163
  2277  188C  3470               	retlw	112
  2278  188D  3440               	retlw	64
  2279  188E  34BE               	retlw	190
  2280  188F  3400               	retlw	0
  2281  1890  3433               	retlw	51
  2282  1891  3433               	retlw	51
  2283  1892  3473               	retlw	115
  2284  1893  3440               	retlw	64
  2285  1894  34C8               	retlw	200
  2286  1895  3400               	retlw	0
  2287  1896  348F               	retlw	143
  2288  1897  34C2               	retlw	194
  2289  1898  3475               	retlw	117
  2290  1899  3440               	retlw	64
  2291  189A  34D2               	retlw	210
  2292  189B  3400               	retlw	0
  2293  189C  349A               	retlw	154
  2294  189D  3499               	retlw	153
  2295  189E  3479               	retlw	121
  2296  189F  3440               	retlw	64
  2297  18A0  34DC               	retlw	220
  2298  18A1  3400               	retlw	0
  2299  18A2  341F               	retlw	31
  2300  18A3  3485               	retlw	133
  2301  18A4  347B               	retlw	123
  2302  18A5  3440               	retlw	64
  2303  18A6  34E6               	retlw	230
  2304  18A7  3400               	retlw	0
  2305  18A8  34CD               	retlw	205
  2306  18A9  34CC               	retlw	204
  2307  18AA  347C               	retlw	124
  2308  18AB  3440               	retlw	64
  2309  18AC  34F0               	retlw	240
  2310  18AD  3400               	retlw	0
  2311  18AE  34A4               	retlw	164
  2312  18AF  3470               	retlw	112
  2313  18B0  347D               	retlw	125
  2314  18B1  3440               	retlw	64
  2315  18B2  34FA               	retlw	250
  2316  18B3  3400               	retlw	0
  2317  18B4  347B               	retlw	123
  2318  18B5  3414               	retlw	20
  2319  18B6  347E               	retlw	126
  2320  18B7  3440               	retlw	64
  2321  18B8  3404               	retlw	4
  2322  18B9  3401               	retlw	1
  2323  18BA  3452               	retlw	82
  2324  18BB  34B8               	retlw	184
  2325  18BC  347E               	retlw	126
  2326  18BD  3440               	retlw	64
  2327  18BE  340E               	retlw	14
  2328  18BF  3401               	retlw	1
  2329  18C0  3429               	retlw	41
  2330  18C1  345C               	retlw	92
  2331  18C2  347F               	retlw	127
  2332  18C3  3440               	retlw	64
  2333  18C4  3418               	retlw	24
  2334  18C5  3401               	retlw	1
  2335  18C6  3400               	retlw	0
  2336  18C7  3400               	retlw	0
  2337  18C8  3480               	retlw	128
  2338  18C9  3440               	retlw	64
  2339  18CA  3422               	retlw	34
  2340  18CB  3401               	retlw	1
  2341  18CC  34EC               	retlw	236
  2342  18CD  3451               	retlw	81
  2343  18CE  3480               	retlw	128
  2344  18CF  3440               	retlw	64
  2345  18D0  342C               	retlw	44
  2346  18D1  3401               	retlw	1
  2347  18D2  34D7               	retlw	215
  2348  18D3  34A3               	retlw	163
  2349  18D4  3480               	retlw	128
  2350  18D5  3440               	retlw	64
  2351  18D6  3436               	retlw	54
  2352  18D7  3401               	retlw	1
  2353  18D8  34C3               	retlw	195
  2354  18D9  34F5               	retlw	245
  2355  18DA  3480               	retlw	128
  2356  18DB  3440               	retlw	64
  2357  18DC  3440               	retlw	64
  2358  18DD  3401               	retlw	1
  2359  18DE  34AE               	retlw	174
  2360  18DF  3447               	retlw	71
  2361  18E0  3481               	retlw	129
  2362  18E1  3440               	retlw	64
  2363  18E2  344A               	retlw	74
  2364  18E3  3401               	retlw	1
  2365  18E4  349A               	retlw	154
  2366  18E5  3499               	retlw	153
  2367  18E6  3481               	retlw	129
  2368  18E7  3440               	retlw	64
  2369  18E8  3454               	retlw	84
  2370  18E9  3401               	retlw	1
  2371  18EA  3485               	retlw	133
  2372  18EB  34EB               	retlw	235
  2373  18EC  3481               	retlw	129
  2374  18ED  3440               	retlw	64
  2375  18EE  345E               	retlw	94
  2376  18EF  3401               	retlw	1
  2377  18F0  3471               	retlw	113
  2378  18F1  343D               	retlw	61
  2379  18F2  3482               	retlw	130
  2380  18F3  3440               	retlw	64
  2381  18F4  3468               	retlw	104
  2382  18F5  3401               	retlw	1
  2383  18F6  345C               	retlw	92
  2384  18F7  348F               	retlw	143
  2385  18F8  3482               	retlw	130
  2386  18F9  3440               	retlw	64
  2387  18FA  3472               	retlw	114
  2388  18FB  3401               	retlw	1
  2389  18FC  3448               	retlw	72
  2390  18FD  34E1               	retlw	225
  2391  18FE  3482               	retlw	130
  2392  18FF  3440               	retlw	64
  2393  1900  347C               	retlw	124
  2394  1901  3401               	retlw	1
  2395  1902  3433               	retlw	51
  2396  1903  3433               	retlw	51
  2397  1904  3483               	retlw	131
  2398  1905  3440               	retlw	64
  2399  1906  3486               	retlw	134
  2400  1907  3401               	retlw	1
  2401  1908  3433               	retlw	51
  2402  1909  3433               	retlw	51
  2403  190A  3483               	retlw	131
  2404  190B  3440               	retlw	64
  2405  190C  3490               	retlw	144
  2406  190D  3401               	retlw	1
  2407  190E  341F               	retlw	31
  2408  190F  3485               	retlw	133
  2409  1910  3483               	retlw	131
  2410  1911  3440               	retlw	64
  2411  1912  349A               	retlw	154
  2412  1913  3401               	retlw	1
  2413  1914  340A               	retlw	10
  2414  1915  34D7               	retlw	215
  2415  1916  3483               	retlw	131
  2416  1917  3440               	retlw	64
  2417  1918  34A4               	retlw	164
  2418  1919  3401               	retlw	1
  2419  191A  34F6               	retlw	246
  2420  191B  3428               	retlw	40
  2421  191C  3484               	retlw	132
  2422  191D  3440               	retlw	64
  2423  191E  34AE               	retlw	174
  2424  191F  3401               	retlw	1
  2425  1920  34E1               	retlw	225
  2426  1921  347A               	retlw	122
  2427  1922  3484               	retlw	132
  2428  1923  3440               	retlw	64
  2429  1924  34B8               	retlw	184
  2430  1925  3401               	retlw	1
  2431  1926  34CD               	retlw	205
  2432  1927  34CC               	retlw	204
  2433  1928  3484               	retlw	132
  2434  1929  3440               	retlw	64
  2435  192A  34C2               	retlw	194
  2436  192B  3401               	retlw	1
  2437  192C  34B8               	retlw	184
  2438  192D  341E               	retlw	30
  2439  192E  3485               	retlw	133
  2440  192F  3440               	retlw	64
  2441  1930  34CC               	retlw	204
  2442  1931  3401               	retlw	1
  2443  1932  34A4               	retlw	164
  2444  1933  3470               	retlw	112
  2445  1934  3485               	retlw	133
  2446  1935  3440               	retlw	64
  2447  1936  34D6               	retlw	214
  2448  1937  3401               	retlw	1
  2449  1938  348F               	retlw	143
  2450  1939  34C2               	retlw	194
  2451  193A  3485               	retlw	133
  2452  193B  3440               	retlw	64
  2453  193C  34E0               	retlw	224
  2454  193D  3401               	retlw	1
  2455  193E  347B               	retlw	123
  2456  193F  3414               	retlw	20
  2457  1940  3486               	retlw	134
  2458  1941  3440               	retlw	64
  2459  1942  34EA               	retlw	234
  2460  1943  3401               	retlw	1
  2461  1944  3466               	retlw	102
  2462  1945  3466               	retlw	102
  2463  1946  3486               	retlw	134
  2464  1947  3440               	retlw	64
  2465  1948  34F4               	retlw	244
  2466  1949  3401               	retlw	1
  2467  194A  3400               	retlw	0
  2468  194B  3400               	retlw	0
  2469  194C  3480               	retlw	128
  2470  194D  34BF               	retlw	191
  2471  194E  34FF               	retlw	255
  2472  194F  34FF               	retlw	255
  2473  1950                     __end_of_tvalTable:
  2474                           
  2475                           	psect	nvBANK2
  2476  0160                     __pnvBANK2:
  2477  0160                     _EUSART_ErrorHandler:
  2478  0160                     	ds	2
  2479  0162                     _EUSART_OverrunErrorHandler:
  2480  0162                     	ds	2
  2481  0164                     _EUSART_FramingErrorHandler:
  2482  0164                     	ds	2
  2483  0011                     _PIR1bits	set	17
  2484  009D                     _ADCON0bits	set	157
  2485  009D                     _ADCON0	set	157
  2486  009C                     _ADRESH	set	156
  2487  009B                     _ADRESL	set	155
  2488  009F                     _ADACT	set	159
  2489  009E                     _ADCON1	set	158
  2490  0097                     _WDTCON	set	151
  2491  008E                     _TRISC	set	142
  2492  008C                     _TRISA	set	140
  2493  010E                     _LATCbits	set	270
  2494  010E                     _LATC	set	270
  2495  010C                     _LATA	set	268
  2496  018C                     _ANSELA	set	396
  2497  018E                     _ANSELC	set	398
  2498  019A                     _TX1REG	set	410
  2499  0199                     _RC1REG	set	409
  2500  019D                     _RC1STAbits	set	413
  2501  019E                     _TX1STAbits	set	414
  2502  019C                     _SP1BRGH	set	412
  2503  019B                     _SP1BRGL	set	411
  2504  019E                     _TX1STA	set	414
  2505  019D                     _RC1STA	set	413
  2506  019F                     _BAUD1CON	set	415
  2507  020E                     _WPUC	set	526
  2508  020C                     _WPUA	set	524
  2509  028E                     _ODCONC	set	654
  2510  028C                     _ODCONA	set	652
  2511  030E                     _SLRCONC	set	782
  2512  030C                     _SLRCONA	set	780
  2513  038E                     _INLVLC	set	910
  2514  038C                     _INLVLA	set	908
  2515  0916                     _PMD5	set	2326
  2516  0915                     _PMD4	set	2325
  2517  0914                     _PMD3	set	2324
  2518  0913                     _PMD2	set	2323
  2519  0912                     _PMD1	set	2322
  2520  0911                     _PMD0	set	2321
  2521  091E                     _OSCTUNE	set	2334
  2522  091F                     _OSCFRQ	set	2335
  2523  091D                     _OSCEN	set	2333
  2524  091B                     _OSCCON3	set	2331
  2525  0919                     _OSCCON1	set	2329
  2526  0E24                     _RXPPS	set	3620
  2527  0EA4                     _RC4PPS	set	3748
  2528                           
  2529                           	psect	stringtext2
  2530  2000                     __pstringtext2:
  2531  2000                     STR_1:
  2532  2000  340A               	retlw	10
  2533  2001  340A               	retlw	10
  2534  2002  340D               	retlw	13
  2535  2003  340A               	retlw	10
  2536  2004  344D               	retlw	77	;'M'
  2537  2005  3451               	retlw	81	;'Q'
  2538  2006  3433               	retlw	51	;'3'
  2539  2007  342D               	retlw	45	;'-'
  2540  2008  344D               	retlw	77	;'M'
  2541  2009  344F               	retlw	79	;'O'
  2542  200A  344E               	retlw	78	;'N'
  2543  200B  3449               	retlw	73	;'I'
  2544  200C  3454               	retlw	84	;'T'
  2545  200D  344F               	retlw	79	;'O'
  2546  200E  3452               	retlw	82	;'R'
  2547  200F  3420               	retlw	32	;' '
  2548  2010  3456               	retlw	86	;'V'
  2549  2011  3431               	retlw	49	;'1'
  2550  2012  342E               	retlw	46	;'.'
  2551  2013  3430               	retlw	48	;'0'
  2552  2014  3430               	retlw	48	;'0'
  2553  2015  340D               	retlw	13
  2554  2016  340A               	retlw	10
  2555  2017  3400               	retlw	0
  2556                           
  2557                           	psect	stringtext3
  2558  2018                     __pstringtext3:
  2559  2018                     STR_2:
  2560  2018  3425               	retlw	37	;'%'
  2561  2019  3464               	retlw	100	;'d'
  2562  201A  342C               	retlw	44	;','
  2563  201B  3425               	retlw	37	;'%'
  2564  201C  3435               	retlw	53	;'5'
  2565  201D  342E               	retlw	46	;'.'
  2566  201E  3433               	retlw	51	;'3'
  2567  201F  3466               	retlw	102	;'f'
  2568  2020  3456               	retlw	86	;'V'
  2569  2021  340D               	retlw	13
  2570  2022  340A               	retlw	10
  2571  2023  3400               	retlw	0
  2572                           
  2573                           	psect	stringtext4
  2574  2024                     __pstringtext4:
  2575  2024                     STR_3:
  2576  2024  3449               	retlw	73	;'I'
  2577  2025  344E               	retlw	78	;'N'
  2578  2026  3446               	retlw	70	;'F'
  2579  2027  3400               	retlw	0
  2580                           
  2581                           	psect	stringtext5
  2582  2028                     __pstringtext5:
  2583  2028                     STR_7:
  2584  2028  344E               	retlw	78	;'N'
  2585  2029  3441               	retlw	65	;'A'
  2586  202A  344E               	retlw	78	;'N'
  2587  202B  3400               	retlw	0
  2588                           
  2589                           	psect	stringtext6
  2590  202C                     __pstringtext6:
  2591  202C                     STR_4:
  2592  202C  3469               	retlw	105	;'i'
  2593  202D  346E               	retlw	110	;'n'
  2594  202E  3466               	retlw	102	;'f'
  2595  202F  3400               	retlw	0
  2596                           
  2597                           	psect	stringtext7
  2598  2030                     __pstringtext7:
  2599  2030                     STR_8:
  2600  2030  346E               	retlw	110	;'n'
  2601  2031  3461               	retlw	97	;'a'
  2602  2032  346E               	retlw	110	;'n'
  2603  2033  3400               	retlw	0
  2604                           
  2605                           	psect	stringtext8
  2606  2034                     __pstringtext8:
  2607  2034                     STR_11:
  2608  2034  346C               	retlw	108	;'l'
  2609  2035  3466               	retlw	102	;'f'
  2610  2036  3400               	retlw	0
  2611                           
  2612                           	psect	stringtext9
  2613  0000                     __pstringtext9:
  2614  2034                     
  2615                           	psect	cinit
  2616  07E8                     start_initialization:	
  2617                           ; #config settings
  2618                           
  2619  07E8                     __initialization:
  2620                           
  2621                           ; Clear objects allocated to BANK1
  2622  07E8  0021               	movlb	1	; select bank1
  2623  07E9  01EC               	clrf	__pbssBANK1& (0+127)
  2624  07EA  01ED               	clrf	(__pbssBANK1+1)& (0+127)
  2625  07EB  01EE               	clrf	(__pbssBANK1+2)& (0+127)
  2626  07EC  01EF               	clrf	(__pbssBANK1+3)& (0+127)
  2627                           
  2628                           ; Clear objects allocated to BANK2
  2629  07ED  3051               	movlw	low __pbssBANK2
  2630  07EE  0084               	movwf	4
  2631  07EF  3001               	movlw	high __pbssBANK2
  2632  07F0  0085               	movwf	5
  2633  07F1  300F               	movlw	15
  2634  07F2  319A  225D  3187   	fcall	clear_ram0
  2635                           
  2636                           ; Clear objects allocated to BANK3
  2637  07F5  30A0               	movlw	low __pbssBANK3
  2638  07F6  0084               	movwf	4
  2639  07F7  3001               	movlw	high __pbssBANK3
  2640  07F8  0085               	movwf	5
  2641  07F9  3050               	movlw	80
  2642  07FA  319A  225D  3187   	fcall	clear_ram0
  2643  07FD                     end_of_initialization:	
  2644                           ;End of C runtime variable initialization code
  2645                           
  2646  07FD                     __end_of__initialization:
  2647  07FD  0020               	movlb	0
  2648  07FE  3193  2B83         	ljmp	_main	;jump to C main() function
  2649                           
  2650                           	psect	bssBANK1
  2651  00EC                     __pbssBANK1:
  2652  00EC                     _prec:
  2653  00EC                     	ds	2
  2654  00EE                     _flags:
  2655  00EE                     	ds	2
  2656                           
  2657                           	psect	bssBANK2
  2658  0151                     __pbssBANK2:
  2659  0151                     floorf@F527:
  2660  0151                     	ds	4
  2661  0155                     ___fpclassifyf@F465:
  2662  0155                     	ds	4
  2663  0159                     _nout:
  2664  0159                     	ds	2
  2665  015B                     _width:
  2666  015B                     	ds	2
  2667  015D                     _ADC_InterruptHandler:
  2668  015D                     	ds	2
  2669  015F                     _eusartRxLastError:
  2670  015F                     	ds	1
  2671                           
  2672                           	psect	bssBANK3
  2673  01A0                     __pbssBANK3:
  2674  01A0                     _dbuf:
  2675  01A0                     	ds	80
  2676                           
  2677                           	psect	clrtext
  2678  1A5D                     clear_ram0:	
  2679                           ;	Called with FSR0 containing the base address, and
  2680                           ;	WREG with the size to clear
  2681                           
  2682  1A5D  0064               	clrwdt	;clear the watchdog before getting into this loop
  2683  1A5E                     clrloop0:
  2684  1A5E  0180               	clrf	0	;clear RAM location pointed to by FSR
  2685  1A5F  3101               	addfsr 0,1
  2686  1A60  0B89               	decfsz	9,f	;Have we reached the end of clearing yet?
  2687  1A61  2A5E               	goto	clrloop0	;have we reached the end yet?
  2688  1A62  3400               	retlw	0	;all done for this memory range, return
  2689                           
  2690                           	psect	cstackBANK2
  2691  0120                     __pcstackBANK2:
  2692  0120                     	ds	2
  2693  0122                     sprintf@s:
  2694                           
  2695                           ; 1 bytes @ 0x2
  2696  0122                     	ds	1
  2697  0123                     sprintf@ap:
  2698                           
  2699                           ; 1 bytes @ 0x3
  2700  0123                     	ds	1
  2701  0124                     sprintf@f:
  2702                           
  2703                           ; 5 bytes @ 0x4
  2704  0124                     	ds	5
  2705  0129                     main@s:
  2706                           
  2707                           ; 20 bytes @ 0x9
  2708  0129                     	ds	22
  2709  013F                     main@ftotal:
  2710                           
  2711                           ; 4 bytes @ 0x1F
  2712  013F                     	ds	4
  2713  0143                     main@total:
  2714                           
  2715                           ; 4 bytes @ 0x23
  2716  0143                     	ds	4
  2717  0147                     main@fvrl:
  2718                           
  2719                           ; 4 bytes @ 0x27
  2720  0147                     	ds	4
  2721  014B                     main@alc2ppm:
  2722                           
  2723                           ; 2 bytes @ 0x2B
  2724  014B                     	ds	2
  2725  014D                     main@i:
  2726                           
  2727                           ; 2 bytes @ 0x2D
  2728  014D                     	ds	2
  2729  014F                     main@n:
  2730                           
  2731                           ; 2 bytes @ 0x2F
  2732  014F                     	ds	2
  2733                           
  2734                           	psect	cstackBANK1
  2735  00A0                     __pcstackBANK1:
  2736  00A0                     _efgtoa$979:
  2737                           
  2738                           ; 2 bytes @ 0x0
  2739  00A0                     	ds	2
  2740  00A2                     _efgtoa$980:
  2741                           
  2742                           ; 2 bytes @ 0x2
  2743  00A2                     	ds	2
  2744  00A4                     _efgtoa$984:
  2745                           
  2746                           ; 2 bytes @ 0x4
  2747  00A4                     	ds	2
  2748  00A6                     _efgtoa$988:
  2749                           
  2750                           ; 2 bytes @ 0x6
  2751  00A6                     	ds	2
  2752  00A8                     _efgtoa$989:
  2753                           
  2754                           ; 2 bytes @ 0x8
  2755  00A8                     	ds	2
  2756  00AA                     _efgtoa$990:
  2757                           
  2758                           ; 2 bytes @ 0xA
  2759  00AA                     	ds	2
  2760  00AC                     efgtoa@t:
  2761                           
  2762                           ; 2 bytes @ 0xC
  2763  00AC                     	ds	2
  2764  00AE                     efgtoa@pp:
  2765                           
  2766                           ; 2 bytes @ 0xE
  2767  00AE                     	ds	2
  2768  00B0                     efgtoa@ne:
  2769                           
  2770                           ; 2 bytes @ 0x10
  2771  00B0                     	ds	2
  2772  00B2                     efgtoa@m:
  2773                           
  2774                           ; 2 bytes @ 0x12
  2775  00B2                     	ds	2
  2776  00B4                     efgtoa@ou:
  2777                           
  2778                           ; 4 bytes @ 0x14
  2779  00B4                     	ds	4
  2780  00B8                     efgtoa@d:
  2781                           
  2782                           ; 2 bytes @ 0x18
  2783  00B8                     	ds	2
  2784  00BA                     efgtoa@sign:
  2785                           
  2786                           ; 2 bytes @ 0x1A
  2787  00BA                     	ds	2
  2788  00BC                     efgtoa@fp:
  2789                           
  2790                           ; 1 bytes @ 0x1C
  2791  00BC                     	ds	1
  2792  00BD                     efgtoa@p:
  2793                           
  2794                           ; 2 bytes @ 0x1D
  2795  00BD                     	ds	2
  2796  00BF                     efgtoa@w:
  2797                           
  2798                           ; 2 bytes @ 0x1F
  2799  00BF                     	ds	2
  2800  00C1                     efgtoa@nmode:
  2801                           
  2802                           ; 1 bytes @ 0x21
  2803  00C1                     	ds	1
  2804  00C2                     efgtoa@mode:
  2805                           
  2806                           ; 1 bytes @ 0x22
  2807  00C2                     	ds	1
  2808  00C3                     efgtoa@h:
  2809                           
  2810                           ; 4 bytes @ 0x23
  2811  00C3                     	ds	4
  2812  00C7                     efgtoa@l:
  2813                           
  2814                           ; 4 bytes @ 0x27
  2815  00C7                     	ds	4
  2816  00CB                     efgtoa@i:
  2817                           
  2818                           ; 2 bytes @ 0x2B
  2819  00CB                     	ds	2
  2820  00CD                     efgtoa@g:
  2821                           
  2822                           ; 4 bytes @ 0x2D
  2823  00CD                     	ds	4
  2824  00D1                     efgtoa@e:
  2825                           
  2826                           ; 2 bytes @ 0x31
  2827  00D1                     	ds	2
  2828  00D3                     efgtoa@n:
  2829                           
  2830                           ; 2 bytes @ 0x33
  2831  00D3                     	ds	2
  2832  00D5                     efgtoa@u:
  2833                           
  2834                           ; 4 bytes @ 0x35
  2835  00D5                     	ds	4
  2836  00D9                     ?_vfprintf:
  2837  00D9                     vfprintf@fmt:	
  2838                           ; 2 bytes @ 0x39
  2839                           
  2840                           
  2841                           ; 2 bytes @ 0x39
  2842  00D9                     	ds	2
  2843  00DB                     vfprintf@ap:
  2844                           
  2845                           ; 1 bytes @ 0x3B
  2846  00DB                     	ds	1
  2847  00DC                     vfprintf@fp:
  2848                           
  2849                           ; 1 bytes @ 0x3C
  2850  00DC                     	ds	1
  2851  00DD                     vfprintf@cfmt:
  2852                           
  2853                           ; 2 bytes @ 0x3D
  2854  00DD                     	ds	2
  2855  00DF                     ?_sprintf:
  2856  00DF                     sprintf@fmt:	
  2857                           ; 2 bytes @ 0x3F
  2858                           
  2859                           
  2860                           ; 2 bytes @ 0x3F
  2861  00DF                     	ds	8
  2862  00E7                     ??_sprintf:
  2863                           
  2864                           ; 1 bytes @ 0x47
  2865  00E7                     	ds	1
  2866  00E8                     ??_main:
  2867                           
  2868                           ; 1 bytes @ 0x48
  2869  00E8                     	ds	4
  2870                           
  2871                           	psect	cstackCOMMON
  2872  0070                     __pcstackCOMMON:
  2873  0070                     ?___fleq:
  2874  0070                     ?_EUSART_SetFramingErrorHandler:	
  2875                           ; 1 bit 
  2876                           
  2877  0070                     ?_EUSART_SetOverrunErrorHandler:	
  2878                           ; 1 bytes @ 0x0
  2879                           
  2880  0070                     ?_EUSART_SetErrorHandler:	
  2881                           ; 1 bytes @ 0x0
  2882                           
  2883  0070                     ?_PMD_Initialize:	
  2884                           ; 1 bytes @ 0x0
  2885                           
  2886  0070                     ??_PMD_Initialize:	
  2887                           ; 1 bytes @ 0x0
  2888                           
  2889  0070                     ?_OSCILLATOR_Initialize:	
  2890                           ; 1 bytes @ 0x0
  2891                           
  2892  0070                     ??_OSCILLATOR_Initialize:	
  2893                           ; 1 bytes @ 0x0
  2894                           
  2895  0070                     ?_WDT_Initialize:	
  2896                           ; 1 bytes @ 0x0
  2897                           
  2898  0070                     ??_WDT_Initialize:	
  2899                           ; 1 bytes @ 0x0
  2900                           
  2901  0070                     ?_ADC_Initialize:	
  2902                           ; 1 bytes @ 0x0
  2903                           
  2904  0070                     ??_ADC_Initialize:	
  2905                           ; 1 bytes @ 0x0
  2906                           
  2907  0070                     ?_strcpy:	
  2908                           ; 1 bytes @ 0x0
  2909                           
  2910  0070                     ?_putch:	
  2911                           ; 1 bytes @ 0x0
  2912                           
  2913  0070                     ??_putch:	
  2914                           ; 1 bytes @ 0x0
  2915                           
  2916  0070                     ?_EUSART_Initialize:	
  2917                           ; 1 bytes @ 0x0
  2918                           
  2919  0070                     ?_EUSART_Write:	
  2920                           ; 1 bytes @ 0x0
  2921                           
  2922  0070                     ??_EUSART_Write:	
  2923                           ; 1 bytes @ 0x0
  2924                           
  2925  0070                     ?_PIN_MANAGER_Initialize:	
  2926                           ; 1 bytes @ 0x0
  2927                           
  2928  0070                     ??_PIN_MANAGER_Initialize:	
  2929                           ; 1 bytes @ 0x0
  2930                           
  2931  0070                     ?_SYSTEM_Initialize:	
  2932                           ; 1 bytes @ 0x0
  2933                           
  2934  0070                     ?_main:	
  2935                           ; 1 bytes @ 0x0
  2936                           
  2937  0070                     ??___aodiv:	
  2938                           ; 1 bytes @ 0x0
  2939                           
  2940  0070                     ??___aomod:	
  2941                           ; 1 bytes @ 0x0
  2942                           
  2943  0070                     ?_ADC_GetConversion:	
  2944                           ; 1 bytes @ 0x0
  2945                           
  2946  0070                     ?__Umul8_16:	
  2947                           ; 2 bytes @ 0x0
  2948                           
  2949  0070                     ?_fputc:	
  2950                           ; 2 bytes @ 0x0
  2951                           
  2952  0070                     ?_strlen:	
  2953                           ; 2 bytes @ 0x0
  2954                           
  2955  0070                     ?___fpclassifyf:	
  2956                           ; 2 bytes @ 0x0
  2957                           
  2958  0070                     ?_isupper:	
  2959                           ; 2 bytes @ 0x0
  2960                           
  2961  0070                     ?_isdigit:	
  2962                           ; 2 bytes @ 0x0
  2963                           
  2964  0070                     ?_strncmp:	
  2965                           ; 2 bytes @ 0x0
  2966                           
  2967  0070                     ?_isspace:	
  2968                           ; 2 bytes @ 0x0
  2969                           
  2970  0070                     ?___wmul:	
  2971                           ; 2 bytes @ 0x0
  2972                           
  2973  0070                     ?___awdiv:	
  2974                           ; 2 bytes @ 0x0
  2975                           
  2976  0070                     ?___awmod:	
  2977                           ; 2 bytes @ 0x0
  2978                           
  2979  0070                     ?___flneg:	
  2980                           ; 2 bytes @ 0x0
  2981                           
  2982  0070                     ?___fltol:	
  2983                           ; 4 bytes @ 0x0
  2984                           
  2985  0070                     ?___fladd:	
  2986                           ; 4 bytes @ 0x0
  2987                           
  2988  0070                     ?___fldiv:	
  2989                           ; 4 bytes @ 0x0
  2990                           
  2991  0070                     ?___xxtofl:	
  2992                           ; 4 bytes @ 0x0
  2993                           
  2994  0070                     EUSART_Write@txData:	
  2995                           ; 4 bytes @ 0x0
  2996                           
  2997  0070                     __Umul8_16@multiplicand:	
  2998                           ; 1 bytes @ 0x0
  2999                           
  3000  0070                     putch@c:	
  3001                           ; 1 bytes @ 0x0
  3002                           
  3003  0070                     EUSART_SetFramingErrorHandler@interruptHandler:	
  3004                           ; 1 bytes @ 0x0
  3005                           
  3006  0070                     EUSART_SetOverrunErrorHandler@interruptHandler:	
  3007                           ; 2 bytes @ 0x0
  3008                           
  3009  0070                     EUSART_SetErrorHandler@interruptHandler:	
  3010                           ; 2 bytes @ 0x0
  3011                           
  3012  0070                     ___wmul@multiplier:	
  3013                           ; 2 bytes @ 0x0
  3014                           
  3015  0070                     ___awdiv@divisor:	
  3016                           ; 2 bytes @ 0x0
  3017                           
  3018  0070                     ___awmod@divisor:	
  3019                           ; 2 bytes @ 0x0
  3020                           
  3021  0070                     isdigit@c:	
  3022                           ; 2 bytes @ 0x0
  3023                           
  3024  0070                     isspace@c:	
  3025                           ; 2 bytes @ 0x0
  3026                           
  3027  0070                     isupper@c:	
  3028                           ; 2 bytes @ 0x0
  3029                           
  3030  0070                     fputc@c:	
  3031                           ; 2 bytes @ 0x0
  3032                           
  3033  0070                     strcpy@src:	
  3034                           ; 2 bytes @ 0x0
  3035                           
  3036  0070                     strncmp@_r:	
  3037                           ; 2 bytes @ 0x0
  3038                           
  3039  0070                     ___fleq@ff1:	
  3040                           ; 2 bytes @ 0x0
  3041                           
  3042  0070                     ___flneg@f1:	
  3043                           ; 4 bytes @ 0x0
  3044                           
  3045  0070                     ___fltol@f1:	
  3046                           ; 4 bytes @ 0x0
  3047                           
  3048  0070                     ___fladd@b:	
  3049                           ; 4 bytes @ 0x0
  3050                           
  3051  0070                     ___fldiv@a:	
  3052                           ; 4 bytes @ 0x0
  3053                           
  3054  0070                     ___xxtofl@val:	
  3055                           ; 4 bytes @ 0x0
  3056                           
  3057  0070                     ___fpclassifyf@x:	
  3058                           ; 4 bytes @ 0x0
  3059                           
  3060                           
  3061                           ; 4 bytes @ 0x0
  3062  0070                     	ds	1
  3063  0071                     ?_putstr:
  3064  0071                     ___aodiv@counter:	
  3065                           ; 1 bytes @ 0x1
  3066                           
  3067  0071                     ___aomod@counter:	
  3068                           ; 1 bytes @ 0x1
  3069                           
  3070  0071                     putstr@p:	
  3071                           ; 1 bytes @ 0x1
  3072                           
  3073                           
  3074                           ; 2 bytes @ 0x1
  3075  0071                     	ds	1
  3076  0072                     ??_EUSART_SetFramingErrorHandler:
  3077  0072                     ??_EUSART_SetOverrunErrorHandler:	
  3078                           ; 1 bytes @ 0x2
  3079                           
  3080  0072                     ??_EUSART_SetErrorHandler:	
  3081                           ; 1 bytes @ 0x2
  3082                           
  3083  0072                     ??_ADC_GetConversion:	
  3084                           ; 1 bytes @ 0x2
  3085                           
  3086  0072                     ??__Umul8_16:	
  3087                           ; 1 bytes @ 0x2
  3088                           
  3089  0072                     ??_strlen:	
  3090                           ; 1 bytes @ 0x2
  3091                           
  3092  0072                     ??_isupper:	
  3093                           ; 1 bytes @ 0x2
  3094                           
  3095  0072                     ??_strcpy:	
  3096                           ; 1 bytes @ 0x2
  3097                           
  3098  0072                     ??_isdigit:	
  3099                           ; 1 bytes @ 0x2
  3100                           
  3101  0072                     ??_isspace:	
  3102                           ; 1 bytes @ 0x2
  3103                           
  3104  0072                     ??_EUSART_Initialize:	
  3105                           ; 1 bytes @ 0x2
  3106                           
  3107  0072                     ??_SYSTEM_Initialize:	
  3108                           ; 1 bytes @ 0x2
  3109                           
  3110  0072                     ___aodiv@sign:	
  3111                           ; 1 bytes @ 0x2
  3112                           
  3113  0072                     ___aomod@sign:	
  3114                           ; 1 bytes @ 0x2
  3115                           
  3116  0072                     fputc@fp:	
  3117                           ; 1 bytes @ 0x2
  3118                           
  3119  0072                     ___wmul@multiplicand:	
  3120                           ; 1 bytes @ 0x2
  3121                           
  3122  0072                     ___awdiv@dividend:	
  3123                           ; 2 bytes @ 0x2
  3124                           
  3125  0072                     ___awmod@dividend:	
  3126                           ; 2 bytes @ 0x2
  3127                           
  3128  0072                     strncmp@n:	
  3129                           ; 2 bytes @ 0x2
  3130                           
  3131                           
  3132                           ; 2 bytes @ 0x2
  3133  0072                     	ds	1
  3134  0073                     ??_fputc:
  3135  0073                     ??_putstr:	
  3136                           ; 1 bytes @ 0x3
  3137                           
  3138  0073                     ?_abs:	
  3139                           ; 1 bytes @ 0x3
  3140                           
  3141  0073                     ADC_GetConversion@channel:	
  3142                           ; 2 bytes @ 0x3
  3143                           
  3144  0073                     strlen@a:	
  3145                           ; 1 bytes @ 0x3
  3146                           
  3147  0073                     abs@a:	
  3148                           ; 1 bytes @ 0x3
  3149                           
  3150  0073                     ___aodiv@quotient:	
  3151                           ; 2 bytes @ 0x3
  3152                           
  3153                           
  3154                           ; 8 bytes @ 0x3
  3155  0073                     	ds	1
  3156  0074                     ??___fpclassifyf:
  3157  0074                     ??_strncmp:	
  3158                           ; 1 bytes @ 0x4
  3159                           
  3160  0074                     ??___wmul:	
  3161                           ; 1 bytes @ 0x4
  3162                           
  3163  0074                     ??___awdiv:	
  3164                           ; 1 bytes @ 0x4
  3165                           
  3166  0074                     ??___awmod:	
  3167                           ; 1 bytes @ 0x4
  3168                           
  3169  0074                     ??___flneg:	
  3170                           ; 1 bytes @ 0x4
  3171                           
  3172  0074                     ??___fltol:	
  3173                           ; 1 bytes @ 0x4
  3174                           
  3175  0074                     ??___xxtofl:	
  3176                           ; 1 bytes @ 0x4
  3177                           
  3178  0074                     _isspace$1077:	
  3179                           ; 1 bytes @ 0x4
  3180                           
  3181  0074                     strlen@s:	
  3182                           ; 1 bytes @ 0x4
  3183                           
  3184  0074                     ___wmul@product:	
  3185                           ; 1 bytes @ 0x4
  3186                           
  3187  0074                     __Umul8_16@product:	
  3188                           ; 2 bytes @ 0x4
  3189                           
  3190  0074                     strcpy@s:	
  3191                           ; 2 bytes @ 0x4
  3192                           
  3193  0074                     ___fleq@ff2:	
  3194                           ; 2 bytes @ 0x4
  3195                           
  3196  0074                     ___fladd@a:	
  3197                           ; 4 bytes @ 0x4
  3198                           
  3199  0074                     ___fldiv@b:	
  3200                           ; 4 bytes @ 0x4
  3201                           
  3202                           
  3203                           ; 4 bytes @ 0x4
  3204  0074                     	ds	1
  3205  0075                     ??_abs:
  3206  0075                     ___awdiv@counter:	
  3207                           ; 1 bytes @ 0x5
  3208                           
  3209  0075                     ___awmod@counter:	
  3210                           ; 1 bytes @ 0x5
  3211                           
  3212  0075                     strncmp@_l:	
  3213                           ; 1 bytes @ 0x5
  3214                           
  3215                           
  3216                           ; 1 bytes @ 0x5
  3217  0075                     	ds	1
  3218  0076                     ?_tolower:
  3219  0076                     ?_atoi:	
  3220                           ; 2 bytes @ 0x6
  3221                           
  3222  0076                     ___awdiv@sign:	
  3223                           ; 2 bytes @ 0x6
  3224                           
  3225  0076                     ___awmod@sign:	
  3226                           ; 1 bytes @ 0x6
  3227                           
  3228  0076                     strcpy@d:	
  3229                           ; 1 bytes @ 0x6
  3230                           
  3231  0076                     __Umul8_16@word_mpld:	
  3232                           ; 1 bytes @ 0x6
  3233                           
  3234  0076                     atoi@s:	
  3235                           ; 2 bytes @ 0x6
  3236                           
  3237  0076                     strncmp@r:	
  3238                           ; 2 bytes @ 0x6
  3239                           
  3240  0076                     tolower@c:	
  3241                           ; 2 bytes @ 0x6
  3242                           
  3243                           
  3244                           ; 2 bytes @ 0x6
  3245  0076                     	ds	1
  3246  0077                     strcpy@dest:
  3247  0077                     ___awdiv@quotient:	
  3248                           ; 1 bytes @ 0x7
  3249                           
  3250                           
  3251                           ; 2 bytes @ 0x7
  3252  0077                     	ds	1
  3253  0078                     ??_tolower:
  3254  0078                     ??_atoi:	
  3255                           ; 1 bytes @ 0x8
  3256                           
  3257  0078                     ??___fleq:	
  3258                           ; 1 bytes @ 0x8
  3259                           
  3260  0078                     ??___fldiv:	
  3261                           ; 1 bytes @ 0x8
  3262                           
  3263  0078                     ?_fputs:	
  3264                           ; 1 bytes @ 0x8
  3265                           
  3266  0078                     ___fladd@signs:	
  3267                           ; 2 bytes @ 0x8
  3268                           
  3269  0078                     __Umul8_16@multiplier:	
  3270                           ; 1 bytes @ 0x8
  3271                           
  3272  0078                     ___xxtofl@sign:	
  3273                           ; 1 bytes @ 0x8
  3274                           
  3275  0078                     fputs@fp:	
  3276                           ; 1 bytes @ 0x8
  3277                           
  3278  0078                     strncmp@l:	
  3279                           ; 1 bytes @ 0x8
  3280                           
  3281                           
  3282                           ; 1 bytes @ 0x8
  3283  0078                     	ds	1
  3284  0079                     ??_fputs:
  3285  0079                     ___fltol@sign1:	
  3286                           ; 1 bytes @ 0x9
  3287                           
  3288  0079                     ___fladd@aexp:	
  3289                           ; 1 bytes @ 0x9
  3290                           
  3291  0079                     ___xxtofl@exp:	
  3292                           ; 1 bytes @ 0x9
  3293                           
  3294                           
  3295                           ; 1 bytes @ 0x9
  3296  0079                     	ds	1
  3297  007A                     ___fltol@exp1:
  3298  007A                     ___fladd@bexp:	
  3299                           ; 1 bytes @ 0xA
  3300                           
  3301  007A                     ___xxtofl@arg:	
  3302                           ; 1 bytes @ 0xA
  3303                           
  3304                           
  3305                           ; 4 bytes @ 0xA
  3306  007A                     	ds	1
  3307  007B                     ___fladd@grs:
  3308                           
  3309                           ; 1 bytes @ 0xB
  3310  007B                     	ds	1
  3311  007C                     ??_pad:
  3312  007C                     _tolower$1141:	
  3313                           ; 1 bytes @ 0xC
  3314                           
  3315                           
  3316                           ; 2 bytes @ 0xC
  3317  007C                     	ds	2
  3318  007E                     ??___flsub:
  3319                           
  3320                           	psect	cstackBANK0
  3321  0020                     __pcstackBANK0:	
  3322                           ; 1 bytes @ 0xE
  3323                           
  3324  0020                     ??___fladd:
  3325  0020                     ?___flmul:	
  3326                           ; 1 bytes @ 0x0
  3327                           
  3328  0020                     ?___aodiv:	
  3329                           ; 4 bytes @ 0x0
  3330                           
  3331  0020                     ?___aomod:	
  3332                           ; 8 bytes @ 0x0
  3333                           
  3334  0020                     fputs@c:	
  3335                           ; 8 bytes @ 0x0
  3336                           
  3337  0020                     ___fpclassifyf@e:	
  3338                           ; 1 bytes @ 0x0
  3339                           
  3340  0020                     atoi@neg:	
  3341                           ; 2 bytes @ 0x0
  3342                           
  3343  0020                     ___fldiv@rem:	
  3344                           ; 2 bytes @ 0x0
  3345                           
  3346  0020                     ___flmul@b:	
  3347                           ; 4 bytes @ 0x0
  3348                           
  3349  0020                     ___aodiv@divisor:	
  3350                           ; 4 bytes @ 0x0
  3351                           
  3352  0020                     ___aomod@divisor:	
  3353                           ; 8 bytes @ 0x0
  3354                           
  3355                           
  3356                           ; 8 bytes @ 0x0
  3357  0020                     	ds	1
  3358  0021                     fputs@i:
  3359                           
  3360                           ; 2 bytes @ 0x1
  3361  0021                     	ds	1
  3362  0022                     _atoi$1046:
  3363  0022                     ___fpclassifyf@u:	
  3364                           ; 2 bytes @ 0x2
  3365                           
  3366                           
  3367                           ; 4 bytes @ 0x2
  3368  0022                     	ds	1
  3369  0023                     fputs@s:
  3370                           
  3371                           ; 1 bytes @ 0x3
  3372  0023                     	ds	1
  3373  0024                     ?_pad:
  3374  0024                     ___fldiv@sign:	
  3375                           ; 2 bytes @ 0x4
  3376                           
  3377  0024                     pad@buf:	
  3378                           ; 1 bytes @ 0x4
  3379                           
  3380  0024                     _atoi$1048:	
  3381                           ; 1 bytes @ 0x4
  3382                           
  3383  0024                     ___flmul@a:	
  3384                           ; 2 bytes @ 0x4
  3385                           
  3386                           
  3387                           ; 4 bytes @ 0x4
  3388  0024                     	ds	1
  3389  0025                     ___fldiv@new_exp:
  3390  0025                     pad@p:	
  3391                           ; 2 bytes @ 0x5
  3392                           
  3393                           
  3394                           ; 2 bytes @ 0x5
  3395  0025                     	ds	1
  3396  0026                     _atoi$1047:
  3397                           
  3398                           ; 1 bytes @ 0x6
  3399  0026                     	ds	1
  3400  0027                     pad@i:
  3401  0027                     atoi@n:	
  3402                           ; 2 bytes @ 0x7
  3403                           
  3404  0027                     ___fldiv@grs:	
  3405                           ; 2 bytes @ 0x7
  3406                           
  3407                           
  3408                           ; 4 bytes @ 0x7
  3409  0027                     	ds	1
  3410  0028                     ??___flmul:
  3411  0028                     ___aodiv@dividend:	
  3412                           ; 1 bytes @ 0x8
  3413                           
  3414  0028                     ___aomod@dividend:	
  3415                           ; 8 bytes @ 0x8
  3416                           
  3417                           
  3418                           ; 8 bytes @ 0x8
  3419  0028                     	ds	1
  3420  0029                     pad@w:
  3421                           
  3422                           ; 2 bytes @ 0x9
  3423  0029                     	ds	2
  3424  002B                     ___fldiv@bexp:
  3425  002B                     pad@fp:	
  3426                           ; 1 bytes @ 0xB
  3427                           
  3428                           
  3429                           ; 1 bytes @ 0xB
  3430  002B                     	ds	1
  3431  002C                     ___fldiv@aexp:
  3432                           
  3433                           ; 1 bytes @ 0xC
  3434  002C                     	ds	1
  3435  002D                     ?_floorf:
  3436  002D                     ___flmul@sign:	
  3437                           ; 4 bytes @ 0xD
  3438                           
  3439  002D                     floorf@x:	
  3440                           ; 1 bytes @ 0xD
  3441                           
  3442                           
  3443                           ; 4 bytes @ 0xD
  3444  002D                     	ds	1
  3445  002E                     ___flmul@grs:
  3446                           
  3447                           ; 4 bytes @ 0xE
  3448  002E                     	ds	2
  3449  0030                     ?_dtoa:
  3450  0030                     dtoa@d:	
  3451                           ; 2 bytes @ 0x10
  3452                           
  3453                           
  3454                           ; 8 bytes @ 0x10
  3455  0030                     	ds	1
  3456  0031                     ??_floorf:
  3457                           
  3458                           ; 1 bytes @ 0x11
  3459  0031                     	ds	1
  3460  0032                     ___flmul@aexp:
  3461                           
  3462                           ; 1 bytes @ 0x12
  3463  0032                     	ds	1
  3464  0033                     ___flmul@bexp:
  3465                           
  3466                           ; 1 bytes @ 0x13
  3467  0033                     	ds	1
  3468  0034                     ___flmul@prod:
  3469                           
  3470                           ; 4 bytes @ 0x14
  3471  0034                     	ds	3
  3472  0037                     floorf@m:
  3473                           
  3474                           ; 4 bytes @ 0x17
  3475  0037                     	ds	1
  3476  0038                     ??_dtoa:
  3477  0038                     ___flmul@temp:	
  3478                           ; 1 bytes @ 0x18
  3479                           
  3480                           
  3481                           ; 2 bytes @ 0x18
  3482  0038                     	ds	2
  3483  003A                     ?___flge:
  3484  003A                     ?___flsub:	
  3485                           ; 1 bit 
  3486                           
  3487  003A                     ___flge@ff1:	
  3488                           ; 4 bytes @ 0x1A
  3489                           
  3490  003A                     ___flsub@a:	
  3491                           ; 4 bytes @ 0x1A
  3492                           
  3493                           
  3494                           ; 4 bytes @ 0x1A
  3495  003A                     	ds	1
  3496  003B                     _dtoa$955:
  3497  003B                     floorf@e:	
  3498                           ; 2 bytes @ 0x1B
  3499                           
  3500                           
  3501                           ; 2 bytes @ 0x1B
  3502  003B                     	ds	2
  3503  003D                     dtoa@fp:
  3504  003D                     floorf@u:	
  3505                           ; 1 bytes @ 0x1D
  3506                           
  3507                           
  3508                           ; 4 bytes @ 0x1D
  3509  003D                     	ds	1
  3510  003E                     dtoa@p:
  3511  003E                     ___flge@ff2:	
  3512                           ; 2 bytes @ 0x1E
  3513                           
  3514  003E                     ___flsub@b:	
  3515                           ; 4 bytes @ 0x1E
  3516                           
  3517                           
  3518                           ; 4 bytes @ 0x1E
  3519  003E                     	ds	2
  3520  0040                     dtoa@w:
  3521                           
  3522                           ; 2 bytes @ 0x20
  3523  0040                     	ds	2
  3524  0042                     ??___flge:
  3525  0042                     dtoa@s:	
  3526                           ; 1 bytes @ 0x22
  3527                           
  3528                           
  3529                           ; 2 bytes @ 0x22
  3530  0042                     	ds	2
  3531  0044                     dtoa@n:
  3532                           
  3533                           ; 8 bytes @ 0x24
  3534  0044                     	ds	2
  3535  0046                     ?_efgtoa:
  3536  0046                     efgtoa@f:	
  3537                           ; 2 bytes @ 0x26
  3538                           
  3539                           
  3540                           ; 4 bytes @ 0x26
  3541  0046                     	ds	4
  3542  004A                     efgtoa@c:
  3543                           
  3544                           ; 1 bytes @ 0x2A
  3545  004A                     	ds	1
  3546  004B                     ??_efgtoa:
  3547                           
  3548                           ; 1 bytes @ 0x2B
  3549  004B                     	ds	1
  3550  004C                     dtoa@i:
  3551                           
  3552                           ; 2 bytes @ 0x2C
  3553  004C                     	ds	3
  3554  004F                     ?_vfpfcnvrt:
  3555  004F                     vfpfcnvrt@fmt:	
  3556                           ; 2 bytes @ 0x2F
  3557                           
  3558                           
  3559                           ; 1 bytes @ 0x2F
  3560  004F                     	ds	1
  3561  0050                     vfpfcnvrt@ap:
  3562                           
  3563                           ; 1 bytes @ 0x30
  3564  0050                     	ds	1
  3565  0051                     ??_vfpfcnvrt:
  3566                           
  3567                           ; 1 bytes @ 0x31
  3568  0051                     	ds	6
  3569  0057                     vfpfcnvrt@ll:
  3570                           
  3571                           ; 8 bytes @ 0x37
  3572  0057                     	ds	8
  3573  005F                     _vfpfcnvrt$1004:
  3574                           
  3575                           ; 2 bytes @ 0x3F
  3576  005F                     	ds	2
  3577  0061                     _vfpfcnvrt$1005:
  3578                           
  3579                           ; 2 bytes @ 0x41
  3580  0061                     	ds	2
  3581  0063                     _vfpfcnvrt$1010:
  3582                           
  3583                           ; 2 bytes @ 0x43
  3584  0063                     	ds	2
  3585  0065                     vfpfcnvrt@f:
  3586                           
  3587                           ; 4 bytes @ 0x45
  3588  0065                     	ds	4
  3589  0069                     vfpfcnvrt@ct:
  3590                           
  3591                           ; 3 bytes @ 0x49
  3592  0069                     	ds	3
  3593  006C                     vfpfcnvrt@c:
  3594                           
  3595                           ; 1 bytes @ 0x4C
  3596  006C                     	ds	1
  3597  006D                     vfpfcnvrt@fp:
  3598                           
  3599                           ; 1 bytes @ 0x4D
  3600  006D                     	ds	1
  3601  006E                     ??_vfprintf:
  3602                           
  3603                           ; 1 bytes @ 0x4E
  3604  006E                     	ds	2
  3605                           
  3606                           	psect	maintext
  3607  1383                     __pmaintext:	
  3608 ;;
  3609 ;;Main: autosize = 0, tempsize = 4, incstack = 0, save=0
  3610 ;;
  3611 ;; *************** function _main *****************
  3612 ;; Defined at:
  3613 ;;		line 131 in file "main.c"
  3614 ;; Parameters:    Size  Location     Type
  3615 ;;		None
  3616 ;; Auto vars:     Size  Location     Type
  3617 ;;  i               2   45[BANK2 ] int 
  3618 ;;  s              20    9[BANK2 ] unsigned char [20]
  3619 ;;  fvrl            4   39[BANK2 ] float 
  3620 ;;  total           4   35[BANK2 ] long 
  3621 ;;  ftotal          4   31[BANK2 ] float 
  3622 ;;  n               2   47[BANK2 ] int 
  3623 ;;  alc2ppm         2   43[BANK2 ] unsigned short 
  3624 ;;  btn_cnt         2    0        unsigned short 
  3625 ;; Return value:  Size  Location     Type
  3626 ;;                  1    wreg      void 
  3627 ;; Registers used:
  3628 ;;		wreg, fsr0l, fsr0h, fsr1l, fsr1h, status,2, status,0, pclath, cstack
  3629 ;; Tracked objects:
  3630 ;;		On entry : B1F/0
  3631 ;;		On exit  : 0/0
  3632 ;;		Unchanged: 0/0
  3633 ;; Data sizes:     COMMON   BANK0   BANK1   BANK2   BANK3   BANK4   BANK5   BANK6   BANK7   BANK8   BANK9  BANK10  BANK1
      +1  BANK12  BANK13  BANK14  BANK15  BANK16  BANK17  BANK18  BANK19  BANK20  BANK21  BANK22  BANK23  BANK24  BANK25
  3634 ;;      Params:         0       0       0       0       0       0       0       0       0       0       0       0       
      +0       0       0       0       0       0       0       0       0       0       0       0       0       0       0
  3635 ;;      Locals:         0       0       0      40       0       0       0       0       0       0       0       0       
      +0       0       0       0       0       0       0       0       0       0       0       0       0       0       0
  3636 ;;      Temps:          0       0       4       0       0       0       0       0       0       0       0       0       
      +0       0       0       0       0       0       0       0       0       0       0       0       0       0       0
  3637 ;;      Totals:         0       0       4      40       0       0       0       0       0       0       0       0       
      +0       0       0       0       0       0       0       0       0       0       0       0       0       0       0
  3638 ;;Total ram usage:       44 bytes
  3639 ;; Hardware stack levels required when called:    8
  3640 ;; This function calls:
  3641 ;;		_ADC_GetConversion
  3642 ;;		_SYSTEM_Initialize
  3643 ;;		___fldiv
  3644 ;;		___flge
  3645 ;;		___flmul
  3646 ;;		___wmul
  3647 ;;		___xxtofl
  3648 ;;		_putstr
  3649 ;;		_sprintf
  3650 ;; This function is called by:
  3651 ;;		Startup code after reset
  3652 ;; This function uses a non-reentrant model
  3653 ;;
  3654                           
  3655                           
  3656                           ;psect for function _main
  3657  1383                     _main:
  3658  1383                     l4587:	
  3659                           ;incstack = 0
  3660                           ; Regs used in _main: [wreg-fsr1h+status,2+status,0+pclath+cstack]
  3661                           
  3662  1383                     l4589:
  3663                           
  3664                           ;main.c: 134:     SYSTEM_Initialize();
  3665  1383  319A  2292  3193   	fcall	_SYSTEM_Initialize
  3666  1386                     l4591:
  3667                           
  3668                           ;main.c: 135:     _delay((unsigned long)((1000)*(4000000/4000.0)));
  3669  1386  3006               	movlw	6
  3670  1387  0021               	movlb	1	; select bank1
  3671  1388  00E9               	movwf	(??_main^(0+128)+1)
  3672  1389  3013               	movlw	19
  3673  138A  00E8               	movwf	??_main^(0+128)
  3674  138B  30AD               	movlw	173
  3675  138C                     u6657:
  3676  138C  0B89               	decfsz	9,f
  3677  138D  2B8C               	goto	u6657
  3678  138E  0BE8               	decfsz	??_main^(0+128),f
  3679  138F  2B8C               	goto	u6657
  3680  1390  0BE9               	decfsz	(??_main^(0+128)+1),f
  3681  1391  2B8C               	goto	u6657
  3682  1392  3200               	nop2
  3683  1393                     l4593:
  3684                           
  3685                           ;main.c: 136:     putstr("\n\n\r\nMQ3-MONITOR V1.00\r\n");
  3686  1393  3000               	movlw	low (STR_1| (0+32768))
  3687  1394  00F1               	movwf	putstr@p
  3688  1395  30A0               	movlw	high (STR_1| (0+32768))
  3689  1396  00F2               	movwf	putstr@p+1
  3690  1397  319A  22A5  3193   	fcall	_putstr
  3691  139A                     l4595:
  3692  139A                     l4597:
  3693                           
  3694                           ;main.c: 147:         total = 0;
  3695  139A  3000               	movlw	0
  3696  139B  0022               	movlb	2	; select bank2
  3697  139C  00C6               	movwf	(main@total+3)^(0+256)
  3698  139D  3000               	movlw	0
  3699  139E  00C5               	movwf	(main@total+2)^(0+256)
  3700  139F  3000               	movlw	0
  3701  13A0  00C4               	movwf	(main@total+1)^(0+256)
  3702  13A1  3000               	movlw	0
  3703  13A2  00C3               	movwf	main@total^(0+256)
  3704  13A3                     l4599:
  3705                           
  3706                           ;main.c: 148:         for(int i= 0;i< 1000 ;i++){
  3707  13A3  01CD               	clrf	main@i^(0+256)
  3708  13A4  01CE               	clrf	(main@i+1)^(0+256)
  3709  13A5                     l4605:
  3710                           
  3711                           ;main.c: 149:             total += ADC_GetConversion(0b000010);
  3712  13A5  3002               	movlw	2
  3713  13A6  319A  22EC  3193   	fcall	_ADC_GetConversion
  3714  13A9  0870               	movf	?_ADC_GetConversion,w
  3715  13AA  0022               	movlb	2	; select bank2
  3716  13AB  07C3               	addwf	main@total^(0+256),f
  3717  13AC  0871               	movf	?_ADC_GetConversion+1,w
  3718  13AD  3DC4               	addwfc	(main@total+1)^(0+256),f
  3719  13AE  3000               	movlw	0
  3720  13AF  3DC5               	addwfc	(main@total+2)^(0+256),f
  3721  13B0  3DC6               	addwfc	(main@total+3)^(0+256),f
  3722  13B1                     l4607:
  3723                           
  3724                           ;main.c: 150:         }
  3725  13B1  3001               	movlw	1
  3726  13B2  07CD               	addwf	main@i^(0+256),f
  3727  13B3  3000               	movlw	0
  3728  13B4  3DCE               	addwfc	(main@i+1)^(0+256),f
  3729  13B5                     l4609:
  3730  13B5  084E               	movf	(main@i+1)^(0+256),w
  3731  13B6  3A80               	xorlw	128
  3732  13B7  0021               	movlb	1	; select bank1
  3733  13B8  00E8               	movwf	??_main^(0+128)
  3734  13B9  3083               	movlw	131
  3735  13BA  0268               	subwf	??_main^(0+128),w
  3736  13BB  1D03               	skipz
  3737  13BC  2BC0               	goto	u6615
  3738  13BD  30E8               	movlw	232
  3739  13BE  0022               	movlb	2	; select bank2
  3740  13BF  024D               	subwf	main@i^(0+256),w
  3741  13C0                     u6615:
  3742  13C0  1C03               	skipc
  3743  13C1  2BC3               	goto	u6611
  3744  13C2  2BC4               	goto	u6610
  3745  13C3                     u6611:
  3746  13C3  2BA5               	goto	l4605
  3747  13C4                     u6610:
  3748  13C4                     l4611:
  3749                           
  3750                           ;main.c: 151:         ftotal = (float)total * (5.0f/1023);
  3751  13C4  303B               	movlw	59
  3752  13C5  0020               	movlb	0	; select bank0
  3753  13C6  00A3               	movwf	___flmul@b+3
  3754  13C7  30A0               	movlw	160
  3755  13C8  00A2               	movwf	___flmul@b+2
  3756  13C9  3028               	movlw	40
  3757  13CA  00A1               	movwf	___flmul@b+1
  3758  13CB  300A               	movlw	10
  3759  13CC  00A0               	movwf	___flmul@b
  3760  13CD  0022               	movlb	2	; select bank2
  3761  13CE  0846               	movf	(main@total+3)^(0+256),w
  3762  13CF  00F3               	movwf	___xxtofl@val+3
  3763  13D0  0845               	movf	(main@total+2)^(0+256),w
  3764  13D1  00F2               	movwf	___xxtofl@val+2
  3765  13D2  0844               	movf	(main@total+1)^(0+256),w
  3766  13D3  00F1               	movwf	___xxtofl@val+1
  3767  13D4  0843               	movf	main@total^(0+256),w
  3768  13D5  00F0               	movwf	___xxtofl@val
  3769  13D6  3001               	movlw	1
  3770  13D7  3180  2004  3193   	fcall	___xxtofl
  3771  13DA  0873               	movf	?___xxtofl+3,w
  3772  13DB  0020               	movlb	0	; select bank0
  3773  13DC  00A7               	movwf	___flmul@a+3
  3774  13DD  0872               	movf	?___xxtofl+2,w
  3775  13DE  00A6               	movwf	___flmul@a+2
  3776  13DF  0871               	movf	?___xxtofl+1,w
  3777  13E0  00A5               	movwf	___flmul@a+1
  3778  13E1  0870               	movf	?___xxtofl,w
  3779  13E2  00A4               	movwf	___flmul@a
  3780  13E3  318A  229B  3193   	fcall	___flmul
  3781  13E6  0020               	movlb	0	; select bank0
  3782  13E7  0823               	movf	?___flmul+3,w
  3783  13E8  0022               	movlb	2	; select bank2
  3784  13E9  00C2               	movwf	(main@ftotal+3)^(0+256)
  3785  13EA  0020               	movlb	0	; select bank0
  3786  13EB  0822               	movf	?___flmul+2,w
  3787  13EC  0022               	movlb	2	; select bank2
  3788  13ED  00C1               	movwf	(main@ftotal+2)^(0+256)
  3789  13EE  0020               	movlb	0	; select bank0
  3790  13EF  0821               	movf	?___flmul+1,w
  3791  13F0  0022               	movlb	2	; select bank2
  3792  13F1  00C0               	movwf	(main@ftotal+1)^(0+256)
  3793  13F2  0020               	movlb	0	; select bank0
  3794  13F3  0820               	movf	?___flmul,w
  3795  13F4  0022               	movlb	2	; select bank2
  3796  13F5  00BF               	movwf	main@ftotal^(0+256)
  3797                           
  3798                           ;main.c: 152:         fvrl = ftotal / 1000;
  3799  13F6  3044               	movlw	68
  3800  13F7  00F3               	movwf	___fldiv@a+3
  3801  13F8  307A               	movlw	122
  3802  13F9  00F2               	movwf	___fldiv@a+2
  3803  13FA  3000               	movlw	0
  3804  13FB  00F1               	movwf	___fldiv@a+1
  3805  13FC  3000               	movlw	0
  3806  13FD  00F0               	movwf	___fldiv@a
  3807  13FE  0842               	movf	(main@ftotal+3)^(0+256),w
  3808  13FF  00F7               	movwf	___fldiv@b+3
  3809  1400  0841               	movf	(main@ftotal+2)^(0+256),w
  3810  1401  00F6               	movwf	___fldiv@b+2
  3811  1402  0840               	movf	(main@ftotal+1)^(0+256),w
  3812  1403  00F5               	movwf	___fldiv@b+1
  3813  1404  083F               	movf	main@ftotal^(0+256),w
  3814  1405  00F4               	movwf	___fldiv@b
  3815  1406  3196  264C  3193   	fcall	___fldiv
  3816  1409  0873               	movf	?___fldiv+3,w
  3817  140A  0022               	movlb	2	; select bank2
  3818  140B  00CA               	movwf	(main@fvrl+3)^(0+256)
  3819  140C  0872               	movf	?___fldiv+2,w
  3820  140D  00C9               	movwf	(main@fvrl+2)^(0+256)
  3821  140E  0871               	movf	?___fldiv+1,w
  3822  140F  00C8               	movwf	(main@fvrl+1)^(0+256)
  3823  1410  0870               	movf	?___fldiv,w
  3824  1411  00C7               	movwf	main@fvrl^(0+256)
  3825  1412                     l4613:
  3826                           
  3827                           ;main.c: 154:         n= 0;
  3828  1412  01CF               	clrf	main@n^(0+256)
  3829  1413  01D0               	clrf	(main@n+1)^(0+256)
  3830  1414                     l4615:
  3831                           
  3832                           ;main.c: 156:         while(tvalTable[n].alcppm != -1){
  3833  1414  2C5E               	goto	l4623
  3834  1415                     l4617:
  3835                           
  3836                           ;main.c: 157:             if(tvalTable[n].v > fvrl) break;
  3837  1415  0022               	movlb	2	; select bank2
  3838  1416  084A               	movf	(main@fvrl+3)^(0+256),w
  3839  1417  0020               	movlb	0	; select bank0
  3840  1418  00BD               	movwf	___flge@ff1+3
  3841  1419  0022               	movlb	2	; select bank2
  3842  141A  0849               	movf	(main@fvrl+2)^(0+256),w
  3843  141B  0020               	movlb	0	; select bank0
  3844  141C  00BC               	movwf	___flge@ff1+2
  3845  141D  0022               	movlb	2	; select bank2
  3846  141E  0848               	movf	(main@fvrl+1)^(0+256),w
  3847  141F  0020               	movlb	0	; select bank0
  3848  1420  00BB               	movwf	___flge@ff1+1
  3849  1421  0022               	movlb	2	; select bank2
  3850  1422  0847               	movf	main@fvrl^(0+256),w
  3851  1423  0020               	movlb	0	; select bank0
  3852  1424  00BA               	movwf	___flge@ff1
  3853  1425  0022               	movlb	2	; select bank2
  3854  1426  0850               	movf	(main@n+1)^(0+256),w
  3855  1427  00F1               	movwf	___wmul@multiplier+1
  3856  1428  084F               	movf	main@n^(0+256),w
  3857  1429  00F0               	movwf	___wmul@multiplier
  3858  142A  3006               	movlw	6
  3859  142B  00F2               	movwf	___wmul@multiplicand
  3860  142C  3000               	movlw	0
  3861  142D  00F3               	movwf	___wmul@multiplicand+1
  3862  142E  319B  233A  3193   	fcall	___wmul
  3863  1431  0871               	movf	?___wmul+1,w
  3864  1432  0085               	movwf	5
  3865  1433  0870               	movf	?___wmul,w
  3866  1434  0084               	movwf	4
  3867  1435  3000               	movlw	low (_tvalTable| (0+32768))
  3868  1436  0784               	addwf	4,f
  3869  1437  3098               	movlw	high (_tvalTable| (0+32768))
  3870  1438  3D85               	addwfc	5,f
  3871  1439  3F00               	moviw [0]fsr0
  3872  143A  0021               	movlb	1	; select bank1
  3873  143B  00E8               	movwf	??_main^(0+128)
  3874  143C  3F01               	moviw [1]fsr0
  3875  143D  00E9               	movwf	(??_main^(0+128)+1)
  3876  143E  3F02               	moviw [2]fsr0
  3877  143F  00EA               	movwf	(??_main^(0+128)+2)
  3878  1440  3F03               	moviw [3]fsr0
  3879  1441  00EB               	movwf	(??_main^(0+128)+3)
  3880  1442  086B               	movf	(??_main+3)^(0+128),w
  3881  1443  0020               	movlb	0	; select bank0
  3882  1444  00C1               	movwf	___flge@ff2+3
  3883  1445  0021               	movlb	1	; select bank1
  3884  1446  086A               	movf	(??_main+2)^(0+128),w
  3885  1447  0020               	movlb	0	; select bank0
  3886  1448  00C0               	movwf	___flge@ff2+2
  3887  1449  0021               	movlb	1	; select bank1
  3888  144A  0869               	movf	(??_main+1)^(0+128),w
  3889  144B  0020               	movlb	0	; select bank0
  3890  144C  00BF               	movwf	___flge@ff2+1
  3891  144D  0021               	movlb	1	; select bank1
  3892  144E  0868               	movf	??_main^(0+128),w
  3893  144F  0020               	movlb	0	; select bank0
  3894  1450  00BE               	movwf	___flge@ff2
  3895  1451  3190  2022  3193   	fcall	___flge
  3896  1454  1803               	btfsc	3,0
  3897  1455  2C57               	goto	u6621
  3898  1456  2C58               	goto	u6620
  3899  1457                     u6621:
  3900  1457  2C59               	goto	l4621
  3901  1458                     u6620:
  3902  1458  2C7C               	goto	l4625
  3903  1459                     l4621:
  3904                           
  3905                           ;main.c: 158:             n++;
  3906  1459  3001               	movlw	1
  3907  145A  0022               	movlb	2	; select bank2
  3908  145B  07CF               	addwf	main@n^(0+256),f
  3909  145C  3000               	movlw	0
  3910  145D  3DD0               	addwfc	(main@n+1)^(0+256),f
  3911  145E                     l4623:
  3912                           
  3913                           ;main.c: 156:         while(tvalTable[n].alcppm != -1){
  3914  145E  0850               	movf	(main@n+1)^(0+256),w
  3915  145F  00F1               	movwf	___wmul@multiplier+1
  3916  1460  084F               	movf	main@n^(0+256),w
  3917  1461  00F0               	movwf	___wmul@multiplier
  3918  1462  3006               	movlw	6
  3919  1463  00F2               	movwf	___wmul@multiplicand
  3920  1464  3000               	movlw	0
  3921  1465  00F3               	movwf	___wmul@multiplicand+1
  3922  1466  319B  233A  3193   	fcall	___wmul
  3923  1469  0871               	movf	?___wmul+1,w
  3924  146A  0085               	movwf	5
  3925  146B  0870               	movf	?___wmul,w
  3926  146C  0084               	movwf	4
  3927  146D  3004               	movlw	low ((_tvalTable+4)| (0+32768))
  3928  146E  0784               	addwf	4,f
  3929  146F  3098               	movlw	high ((_tvalTable+4)| (0+32768))
  3930  1470  3D85               	addwfc	5,f
  3931  1471  0012               	moviw fsr0++
  3932  1472  3AFF               	xorlw	255
  3933  1473  0021               	movlb	1	; select bank1
  3934  1474  00E8               	movwf	??_main^(0+128)
  3935  1475  0012               	moviw fsr0++
  3936  1476  3AFF               	xorlw	255
  3937  1477  04E8               	iorwf	??_main^(0+128),f
  3938  1478  1D03               	btfss	3,2
  3939  1479  2C7B               	goto	u6631
  3940  147A  2C7C               	goto	u6630
  3941  147B                     u6631:
  3942  147B  2C15               	goto	l4617
  3943  147C                     u6630:
  3944  147C                     l4625:
  3945                           
  3946                           ;main.c: 161:         alc2ppm = tvalTable[n].alcppm;
  3947  147C  0022               	movlb	2	; select bank2
  3948  147D  0850               	movf	(main@n+1)^(0+256),w
  3949  147E  00F1               	movwf	___wmul@multiplier+1
  3950  147F  084F               	movf	main@n^(0+256),w
  3951  1480  00F0               	movwf	___wmul@multiplier
  3952  1481  3006               	movlw	6
  3953  1482  00F2               	movwf	___wmul@multiplicand
  3954  1483  3000               	movlw	0
  3955  1484  00F3               	movwf	___wmul@multiplicand+1
  3956  1485  319B  233A  3193   	fcall	___wmul
  3957  1488  0871               	movf	?___wmul+1,w
  3958  1489  0085               	movwf	5
  3959  148A  0870               	movf	?___wmul,w
  3960  148B  0084               	movwf	4
  3961  148C  3004               	movlw	low ((_tvalTable+4)| (0+32768))
  3962  148D  0784               	addwf	4,f
  3963  148E  3098               	movlw	high ((_tvalTable+4)| (0+32768))
  3964  148F  3D85               	addwfc	5,f
  3965  1490  3F00               	moviw [0]fsr0
  3966  1491  0022               	movlb	2	; select bank2
  3967  1492  00CB               	movwf	main@alc2ppm^(0+256)
  3968  1493  3F01               	moviw [1]fsr0
  3969  1494  00CC               	movwf	(main@alc2ppm+1)^(0+256)
  3970  1495                     l4627:
  3971                           
  3972                           ;main.c: 162:         sprintf(s,"%d,%5.3fV\r\n",alc2ppm,fvrl);
  3973  1495  3018               	movlw	low (STR_2| (0+32768))
  3974  1496  0021               	movlb	1	; select bank1
  3975  1497  00DF               	movwf	sprintf@fmt^(0+128)
  3976  1498  30A0               	movlw	high (STR_2| (0+32768))
  3977  1499  00E0               	movwf	(sprintf@fmt^(0+128)+1)
  3978  149A  0022               	movlb	2	; select bank2
  3979  149B  084C               	movf	(main@alc2ppm+1)^(0+256),w
  3980  149C  0021               	movlb	1	; select bank1
  3981  149D  00E2               	movwf	((?_sprintf+1)^(0+128)+2)
  3982  149E  0022               	movlb	2	; select bank2
  3983  149F  084B               	movf	main@alc2ppm^(0+256),w
  3984  14A0  0021               	movlb	1	; select bank1
  3985  14A1  00E1               	movwf	(?_sprintf^(0+128)+2)
  3986  14A2  0022               	movlb	2	; select bank2
  3987  14A3  084A               	movf	(main@fvrl+3)^(0+256),w
  3988  14A4  0021               	movlb	1	; select bank1
  3989  14A5  00E6               	movwf	((?_sprintf+3)^(0+128)+4)
  3990  14A6  0022               	movlb	2	; select bank2
  3991  14A7  0849               	movf	(main@fvrl+2)^(0+256),w
  3992  14A8  0021               	movlb	1	; select bank1
  3993  14A9  00E5               	movwf	((?_sprintf+2)^(0+128)+4)
  3994  14AA  0022               	movlb	2	; select bank2
  3995  14AB  0848               	movf	(main@fvrl+1)^(0+256),w
  3996  14AC  0021               	movlb	1	; select bank1
  3997  14AD  00E4               	movwf	((?_sprintf+1)^(0+128)+4)
  3998  14AE  0022               	movlb	2	; select bank2
  3999  14AF  0847               	movf	main@fvrl^(0+256),w
  4000  14B0  0021               	movlb	1	; select bank1
  4001  14B1  00E3               	movwf	(?_sprintf^(0+128)+4)
  4002  14B2  3029               	movlw	(low (main@s| (0+256)))& (0+255)
  4003  14B3  319C  2451  3193   	fcall	_sprintf
  4004  14B6                     l4629:
  4005                           
  4006                           ;main.c: 163:         putstr(s);
  4007  14B6  3029               	movlw	low main@s
  4008  14B7  00F1               	movwf	putstr@p
  4009  14B8  3001               	movlw	high main@s
  4010  14B9  00F2               	movwf	putstr@p+1
  4011  14BA  319A  22A5  3193   	fcall	_putstr
  4012  14BD                     l4631:
  4013                           
  4014                           ;main.c: 166:         if(alc2ppm <= 5 ){
  4015  14BD  3000               	movlw	0
  4016  14BE  0022               	movlb	2	; select bank2
  4017  14BF  024C               	subwf	(main@alc2ppm+1)^(0+256),w
  4018  14C0  3006               	movlw	6
  4019  14C1  1903               	skipnz
  4020  14C2  024B               	subwf	main@alc2ppm^(0+256),w
  4021  14C3  1803               	skipnc
  4022  14C4  2CC6               	goto	u6641
  4023  14C5  2CC7               	goto	u6640
  4024  14C6                     u6641:
  4025  14C6  2CCA               	goto	l212
  4026  14C7                     u6640:
  4027  14C7                     l207:	
  4028                           ;main.c: 167:             do { LATCbits.LATC1 = 1; } while(0); do { LATCbits.LATC0 = 0; 
      +                          } while(0);
  4029                           
  4030  14C7  148E               	bsf	14,1	;volatile
  4031  14C8                     l209:
  4032  14C8  100E               	bcf	14,0	;volatile
  4033  14C9  2CCC               	goto	l4633
  4034  14CA                     l212:	
  4035                           ;main.c: 169:             do { LATCbits.LATC1 = 0; } while(0); do { LATCbits.LATC0 = 1; 
      +                          } while(0);
  4036                           
  4037  14CA  108E               	bcf	14,1	;volatile
  4038  14CB                     l214:
  4039  14CB  140E               	bsf	14,0	;volatile
  4040  14CC                     l4633:
  4041                           
  4042                           ;main.c: 172:         _delay((unsigned long)((1000)*(4000000/4000.0)));
  4043  14CC  3006               	movlw	6
  4044  14CD  0021               	movlb	1	; select bank1
  4045  14CE  00E9               	movwf	(??_main^(0+128)+1)
  4046  14CF  3013               	movlw	19
  4047  14D0  00E8               	movwf	??_main^(0+128)
  4048  14D1  30AD               	movlw	173
  4049  14D2                     u6667:
  4050  14D2  0B89               	decfsz	9,f
  4051  14D3  2CD2               	goto	u6667
  4052  14D4  0BE8               	decfsz	??_main^(0+128),f
  4053  14D5  2CD2               	goto	u6667
  4054  14D6  0BE9               	decfsz	(??_main^(0+128)+1),f
  4055  14D7  2CD2               	goto	u6667
  4056  14D8  3200               	nop2
  4057  14D9  2B9A               	goto	l4595
  4058  14DA  3180  2802         	ljmp	start
  4059  14DC                     __end_of_main:
  4060                           
  4061                           	psect	text1
  4062  1C51                     __ptext1:	
  4063 ;; *************** function _sprintf *****************
  4064 ;; Defined at:
  4065 ;;		line 9 in file "C:\Program Files\Microchip\xc8\v2.31\pic\sources\c99\common\nf_sprintf.c"
  4066 ;; Parameters:    Size  Location     Type
  4067 ;;  s               1    wreg     PTR unsigned char 
  4068 ;;		 -> main@s(20), 
  4069 ;;  fmt             2   63[BANK1 ] PTR const unsigned char 
  4070 ;;		 -> STR_2(12), 
  4071 ;; Auto vars:     Size  Location     Type
  4072 ;;  s               1    2[BANK2 ] PTR unsigned char 
  4073 ;;		 -> main@s(20), 
  4074 ;;  f               5    4[BANK2 ] struct _IO_FILE
  4075 ;;  ret             2    0        int 
  4076 ;;  ap              1    3[BANK2 ] PTR void [1]
  4077 ;;		 -> ?_sprintf(2), 
  4078 ;; Return value:  Size  Location     Type
  4079 ;;                  2   63[BANK1 ] int 
  4080 ;; Registers used:
  4081 ;;		wreg, fsr0l, fsr0h, fsr1l, fsr1h, status,2, status,0, pclath, cstack
  4082 ;; Tracked objects:
  4083 ;;		On entry : 0/0
  4084 ;;		On exit  : 0/0
  4085 ;;		Unchanged: 0/0
  4086 ;; Data sizes:     COMMON   BANK0   BANK1   BANK2   BANK3   BANK4   BANK5   BANK6   BANK7   BANK8   BANK9  BANK10  BANK1
      +1  BANK12  BANK13  BANK14  BANK15  BANK16  BANK17  BANK18  BANK19  BANK20  BANK21  BANK22  BANK23  BANK24  BANK25
  4087 ;;      Params:         0       0       8       0       0       0       0       0       0       0       0       0       
      +0       0       0       0       0       0       0       0       0       0       0       0       0       0       0
  4088 ;;      Locals:         0       0       0       9       0       0       0       0       0       0       0       0       
      +0       0       0       0       0       0       0       0       0       0       0       0       0       0       0
  4089 ;;      Temps:          0       0       1       0       0       0       0       0       0       0       0       0       
      +0       0       0       0       0       0       0       0       0       0       0       0       0       0       0
  4090 ;;      Totals:         0       0       9       9       0       0       0       0       0       0       0       0       
      +0       0       0       0       0       0       0       0       0       0       0       0       0       0       0
  4091 ;;Total ram usage:       18 bytes
  4092 ;; Hardware stack levels used:    1
  4093 ;; Hardware stack levels required when called:    7
  4094 ;; This function calls:
  4095 ;;		_vfprintf
  4096 ;; This function is called by:
  4097 ;;		_main
  4098 ;; This function uses a non-reentrant model
  4099 ;;
  4100                           
  4101                           
  4102                           ;psect for function _sprintf
  4103  1C51                     _sprintf:
  4104                           
  4105                           ;incstack = 0
  4106                           ; Regs used in _sprintf: [wreg-fsr1h+status,2+status,0+pclath+cstack]
  4107                           ;sprintf@s stored from wreg
  4108  1C51  0022               	movlb	2	; select bank2
  4109  1C52  00A2               	movwf	sprintf@s^(0+256)
  4110  1C53                     l4519:
  4111  1C53  30E1               	movlw	(low ((?_sprintf| 0+2)))& (0+255)
  4112  1C54  0021               	movlb	1	; select bank1
  4113  1C55  00E7               	movwf	??_sprintf^(0+128)
  4114  1C56  0867               	movf	??_sprintf^(0+128),w
  4115  1C57  0022               	movlb	2	; select bank2
  4116  1C58  00A3               	movwf	sprintf@ap^(0+256)
  4117  1C59  0822               	movf	sprintf@s^(0+256),w
  4118  1C5A  0021               	movlb	1	; select bank1
  4119  1C5B  00E7               	movwf	??_sprintf^(0+128)
  4120  1C5C  0867               	movf	??_sprintf^(0+128),w
  4121  1C5D  0022               	movlb	2	; select bank2
  4122  1C5E  00A4               	movwf	sprintf@f^(0+256)
  4123  1C5F                     l4521:
  4124  1C5F  01A5               	clrf	(sprintf@f^(0+256)+1)
  4125  1C60  01A6               	clrf	((sprintf@f+1)^(0+256)+1)
  4126  1C61                     l4523:
  4127  1C61  01A7               	clrf	(sprintf@f^(0+256)+3)
  4128  1C62  01A8               	clrf	((sprintf@f+1)^(0+256)+3)
  4129  1C63                     l4525:
  4130  1C63  0021               	movlb	1	; select bank1
  4131  1C64  0860               	movf	(sprintf@fmt+1)^(0+128),w
  4132  1C65  00DA               	movwf	(vfprintf@fmt+1)^(0+128)
  4133  1C66  085F               	movf	sprintf@fmt^(0+128),w
  4134  1C67  00D9               	movwf	vfprintf@fmt^(0+128)
  4135  1C68  3023               	movlw	(low (sprintf@ap| (0+256)))& (0+255)
  4136  1C69  00E7               	movwf	??_sprintf^(0+128)
  4137  1C6A  0867               	movf	??_sprintf^(0+128),w
  4138  1C6B  00DB               	movwf	vfprintf@ap^(0+128)
  4139  1C6C  3024               	movlw	(low (sprintf@f| (0+256)))& (0+255)
  4140  1C6D  319C  247B  319C   	fcall	_vfprintf
  4141  1C70                     l4527:
  4142  1C70  0022               	movlb	2	; select bank2
  4143  1C71  0825               	movf	(sprintf@f^(0+256)+1),w
  4144  1C72  0722               	addwf	sprintf@s^(0+256),w
  4145  1C73  0021               	movlb	1	; select bank1
  4146  1C74  00E7               	movwf	??_sprintf^(0+128)
  4147  1C75  0867               	movf	??_sprintf^(0+128),w
  4148  1C76  0086               	movwf	6
  4149  1C77  3001               	movlw	1	; select bank2/3
  4150  1C78  0087               	movwf	7
  4151  1C79  0181               	clrf	1
  4152  1C7A                     l873:
  4153  1C7A  0008               	return
  4154  1C7B                     __end_of_sprintf:
  4155                           
  4156                           	psect	text2
  4157  1C7B                     __ptext2:	
  4158 ;; *************** function _vfprintf *****************
  4159 ;; Defined at:
  4160 ;;		line 1390 in file "C:\Program Files\Microchip\xc8\v2.31\pic\sources\c99\common\doprnt.c"
  4161 ;; Parameters:    Size  Location     Type
  4162 ;;  fp              1    wreg     PTR struct _IO_FILE
  4163 ;;		 -> sprintf@f(5), 
  4164 ;;  fmt             2   57[BANK1 ] PTR const unsigned char 
  4165 ;;		 -> STR_2(12), 
  4166 ;;  ap              1   59[BANK1 ] PTR PTR void 
  4167 ;;		 -> sprintf@ap(1), 
  4168 ;; Auto vars:     Size  Location     Type
  4169 ;;  fp              1   60[BANK1 ] PTR struct _IO_FILE
  4170 ;;		 -> sprintf@f(5), 
  4171 ;;  cfmt            2   61[BANK1 ] PTR unsigned char 
  4172 ;;		 -> STR_2(12), 
  4173 ;; Return value:  Size  Location     Type
  4174 ;;                  2   57[BANK1 ] int 
  4175 ;; Registers used:
  4176 ;;		wreg, fsr0l, fsr0h, fsr1l, fsr1h, status,2, status,0, pclath, cstack
  4177 ;; Tracked objects:
  4178 ;;		On entry : 0/0
  4179 ;;		On exit  : 0/0
  4180 ;;		Unchanged: 0/0
  4181 ;; Data sizes:     COMMON   BANK0   BANK1   BANK2   BANK3   BANK4   BANK5   BANK6   BANK7   BANK8   BANK9  BANK10  BANK1
      +1  BANK12  BANK13  BANK14  BANK15  BANK16  BANK17  BANK18  BANK19  BANK20  BANK21  BANK22  BANK23  BANK24  BANK25
  4182 ;;      Params:         0       0       3       0       0       0       0       0       0       0       0       0       
      +0       0       0       0       0       0       0       0       0       0       0       0       0       0       0
  4183 ;;      Locals:         0       0       3       0       0       0       0       0       0       0       0       0       
      +0       0       0       0       0       0       0       0       0       0       0       0       0       0       0
  4184 ;;      Temps:          0       2       0       0       0       0       0       0       0       0       0       0       
      +0       0       0       0       0       0       0       0       0       0       0       0       0       0       0
  4185 ;;      Totals:         0       2       6       0       0       0       0       0       0       0       0       0       
      +0       0       0       0       0       0       0       0       0       0       0       0       0       0       0
  4186 ;;Total ram usage:        8 bytes
  4187 ;; Hardware stack levels used:    1
  4188 ;; Hardware stack levels required when called:    6
  4189 ;; This function calls:
  4190 ;;		_vfpfcnvrt
  4191 ;; This function is called by:
  4192 ;;		_sprintf
  4193 ;; This function uses a non-reentrant model
  4194 ;;
  4195                           
  4196                           
  4197                           ;psect for function _vfprintf
  4198  1C7B                     _vfprintf:
  4199                           
  4200                           ;incstack = 0
  4201                           ; Regs used in _vfprintf: [wreg-fsr1h+status,2+status,0+pclath+cstack]
  4202                           ;vfprintf@fp stored from wreg
  4203  1C7B  0021               	movlb	1	; select bank1
  4204  1C7C  00DC               	movwf	vfprintf@fp^(0+128)
  4205  1C7D                     l4475:
  4206                           
  4207                           ;C:\Program Files\Microchip\xc8\v2.31\pic\sources\c99\common\doprnt.c: 1390: int vfprint
      +                          f(FILE *fp, const char *fmt, va_list ap);C:\Program Files\Microchip\xc8\v2.31\pic\source
      +                          s\c99\common\doprnt.c: 1391: {;C:\Program Files\Microchip\xc8\v2.31\pic\sources\c99\comm
      +                          on\doprnt.c: 1393:     char *cfmt;;C:\Program Files\Microchip\xc8\v2.31\pic\sources\c99\
      +                          common\doprnt.c: 1395:     cfmt = (char *)fmt;
  4208  1C7D  085A               	movf	(vfprintf@fmt+1)^(0+128),w
  4209  1C7E  00DE               	movwf	(vfprintf@cfmt+1)^(0+128)
  4210  1C7F  0859               	movf	vfprintf@fmt^(0+128),w
  4211  1C80  00DD               	movwf	vfprintf@cfmt^(0+128)
  4212  1C81                     l4477:
  4213                           
  4214                           ;C:\Program Files\Microchip\xc8\v2.31\pic\sources\c99\common\doprnt.c: 1396:     nout = 
      +                          0;
  4215  1C81  0022               	movlb	2	; select bank2
  4216  1C82  01D9               	clrf	_nout^(0+256)
  4217  1C83  01DA               	clrf	(_nout+1)^(0+256)
  4218                           
  4219                           ;C:\Program Files\Microchip\xc8\v2.31\pic\sources\c99\common\doprnt.c: 1397:     while (
      +                          *cfmt) {
  4220  1C84  2C9D               	goto	l4481
  4221  1C85                     l4479:
  4222                           
  4223                           ;C:\Program Files\Microchip\xc8\v2.31\pic\sources\c99\common\doprnt.c: 1398:         nou
      +                          t += vfpfcnvrt(fp, &cfmt, ap);
  4224  1C85  30DD               	movlw	(low (vfprintf@cfmt| 0))& (0+255)
  4225  1C86  0020               	movlb	0	; select bank0
  4226  1C87  00EE               	movwf	??_vfprintf
  4227  1C88  086E               	movf	??_vfprintf,w
  4228  1C89  00CF               	movwf	vfpfcnvrt@fmt
  4229  1C8A  0021               	movlb	1	; select bank1
  4230  1C8B  085B               	movf	vfprintf@ap^(0+128),w
  4231  1C8C  0020               	movlb	0	; select bank0
  4232  1C8D  00EF               	movwf	??_vfprintf+1
  4233  1C8E  086F               	movf	??_vfprintf+1,w
  4234  1C8F  00D0               	movwf	vfpfcnvrt@ap
  4235  1C90  0021               	movlb	1	; select bank1
  4236  1C91  085C               	movf	vfprintf@fp^(0+128),w
  4237  1C92  318C  24F2  319C   	fcall	_vfpfcnvrt
  4238  1C95  0020               	movlb	0	; select bank0
  4239  1C96  084F               	movf	?_vfpfcnvrt,w
  4240  1C97  0022               	movlb	2	; select bank2
  4241  1C98  07D9               	addwf	_nout^(0+256),f
  4242  1C99  0020               	movlb	0	; select bank0
  4243  1C9A  0850               	movf	?_vfpfcnvrt+1,w
  4244  1C9B  0022               	movlb	2	; select bank2
  4245  1C9C  3DDA               	addwfc	(_nout+1)^(0+256),f
  4246  1C9D                     l4481:
  4247                           
  4248                           ;C:\Program Files\Microchip\xc8\v2.31\pic\sources\c99\common\doprnt.c: 1397:     while (
      +                          *cfmt) {
  4249  1C9D  0021               	movlb	1	; select bank1
  4250  1C9E  085D               	movf	vfprintf@cfmt^(0+128),w
  4251  1C9F  0084               	movwf	4
  4252  1CA0  085E               	movf	(vfprintf@cfmt+1)^(0+128),w
  4253  1CA1  0085               	movwf	5
  4254  1CA2  0012               	moviw fsr0++
  4255  1CA3  1D03               	btfss	3,2
  4256  1CA4  2CA6               	goto	u6421
  4257  1CA5  2CA7               	goto	u6420
  4258  1CA6                     u6421:
  4259  1CA6  2C85               	goto	l4479
  4260  1CA7                     u6420:
  4261  1CA7                     l4483:
  4262                           
  4263                           ;C:\Program Files\Microchip\xc8\v2.31\pic\sources\c99\common\doprnt.c: 1400:     return 
      +                          nout;
  4264  1CA7  0022               	movlb	2	; select bank2
  4265  1CA8  085A               	movf	(_nout+1)^(0+256),w
  4266  1CA9  0021               	movlb	1	; select bank1
  4267  1CAA  00DA               	movwf	(?_vfprintf+1)^(0+128)
  4268  1CAB  0022               	movlb	2	; select bank2
  4269  1CAC  0859               	movf	_nout^(0+256),w
  4270  1CAD  0021               	movlb	1	; select bank1
  4271  1CAE  00D9               	movwf	?_vfprintf^(0+128)
  4272  1CAF                     l1084:
  4273  1CAF  0008               	return
  4274  1CB0                     __end_of_vfprintf:
  4275                           
  4276                           	psect	text3
  4277  0CF2                     __ptext3:	
  4278 ;; *************** function _vfpfcnvrt *****************
  4279 ;; Defined at:
  4280 ;;		line 692 in file "C:\Program Files\Microchip\xc8\v2.31\pic\sources\c99\common\doprnt.c"
  4281 ;; Parameters:    Size  Location     Type
  4282 ;;  fp              1    wreg     PTR struct _IO_FILE
  4283 ;;		 -> sprintf@f(5), 
  4284 ;;  fmt             1   47[BANK0 ] PTR PTR unsigned char 
  4285 ;;		 -> vfprintf@cfmt(2), 
  4286 ;;  ap              1   48[BANK0 ] PTR PTR void 
  4287 ;;		 -> sprintf@ap(1), 
  4288 ;; Auto vars:     Size  Location     Type
  4289 ;;  fp              1   77[BANK0 ] PTR struct _IO_FILE
  4290 ;;		 -> sprintf@f(5), 
  4291 ;;  ll              8   55[BANK0 ] long long 
  4292 ;;  llu             8    0        unsigned long long 
  4293 ;;  f               4   69[BANK0 ] unsigned long long 
  4294 ;;  ct              3   73[BANK0 ] unsigned char [3]
  4295 ;;  vp              2    0        PTR void 
  4296 ;;  i               2    0        int 
  4297 ;;  done            2    0        int 
  4298 ;;  cp              2    0        PTR unsigned char 
  4299 ;;  c               1   76[BANK0 ] unsigned char 
  4300 ;; Return value:  Size  Location     Type
  4301 ;;                  2   47[BANK0 ] int 
  4302 ;; Registers used:
  4303 ;;		wreg, fsr0l, fsr0h, fsr1l, fsr1h, status,2, status,0, pclath, cstack
  4304 ;; Tracked objects:
  4305 ;;		On entry : 0/0
  4306 ;;		On exit  : 0/0
  4307 ;;		Unchanged: 0/0
  4308 ;; Data sizes:     COMMON   BANK0   BANK1   BANK2   BANK3   BANK4   BANK5   BANK6   BANK7   BANK8   BANK9  BANK10  BANK1
      +1  BANK12  BANK13  BANK14  BANK15  BANK16  BANK17  BANK18  BANK19  BANK20  BANK21  BANK22  BANK23  BANK24  BANK25
  4309 ;;      Params:         0       2       0       0       0       0       0       0       0       0       0       0       
      +0       0       0       0       0       0       0       0       0       0       0       0       0       0       0
  4310 ;;      Locals:         0      23       0       0       0       0       0       0       0       0       0       0       
      +0       0       0       0       0       0       0       0       0       0       0       0       0       0       0
  4311 ;;      Temps:          0       6       0       0       0       0       0       0       0       0       0       0       
      +0       0       0       0       0       0       0       0       0       0       0       0       0       0       0
  4312 ;;      Totals:         0      31       0       0       0       0       0       0       0       0       0       0       
      +0       0       0       0       0       0       0       0       0       0       0       0       0       0       0
  4313 ;;Total ram usage:       31 bytes
  4314 ;; Hardware stack levels used:    1
  4315 ;; Hardware stack levels required when called:    5
  4316 ;; This function calls:
  4317 ;;		_atoi
  4318 ;;		_dtoa
  4319 ;;		_efgtoa
  4320 ;;		_fputc
  4321 ;;		_isdigit
  4322 ;;		_isupper
  4323 ;;		_strncmp
  4324 ;;		_tolower
  4325 ;; This function is called by:
  4326 ;;		_vfprintf
  4327 ;; This function uses a non-reentrant model
  4328 ;;
  4329                           
  4330                           
  4331                           ;psect for function _vfpfcnvrt
  4332  0CF2                     _vfpfcnvrt:
  4333                           
  4334                           ;incstack = 0
  4335                           ; Regs used in _vfpfcnvrt: [wreg-fsr1h+status,2+status,0+pclath+cstack]
  4336                           ;vfpfcnvrt@fp stored from wreg
  4337  0CF2  0020               	movlb	0	; select bank0
  4338  0CF3  00ED               	movwf	vfpfcnvrt@fp
  4339  0CF4                     l4281:
  4340                           
  4341                           ;C:\Program Files\Microchip\xc8\v2.31\pic\sources\c99\common\doprnt.c: 692: static int v
      +                          fpfcnvrt(FILE *fp, char *fmt[], va_list ap);C:\Program Files\Microchip\xc8\v2.31\pic\sou
      +                          rces\c99\common\doprnt.c: 693: {;C:\Program Files\Microchip\xc8\v2.31\pic\sources\c99\co
      +                          mmon\doprnt.c: 694:     char c, *cp, ct[3];;C:\Program Files\Microchip\xc8\v2.31\pic\sou
      +                          rces\c99\common\doprnt.c: 695:     int done, i;;C:\Program Files\Microchip\xc8\v2.31\pic
      +                          \sources\c99\common\doprnt.c: 696:     long long ll;;C:\Program Files\Microchip\xc8\v2.3
      +                          1\pic\sources\c99\common\doprnt.c: 697:     unsigned long long llu;
  4342  0CF4  084F               	movf	vfpfcnvrt@fmt,w
  4343  0CF5  0086               	movwf	6
  4344  0CF6  0187               	clrf	7
  4345  0CF7  3F40               	moviw [0]fsr1
  4346  0CF8  00D1               	movwf	??_vfpfcnvrt
  4347  0CF9  3F41               	moviw [1]fsr1
  4348  0CFA  00D2               	movwf	??_vfpfcnvrt+1
  4349  0CFB  0851               	movf	??_vfpfcnvrt,w
  4350  0CFC  0084               	movwf	4
  4351  0CFD  0852               	movf	??_vfpfcnvrt+1,w
  4352  0CFE  0085               	movwf	5
  4353  0CFF  0012               	moviw fsr0++
  4354  0D00  3A25               	xorlw	37
  4355  0D01  1D03               	btfss	3,2
  4356  0D02  2D04               	goto	u6201
  4357  0D03  2D05               	goto	u6200
  4358  0D04                     u6201:
  4359  0D04  2FDC               	goto	l4401
  4360  0D05                     u6200:
  4361  0D05                     l4283:
  4362                           
  4363                           ;C:\Program Files\Microchip\xc8\v2.31\pic\sources\c99\common\doprnt.c: 703:         ++*f
      +                          mt;
  4364  0D05  084F               	movf	vfpfcnvrt@fmt,w
  4365  0D06  0086               	movwf	6
  4366  0D07  0187               	clrf	7
  4367  0D08  3001               	movlw	1
  4368  0D09  0781               	addwf	1,f
  4369  0D0A  3141               	addfsr 1,1
  4370  0D0B  1803               	skipnc
  4371  0D0C  0A81               	incf	1,f
  4372  0D0D                     l4285:
  4373                           
  4374                           ;C:\Program Files\Microchip\xc8\v2.31\pic\sources\c99\common\doprnt.c: 705:         flag
      +                          s = width = 0;
  4375  0D0D  0022               	movlb	2	; select bank2
  4376  0D0E  01DB               	clrf	_width^(0+256)
  4377  0D0F  01DC               	clrf	(_width+1)^(0+256)
  4378  0D10  0021               	movlb	1	; select bank1
  4379  0D11  01EE               	clrf	_flags^(0+128)
  4380  0D12  01EF               	clrf	(_flags+1)^(0+128)
  4381  0D13                     l4287:
  4382                           
  4383                           ;C:\Program Files\Microchip\xc8\v2.31\pic\sources\c99\common\doprnt.c: 706:         prec
      +                           = -1;
  4384  0D13  30FF               	movlw	255
  4385  0D14  00EC               	movwf	_prec^(0+128)
  4386  0D15  30FF               	movlw	255
  4387  0D16  00ED               	movwf	(_prec^(0+128)+1)
  4388  0D17                     l4289:
  4389                           
  4390                           ;C:\Program Files\Microchip\xc8\v2.31\pic\sources\c99\common\doprnt.c: 745:         if (
      +                          (*fmt)[0] == '*') {
  4391  0D17  0020               	movlb	0	; select bank0
  4392  0D18  084F               	movf	vfpfcnvrt@fmt,w
  4393  0D19  0086               	movwf	6
  4394  0D1A  0187               	clrf	7
  4395  0D1B  3F40               	moviw [0]fsr1
  4396  0D1C  00D1               	movwf	??_vfpfcnvrt
  4397  0D1D  3F41               	moviw [1]fsr1
  4398  0D1E  00D2               	movwf	??_vfpfcnvrt+1
  4399  0D1F  0851               	movf	??_vfpfcnvrt,w
  4400  0D20  0084               	movwf	4
  4401  0D21  0852               	movf	??_vfpfcnvrt+1,w
  4402  0D22  0085               	movwf	5
  4403  0D23  0012               	moviw fsr0++
  4404  0D24  3A2A               	xorlw	42
  4405  0D25  1D03               	btfss	3,2
  4406  0D26  2D28               	goto	u6211
  4407  0D27  2D29               	goto	u6210
  4408  0D28                     u6211:
  4409  0D28  2D4C               	goto	l4301
  4410  0D29                     u6210:
  4411  0D29                     l4291:
  4412                           
  4413                           ;C:\Program Files\Microchip\xc8\v2.31\pic\sources\c99\common\doprnt.c: 746:             
      +                          ++*fmt;
  4414  0D29  084F               	movf	vfpfcnvrt@fmt,w
  4415  0D2A  0086               	movwf	6
  4416  0D2B  0187               	clrf	7
  4417  0D2C  3001               	movlw	1
  4418  0D2D  0781               	addwf	1,f
  4419  0D2E  3141               	addfsr 1,1
  4420  0D2F  1803               	skipnc
  4421  0D30  0A81               	incf	1,f
  4422  0D31                     l4293:
  4423                           
  4424                           ;C:\Program Files\Microchip\xc8\v2.31\pic\sources\c99\common\doprnt.c: 747:             
      +                          width = (*(int *)__va_arg(*(int **)ap, (int)0));
  4425  0D31  0850               	movf	vfpfcnvrt@ap,w
  4426  0D32  0086               	movwf	6
  4427  0D33  3001               	movlw	1	; select bank2/3
  4428  0D34  0087               	movwf	7
  4429  0D35  0801               	movf	1,w
  4430  0D36  0084               	movwf	4
  4431  0D37  0185               	clrf	5
  4432  0D38  3002               	movlw	2
  4433  0D39  0781               	addwf	1,f
  4434  0D3A  3F00               	moviw [0]fsr0
  4435  0D3B  0022               	movlb	2	; select bank2
  4436  0D3C  00DB               	movwf	_width^(0+256)
  4437  0D3D  3F01               	moviw [1]fsr0
  4438  0D3E  00DC               	movwf	(_width+1)^(0+256)
  4439  0D3F                     l4295:
  4440                           
  4441                           ;C:\Program Files\Microchip\xc8\v2.31\pic\sources\c99\common\doprnt.c: 748:             
      +                          if (width < 0) {
  4442  0D3F  1FDC               	btfss	(_width+1)^(0+256),7
  4443  0D40  2D42               	goto	u6221
  4444  0D41  2D43               	goto	u6220
  4445  0D42                     u6221:
  4446  0D42  2D8E               	goto	l4311
  4447  0D43                     u6220:
  4448  0D43                     l4297:
  4449                           
  4450                           ;C:\Program Files\Microchip\xc8\v2.31\pic\sources\c99\common\doprnt.c: 749:             
      +                              flags |= (1 << 0);
  4451  0D43  0021               	movlb	1	; select bank1
  4452  0D44  146E               	bsf	_flags^(0+128),0
  4453  0D45                     l4299:
  4454                           
  4455                           ;C:\Program Files\Microchip\xc8\v2.31\pic\sources\c99\common\doprnt.c: 750:             
      +                              width = -width;
  4456  0D45  0022               	movlb	2	; select bank2
  4457  0D46  09DB               	comf	_width^(0+256),f
  4458  0D47  09DC               	comf	(_width+1)^(0+256),f
  4459  0D48  0ADB               	incf	_width^(0+256),f
  4460  0D49  1903               	skipnz
  4461  0D4A  0ADC               	incf	(_width+1)^(0+256),f
  4462  0D4B  2D8E               	goto	l4311
  4463  0D4C                     l4301:
  4464                           
  4465                           ;C:\Program Files\Microchip\xc8\v2.31\pic\sources\c99\common\doprnt.c: 753:             
      +                          width = atoi(*fmt);
  4466  0D4C  084F               	movf	vfpfcnvrt@fmt,w
  4467  0D4D  0086               	movwf	6
  4468  0D4E  0187               	clrf	7
  4469  0D4F  3F40               	moviw [0]fsr1
  4470  0D50  00F6               	movwf	atoi@s
  4471  0D51  3F41               	moviw [1]fsr1
  4472  0D52  00F7               	movwf	atoi@s+1
  4473  0D53  319F  2751  318C   	fcall	_atoi
  4474  0D56  0877               	movf	?_atoi+1,w
  4475  0D57  0022               	movlb	2	; select bank2
  4476  0D58  00DC               	movwf	(_width+1)^(0+256)
  4477  0D59  0876               	movf	?_atoi,w
  4478  0D5A  00DB               	movwf	_width^(0+256)
  4479                           
  4480                           ;C:\Program Files\Microchip\xc8\v2.31\pic\sources\c99\common\doprnt.c: 754:             
      +                          while ((0 ? isdigit((*fmt)[0]) : ((unsigned)((*fmt)[0])-'0') < 10)) {
  4481  0D5B  2D64               	goto	l4305
  4482  0D5C                     l4303:
  4483                           
  4484                           ;C:\Program Files\Microchip\xc8\v2.31\pic\sources\c99\common\doprnt.c: 755:             
      +                              ++*fmt;
  4485  0D5C  084F               	movf	vfpfcnvrt@fmt,w
  4486  0D5D  0086               	movwf	6
  4487  0D5E  0187               	clrf	7
  4488  0D5F  3001               	movlw	1
  4489  0D60  0781               	addwf	1,f
  4490  0D61  3141               	addfsr 1,1
  4491  0D62  1803               	skipnc
  4492  0D63  0A81               	incf	1,f
  4493  0D64                     l4305:
  4494  0D64  0020               	movlb	0	; select bank0
  4495  0D65  084F               	movf	vfpfcnvrt@fmt,w
  4496  0D66  0086               	movwf	6
  4497  0D67  0187               	clrf	7
  4498  0D68  3F40               	moviw [0]fsr1
  4499  0D69  00D1               	movwf	??_vfpfcnvrt
  4500  0D6A  3F41               	moviw [1]fsr1
  4501  0D6B  00D2               	movwf	??_vfpfcnvrt+1
  4502  0D6C  0851               	movf	??_vfpfcnvrt,w
  4503  0D6D  0084               	movwf	4
  4504  0D6E  0852               	movf	??_vfpfcnvrt+1,w
  4505  0D6F  0085               	movwf	5
  4506  0D70  0800               	movf	0,w	;code access
  4507  0D71  3ED0               	addlw	208
  4508  0D72  00D3               	movwf	??_vfpfcnvrt+2
  4509  0D73  30FF               	movlw	255
  4510  0D74  1803               	skipnc
  4511  0D75  3000               	movlw	0
  4512  0D76  00D4               	movwf	??_vfpfcnvrt+3
  4513  0D77  3000               	movlw	0
  4514  0D78  0254               	subwf	??_vfpfcnvrt+3,w
  4515  0D79  300A               	movlw	10
  4516  0D7A  1903               	skipnz
  4517  0D7B  0253               	subwf	??_vfpfcnvrt+2,w
  4518  0D7C  1C03               	skipc
  4519  0D7D  2D7F               	goto	u6231
  4520  0D7E  2D81               	goto	u6230
  4521  0D7F                     u6231:
  4522  0D7F  3001               	movlw	1
  4523  0D80  2D82               	goto	u6240
  4524  0D81                     u6230:
  4525  0D81  3000               	movlw	0
  4526  0D82                     u6240:
  4527  0D82  00D5               	movwf	??_vfpfcnvrt+4
  4528  0D83  01D6               	clrf	??_vfpfcnvrt+5
  4529  0D84  0855               	movf	??_vfpfcnvrt+4,w
  4530  0D85  00DF               	movwf	_vfpfcnvrt$1004
  4531  0D86  0856               	movf	??_vfpfcnvrt+5,w
  4532  0D87  00E0               	movwf	_vfpfcnvrt$1004+1
  4533  0D88                     l4309:
  4534  0D88  085F               	movf	_vfpfcnvrt$1004,w
  4535  0D89  0460               	iorwf	_vfpfcnvrt$1004+1,w
  4536  0D8A  1D03               	btfss	3,2
  4537  0D8B  2D8D               	goto	u6251
  4538  0D8C  2D8E               	goto	u6250
  4539  0D8D                     u6251:
  4540  0D8D  2D5C               	goto	l4303
  4541  0D8E                     u6250:
  4542  0D8E                     l4311:
  4543                           
  4544                           ;C:\Program Files\Microchip\xc8\v2.31\pic\sources\c99\common\doprnt.c: 762:         if (
      +                          (*fmt)[0] == '.') {
  4545  0D8E  0020               	movlb	0	; select bank0
  4546  0D8F  084F               	movf	vfpfcnvrt@fmt,w
  4547  0D90  0086               	movwf	6
  4548  0D91  0187               	clrf	7
  4549  0D92  3F40               	moviw [0]fsr1
  4550  0D93  00D1               	movwf	??_vfpfcnvrt
  4551  0D94  3F41               	moviw [1]fsr1
  4552  0D95  00D2               	movwf	??_vfpfcnvrt+1
  4553  0D96  0851               	movf	??_vfpfcnvrt,w
  4554  0D97  0084               	movwf	4
  4555  0D98  0852               	movf	??_vfpfcnvrt+1,w
  4556  0D99  0085               	movwf	5
  4557  0D9A  0012               	moviw fsr0++
  4558  0D9B  3A2E               	xorlw	46
  4559  0D9C  1D03               	btfss	3,2
  4560  0D9D  2D9F               	goto	u6261
  4561  0D9E  2DA0               	goto	u6260
  4562  0D9F                     u6261:
  4563  0D9F  2E16               	goto	l4333
  4564  0DA0                     u6260:
  4565  0DA0                     l4313:
  4566                           
  4567                           ;C:\Program Files\Microchip\xc8\v2.31\pic\sources\c99\common\doprnt.c: 763:             
      +                          prec = 0;
  4568  0DA0  0021               	movlb	1	; select bank1
  4569  0DA1  01EC               	clrf	_prec^(0+128)
  4570  0DA2  01ED               	clrf	(_prec+1)^(0+128)
  4571  0DA3                     l4315:
  4572                           
  4573                           ;C:\Program Files\Microchip\xc8\v2.31\pic\sources\c99\common\doprnt.c: 764:             
      +                          ++*fmt;
  4574  0DA3  0020               	movlb	0	; select bank0
  4575  0DA4  084F               	movf	vfpfcnvrt@fmt,w
  4576  0DA5  0086               	movwf	6
  4577  0DA6  0187               	clrf	7
  4578  0DA7  3001               	movlw	1
  4579  0DA8  0781               	addwf	1,f
  4580  0DA9  3141               	addfsr 1,1
  4581  0DAA  1803               	skipnc
  4582  0DAB  0A81               	incf	1,f
  4583  0DAC                     l4317:
  4584                           
  4585                           ;C:\Program Files\Microchip\xc8\v2.31\pic\sources\c99\common\doprnt.c: 765:             
      +                          if ((*fmt)[0] == '*') {
  4586  0DAC  084F               	movf	vfpfcnvrt@fmt,w
  4587  0DAD  0086               	movwf	6
  4588  0DAE  0187               	clrf	7
  4589  0DAF  3F40               	moviw [0]fsr1
  4590  0DB0  00D1               	movwf	??_vfpfcnvrt
  4591  0DB1  3F41               	moviw [1]fsr1
  4592  0DB2  00D2               	movwf	??_vfpfcnvrt+1
  4593  0DB3  0851               	movf	??_vfpfcnvrt,w
  4594  0DB4  0084               	movwf	4
  4595  0DB5  0852               	movf	??_vfpfcnvrt+1,w
  4596  0DB6  0085               	movwf	5
  4597  0DB7  0012               	moviw fsr0++
  4598  0DB8  3A2A               	xorlw	42
  4599  0DB9  1D03               	btfss	3,2
  4600  0DBA  2DBC               	goto	u6271
  4601  0DBB  2DBD               	goto	u6270
  4602  0DBC                     u6271:
  4603  0DBC  2DD4               	goto	l4323
  4604  0DBD                     u6270:
  4605  0DBD                     l4319:
  4606                           
  4607                           ;C:\Program Files\Microchip\xc8\v2.31\pic\sources\c99\common\doprnt.c: 766:             
      +                              ++*fmt;
  4608  0DBD  084F               	movf	vfpfcnvrt@fmt,w
  4609  0DBE  0086               	movwf	6
  4610  0DBF  0187               	clrf	7
  4611  0DC0  3001               	movlw	1
  4612  0DC1  0781               	addwf	1,f
  4613  0DC2  3141               	addfsr 1,1
  4614  0DC3  1803               	skipnc
  4615  0DC4  0A81               	incf	1,f
  4616  0DC5                     l4321:
  4617                           
  4618                           ;C:\Program Files\Microchip\xc8\v2.31\pic\sources\c99\common\doprnt.c: 767:             
      +                              prec = (*(int *)__va_arg(*(int **)ap, (int)0));
  4619  0DC5  0850               	movf	vfpfcnvrt@ap,w
  4620  0DC6  0086               	movwf	6
  4621  0DC7  3001               	movlw	1	; select bank2/3
  4622  0DC8  0087               	movwf	7
  4623  0DC9  0801               	movf	1,w
  4624  0DCA  0084               	movwf	4
  4625  0DCB  0185               	clrf	5
  4626  0DCC  3002               	movlw	2
  4627  0DCD  0781               	addwf	1,f
  4628  0DCE  3F00               	moviw [0]fsr0
  4629  0DCF  0021               	movlb	1	; select bank1
  4630  0DD0  00EC               	movwf	_prec^(0+128)
  4631  0DD1  3F01               	moviw [1]fsr0
  4632  0DD2  00ED               	movwf	(_prec+1)^(0+128)
  4633                           
  4634                           ;C:\Program Files\Microchip\xc8\v2.31\pic\sources\c99\common\doprnt.c: 768:             
      +                          } else {
  4635  0DD3  2E16               	goto	l4333
  4636  0DD4                     l4323:
  4637                           
  4638                           ;C:\Program Files\Microchip\xc8\v2.31\pic\sources\c99\common\doprnt.c: 769:             
      +                              prec = atoi(*fmt);
  4639  0DD4  084F               	movf	vfpfcnvrt@fmt,w
  4640  0DD5  0086               	movwf	6
  4641  0DD6  0187               	clrf	7
  4642  0DD7  3F40               	moviw [0]fsr1
  4643  0DD8  00F6               	movwf	atoi@s
  4644  0DD9  3F41               	moviw [1]fsr1
  4645  0DDA  00F7               	movwf	atoi@s+1
  4646  0DDB  319F  2751  318C   	fcall	_atoi
  4647  0DDE  0877               	movf	?_atoi+1,w
  4648  0DDF  0021               	movlb	1	; select bank1
  4649  0DE0  00ED               	movwf	(_prec+1)^(0+128)
  4650  0DE1  0876               	movf	?_atoi,w
  4651  0DE2  00EC               	movwf	_prec^(0+128)
  4652                           
  4653                           ;C:\Program Files\Microchip\xc8\v2.31\pic\sources\c99\common\doprnt.c: 770:             
      +                              while ((0 ? isdigit((*fmt)[0]) : ((unsigned)((*fmt)[0])-'0') < 10)) {
  4654  0DE3  2DEC               	goto	l4327
  4655  0DE4                     l4325:
  4656                           
  4657                           ;C:\Program Files\Microchip\xc8\v2.31\pic\sources\c99\common\doprnt.c: 771:             
      +                                  ++*fmt;
  4658  0DE4  084F               	movf	vfpfcnvrt@fmt,w
  4659  0DE5  0086               	movwf	6
  4660  0DE6  0187               	clrf	7
  4661  0DE7  3001               	movlw	1
  4662  0DE8  0781               	addwf	1,f
  4663  0DE9  3141               	addfsr 1,1
  4664  0DEA  1803               	skipnc
  4665  0DEB  0A81               	incf	1,f
  4666  0DEC                     l4327:
  4667  0DEC  0020               	movlb	0	; select bank0
  4668  0DED  084F               	movf	vfpfcnvrt@fmt,w
  4669  0DEE  0086               	movwf	6
  4670  0DEF  0187               	clrf	7
  4671  0DF0  3F40               	moviw [0]fsr1
  4672  0DF1  00D1               	movwf	??_vfpfcnvrt
  4673  0DF2  3F41               	moviw [1]fsr1
  4674  0DF3  00D2               	movwf	??_vfpfcnvrt+1
  4675  0DF4  0851               	movf	??_vfpfcnvrt,w
  4676  0DF5  0084               	movwf	4
  4677  0DF6  0852               	movf	??_vfpfcnvrt+1,w
  4678  0DF7  0085               	movwf	5
  4679  0DF8  0800               	movf	0,w	;code access
  4680  0DF9  3ED0               	addlw	208
  4681  0DFA  00D3               	movwf	??_vfpfcnvrt+2
  4682  0DFB  30FF               	movlw	255
  4683  0DFC  1803               	skipnc
  4684  0DFD  3000               	movlw	0
  4685  0DFE  00D4               	movwf	??_vfpfcnvrt+3
  4686  0DFF  3000               	movlw	0
  4687  0E00  0254               	subwf	??_vfpfcnvrt+3,w
  4688  0E01  300A               	movlw	10
  4689  0E02  1903               	skipnz
  4690  0E03  0253               	subwf	??_vfpfcnvrt+2,w
  4691  0E04  1C03               	skipc
  4692  0E05  2E07               	goto	u6281
  4693  0E06  2E09               	goto	u6280
  4694  0E07                     u6281:
  4695  0E07  3001               	movlw	1
  4696  0E08  2E0A               	goto	u6290
  4697  0E09                     u6280:
  4698  0E09  3000               	movlw	0
  4699  0E0A                     u6290:
  4700  0E0A  00D5               	movwf	??_vfpfcnvrt+4
  4701  0E0B  01D6               	clrf	??_vfpfcnvrt+5
  4702  0E0C  0855               	movf	??_vfpfcnvrt+4,w
  4703  0E0D  00E1               	movwf	_vfpfcnvrt$1005
  4704  0E0E  0856               	movf	??_vfpfcnvrt+5,w
  4705  0E0F  00E2               	movwf	_vfpfcnvrt$1005+1
  4706  0E10                     l4331:
  4707  0E10  0861               	movf	_vfpfcnvrt$1005,w
  4708  0E11  0462               	iorwf	_vfpfcnvrt$1005+1,w
  4709  0E12  1D03               	btfss	3,2
  4710  0E13  2E15               	goto	u6301
  4711  0E14  2E16               	goto	u6300
  4712  0E15                     u6301:
  4713  0E15  2DE4               	goto	l4325
  4714  0E16                     u6300:
  4715  0E16                     l4333:
  4716                           
  4717                           ;C:\Program Files\Microchip\xc8\v2.31\pic\sources\c99\common\doprnt.c: 779:         ct[0
      +                          ] = (char)tolower((int)(*fmt)[0]);
  4718  0E16  0020               	movlb	0	; select bank0
  4719  0E17  084F               	movf	vfpfcnvrt@fmt,w
  4720  0E18  0086               	movwf	6
  4721  0E19  0187               	clrf	7
  4722  0E1A  3F40               	moviw [0]fsr1
  4723  0E1B  00D1               	movwf	??_vfpfcnvrt
  4724  0E1C  3F41               	moviw [1]fsr1
  4725  0E1D  00D2               	movwf	??_vfpfcnvrt+1
  4726  0E1E  0851               	movf	??_vfpfcnvrt,w
  4727  0E1F  0084               	movwf	4
  4728  0E20  0852               	movf	??_vfpfcnvrt+1,w
  4729  0E21  0085               	movwf	5
  4730  0E22  0800               	movf	0,w	;code access
  4731  0E23  00D3               	movwf	??_vfpfcnvrt+2
  4732  0E24  01D4               	clrf	??_vfpfcnvrt+3
  4733  0E25  0853               	movf	??_vfpfcnvrt+2,w
  4734  0E26  00F6               	movwf	tolower@c
  4735  0E27  0854               	movf	??_vfpfcnvrt+3,w
  4736  0E28  00F7               	movwf	tolower@c+1
  4737  0E29  319C  2403  318C   	fcall	_tolower
  4738  0E2C  0876               	movf	?_tolower,w
  4739  0E2D  0020               	movlb	0	; select bank0
  4740  0E2E  00D5               	movwf	??_vfpfcnvrt+4
  4741  0E2F  0855               	movf	??_vfpfcnvrt+4,w
  4742  0E30  00E9               	movwf	vfpfcnvrt@ct
  4743  0E31                     l4335:
  4744                           
  4745                           ;C:\Program Files\Microchip\xc8\v2.31\pic\sources\c99\common\doprnt.c: 780:         if (
      +                          ct[0]) {
  4746  0E31  0869               	movf	vfpfcnvrt@ct,w
  4747  0E32  1903               	btfsc	3,2
  4748  0E33  2E35               	goto	u6311
  4749  0E34  2E36               	goto	u6310
  4750  0E35                     u6311:
  4751  0E35  2E75               	goto	l4343
  4752  0E36                     u6310:
  4753  0E36                     l4337:
  4754                           
  4755                           ;C:\Program Files\Microchip\xc8\v2.31\pic\sources\c99\common\doprnt.c: 781:             
      +                          ct[1] = (char)tolower((int)(*fmt)[1]);
  4756  0E36  084F               	movf	vfpfcnvrt@fmt,w
  4757  0E37  0086               	movwf	6
  4758  0E38  0187               	clrf	7
  4759  0E39  3F40               	moviw [0]fsr1
  4760  0E3A  00D1               	movwf	??_vfpfcnvrt
  4761  0E3B  3F41               	moviw [1]fsr1
  4762  0E3C  00D2               	movwf	??_vfpfcnvrt+1
  4763  0E3D  3001               	movlw	1
  4764  0E3E  0751               	addwf	??_vfpfcnvrt,w
  4765  0E3F  0084               	movwf	4
  4766  0E40  0852               	movf	??_vfpfcnvrt+1,w
  4767  0E41  1803               	skipnc
  4768  0E42  0A52               	incf	??_vfpfcnvrt+1,w
  4769  0E43  0085               	movwf	5
  4770  0E44  0800               	movf	0,w	;code access
  4771  0E45  00D3               	movwf	??_vfpfcnvrt+2
  4772  0E46  01D4               	clrf	??_vfpfcnvrt+3
  4773  0E47  0853               	movf	??_vfpfcnvrt+2,w
  4774  0E48  00F6               	movwf	tolower@c
  4775  0E49  0854               	movf	??_vfpfcnvrt+3,w
  4776  0E4A  00F7               	movwf	tolower@c+1
  4777  0E4B  319C  2403  318C   	fcall	_tolower
  4778  0E4E  0876               	movf	?_tolower,w
  4779  0E4F  0020               	movlb	0	; select bank0
  4780  0E50  00D5               	movwf	??_vfpfcnvrt+4
  4781  0E51  0855               	movf	??_vfpfcnvrt+4,w
  4782  0E52  00EA               	movwf	vfpfcnvrt@ct+1
  4783  0E53                     l4339:
  4784                           
  4785                           ;C:\Program Files\Microchip\xc8\v2.31\pic\sources\c99\common\doprnt.c: 782:             
      +                          if (ct[1]) {
  4786  0E53  086A               	movf	vfpfcnvrt@ct+1,w
  4787  0E54  1903               	btfsc	3,2
  4788  0E55  2E57               	goto	u6321
  4789  0E56  2E58               	goto	u6320
  4790  0E57                     u6321:
  4791  0E57  2E75               	goto	l4343
  4792  0E58                     u6320:
  4793  0E58                     l4341:
  4794                           
  4795                           ;C:\Program Files\Microchip\xc8\v2.31\pic\sources\c99\common\doprnt.c: 783:             
      +                              ct[2] = (char)tolower((int)(*fmt)[2]);
  4796  0E58  084F               	movf	vfpfcnvrt@fmt,w
  4797  0E59  0086               	movwf	6
  4798  0E5A  0187               	clrf	7
  4799  0E5B  3F40               	moviw [0]fsr1
  4800  0E5C  00D1               	movwf	??_vfpfcnvrt
  4801  0E5D  3F41               	moviw [1]fsr1
  4802  0E5E  00D2               	movwf	??_vfpfcnvrt+1
  4803  0E5F  3002               	movlw	2
  4804  0E60  0751               	addwf	??_vfpfcnvrt,w
  4805  0E61  0084               	movwf	4
  4806  0E62  0852               	movf	??_vfpfcnvrt+1,w
  4807  0E63  1803               	skipnc
  4808  0E64  0A52               	incf	??_vfpfcnvrt+1,w
  4809  0E65  0085               	movwf	5
  4810  0E66  0800               	movf	0,w	;code access
  4811  0E67  00D3               	movwf	??_vfpfcnvrt+2
  4812  0E68  01D4               	clrf	??_vfpfcnvrt+3
  4813  0E69  0853               	movf	??_vfpfcnvrt+2,w
  4814  0E6A  00F6               	movwf	tolower@c
  4815  0E6B  0854               	movf	??_vfpfcnvrt+3,w
  4816  0E6C  00F7               	movwf	tolower@c+1
  4817  0E6D  319C  2403  318C   	fcall	_tolower
  4818  0E70  0876               	movf	?_tolower,w
  4819  0E71  0020               	movlb	0	; select bank0
  4820  0E72  00D5               	movwf	??_vfpfcnvrt+4
  4821  0E73  0855               	movf	??_vfpfcnvrt+4,w
  4822  0E74  00EB               	movwf	vfpfcnvrt@ct+2
  4823  0E75                     l4343:
  4824                           
  4825                           ;C:\Program Files\Microchip\xc8\v2.31\pic\sources\c99\common\doprnt.c: 847:         if (
      +                          (*fmt[0] == 'd') || (*fmt[0] == 'i')) {
  4826  0E75  084F               	movf	vfpfcnvrt@fmt,w
  4827  0E76  0086               	movwf	6
  4828  0E77  0187               	clrf	7
  4829  0E78  3F40               	moviw [0]fsr1
  4830  0E79  00D1               	movwf	??_vfpfcnvrt
  4831  0E7A  3F41               	moviw [1]fsr1
  4832  0E7B  00D2               	movwf	??_vfpfcnvrt+1
  4833  0E7C  0851               	movf	??_vfpfcnvrt,w
  4834  0E7D  0084               	movwf	4
  4835  0E7E  0852               	movf	??_vfpfcnvrt+1,w
  4836  0E7F  0085               	movwf	5
  4837  0E80  0012               	moviw fsr0++
  4838  0E81  3A64               	xorlw	100
  4839  0E82  1903               	btfsc	3,2
  4840  0E83  2E85               	goto	u6331
  4841  0E84  2E86               	goto	u6330
  4842  0E85                     u6331:
  4843  0E85  2E97               	goto	l4347
  4844  0E86                     u6330:
  4845  0E86                     l4345:
  4846  0E86  084F               	movf	vfpfcnvrt@fmt,w
  4847  0E87  0086               	movwf	6
  4848  0E88  0187               	clrf	7
  4849  0E89  3F40               	moviw [0]fsr1
  4850  0E8A  00D1               	movwf	??_vfpfcnvrt
  4851  0E8B  3F41               	moviw [1]fsr1
  4852  0E8C  00D2               	movwf	??_vfpfcnvrt+1
  4853  0E8D  0851               	movf	??_vfpfcnvrt,w
  4854  0E8E  0084               	movwf	4
  4855  0E8F  0852               	movf	??_vfpfcnvrt+1,w
  4856  0E90  0085               	movwf	5
  4857  0E91  0012               	moviw fsr0++
  4858  0E92  3A69               	xorlw	105
  4859  0E93  1D03               	btfss	3,2
  4860  0E94  2E96               	goto	u6341
  4861  0E95  2E97               	goto	u6340
  4862  0E96                     u6341:
  4863  0E96  2ED3               	goto	l4355
  4864  0E97                     u6340:
  4865  0E97                     l4347:
  4866                           
  4867                           ;C:\Program Files\Microchip\xc8\v2.31\pic\sources\c99\common\doprnt.c: 849:             
      +                          ++*fmt;
  4868  0E97  084F               	movf	vfpfcnvrt@fmt,w
  4869  0E98  0086               	movwf	6
  4870  0E99  0187               	clrf	7
  4871  0E9A  3001               	movlw	1
  4872  0E9B  0781               	addwf	1,f
  4873  0E9C  3141               	addfsr 1,1
  4874  0E9D  1803               	skipnc
  4875  0E9E  0A81               	incf	1,f
  4876  0E9F                     l4349:
  4877                           
  4878                           ;C:\Program Files\Microchip\xc8\v2.31\pic\sources\c99\common\doprnt.c: 850:             
      +                          ll = (long long)(*(int *)__va_arg(*(int **)ap, (int)0));
  4879  0E9F  0850               	movf	vfpfcnvrt@ap,w
  4880  0EA0  0086               	movwf	6
  4881  0EA1  3001               	movlw	1	; select bank2/3
  4882  0EA2  0087               	movwf	7
  4883  0EA3  0801               	movf	1,w
  4884  0EA4  0084               	movwf	4
  4885  0EA5  0185               	clrf	5
  4886  0EA6  3002               	movlw	2
  4887  0EA7  0781               	addwf	1,f
  4888  0EA8  3F00               	moviw [0]fsr0
  4889  0EA9  00D1               	movwf	??_vfpfcnvrt
  4890  0EAA  3F01               	moviw [1]fsr0
  4891  0EAB  00D2               	movwf	??_vfpfcnvrt+1
  4892  0EAC  0851               	movf	??_vfpfcnvrt,w
  4893  0EAD  00D7               	movwf	vfpfcnvrt@ll
  4894  0EAE  0852               	movf	??_vfpfcnvrt+1,w
  4895  0EAF  00D8               	movwf	vfpfcnvrt@ll+1
  4896  0EB0  0D89               	rlf	9,f
  4897  0EB1  3B89               	subwfb	9,f
  4898  0EB2  0989               	comf	9,f
  4899  0EB3  00D9               	movwf	vfpfcnvrt@ll+2
  4900  0EB4  00DA               	movwf	vfpfcnvrt@ll+3
  4901  0EB5  00DB               	movwf	vfpfcnvrt@ll+4
  4902  0EB6  00DC               	movwf	vfpfcnvrt@ll+5
  4903  0EB7  00DD               	movwf	vfpfcnvrt@ll+6
  4904  0EB8  00DE               	movwf	vfpfcnvrt@ll+7
  4905  0EB9                     l4351:
  4906                           
  4907                           ;C:\Program Files\Microchip\xc8\v2.31\pic\sources\c99\common\doprnt.c: 852:             
      +                          return dtoa(fp, ll);
  4908  0EB9  0857               	movf	vfpfcnvrt@ll,w
  4909  0EBA  00B0               	movwf	dtoa@d
  4910  0EBB  0858               	movf	vfpfcnvrt@ll+1,w
  4911  0EBC  00B1               	movwf	dtoa@d+1
  4912  0EBD  0859               	movf	vfpfcnvrt@ll+2,w
  4913  0EBE  00B2               	movwf	dtoa@d+2
  4914  0EBF  085A               	movf	vfpfcnvrt@ll+3,w
  4915  0EC0  00B3               	movwf	dtoa@d+3
  4916  0EC1  085B               	movf	vfpfcnvrt@ll+4,w
  4917  0EC2  00B4               	movwf	dtoa@d+4
  4918  0EC3  085C               	movf	vfpfcnvrt@ll+5,w
  4919  0EC4  00B5               	movwf	dtoa@d+5
  4920  0EC5  085D               	movf	vfpfcnvrt@ll+6,w
  4921  0EC6  00B6               	movwf	dtoa@d+6
  4922  0EC7  085E               	movf	vfpfcnvrt@ll+7,w
  4923  0EC8  00B7               	movwf	dtoa@d+7
  4924  0EC9  086D               	movf	vfpfcnvrt@fp,w
  4925  0ECA  3194  24DC  318C   	fcall	_dtoa
  4926  0ECD  0020               	movlb	0	; select bank0
  4927  0ECE  0831               	movf	?_dtoa+1,w
  4928  0ECF  00D0               	movwf	?_vfpfcnvrt+1
  4929  0ED0  0830               	movf	?_dtoa,w
  4930  0ED1  00CF               	movwf	?_vfpfcnvrt
  4931  0ED2  2FFF               	goto	l1069
  4932  0ED3                     l4355:
  4933                           
  4934                           ;C:\Program Files\Microchip\xc8\v2.31\pic\sources\c99\common\doprnt.c: 942:         if (
      +                          ct[0] == 'f') {
  4935  0ED3  3066               	movlw	102
  4936  0ED4  0669               	xorwf	vfpfcnvrt@ct,w
  4937  0ED5  1D03               	btfss	3,2
  4938  0ED6  2ED8               	goto	u6351
  4939  0ED7  2ED9               	goto	u6350
  4940  0ED8                     u6351:
  4941  0ED8  2F17               	goto	l4367
  4942  0ED9                     u6350:
  4943  0ED9                     l4357:
  4944                           
  4945                           ;C:\Program Files\Microchip\xc8\v2.31\pic\sources\c99\common\doprnt.c: 944:             
      +                          c = (*fmt)[0];
  4946  0ED9  084F               	movf	vfpfcnvrt@fmt,w
  4947  0EDA  0086               	movwf	6
  4948  0EDB  0187               	clrf	7
  4949  0EDC  3F40               	moviw [0]fsr1
  4950  0EDD  00D1               	movwf	??_vfpfcnvrt
  4951  0EDE  3F41               	moviw [1]fsr1
  4952  0EDF  00D2               	movwf	??_vfpfcnvrt+1
  4953  0EE0  0851               	movf	??_vfpfcnvrt,w
  4954  0EE1  0084               	movwf	4
  4955  0EE2  0852               	movf	??_vfpfcnvrt+1,w
  4956  0EE3  0085               	movwf	5
  4957  0EE4  0800               	movf	0,w	;code access
  4958  0EE5  00D3               	movwf	??_vfpfcnvrt+2
  4959  0EE6  0853               	movf	??_vfpfcnvrt+2,w
  4960  0EE7  00EC               	movwf	vfpfcnvrt@c
  4961  0EE8                     l4359:
  4962                           
  4963                           ;C:\Program Files\Microchip\xc8\v2.31\pic\sources\c99\common\doprnt.c: 945:             
      +                          ++*fmt;
  4964  0EE8  084F               	movf	vfpfcnvrt@fmt,w
  4965  0EE9  0086               	movwf	6
  4966  0EEA  0187               	clrf	7
  4967  0EEB  3001               	movlw	1
  4968  0EEC  0781               	addwf	1,f
  4969  0EED  3141               	addfsr 1,1
  4970  0EEE  1803               	skipnc
  4971  0EEF  0A81               	incf	1,f
  4972  0EF0                     l4361:
  4973                           
  4974                           ;C:\Program Files\Microchip\xc8\v2.31\pic\sources\c99\common\doprnt.c: 946:             
      +                          f = (long double)(*(double *)__va_arg(*(double **)ap, (double)0));
  4975  0EF0  0850               	movf	vfpfcnvrt@ap,w
  4976  0EF1  0086               	movwf	6
  4977  0EF2  3001               	movlw	1	; select bank2/3
  4978  0EF3  0087               	movwf	7
  4979  0EF4  0801               	movf	1,w
  4980  0EF5  0084               	movwf	4
  4981  0EF6  0185               	clrf	5
  4982  0EF7  3004               	movlw	4
  4983  0EF8  0781               	addwf	1,f
  4984  0EF9  3F00               	moviw [0]fsr0
  4985  0EFA  00E5               	movwf	vfpfcnvrt@f
  4986  0EFB  3F01               	moviw [1]fsr0
  4987  0EFC  00E6               	movwf	vfpfcnvrt@f+1
  4988  0EFD  3F02               	moviw [2]fsr0
  4989  0EFE  00E7               	movwf	vfpfcnvrt@f+2
  4990  0EFF  3F03               	moviw [3]fsr0
  4991  0F00  00E8               	movwf	vfpfcnvrt@f+3
  4992  0F01                     l4363:
  4993                           
  4994                           ;C:\Program Files\Microchip\xc8\v2.31\pic\sources\c99\common\doprnt.c: 948:             
      +                          return efgtoa(fp, f, c);
  4995  0F01  0868               	movf	vfpfcnvrt@f+3,w
  4996  0F02  00C9               	movwf	efgtoa@f+3
  4997  0F03  0867               	movf	vfpfcnvrt@f+2,w
  4998  0F04  00C8               	movwf	efgtoa@f+2
  4999  0F05  0866               	movf	vfpfcnvrt@f+1,w
  5000  0F06  00C7               	movwf	efgtoa@f+1
  5001  0F07  0865               	movf	vfpfcnvrt@f,w
  5002  0F08  00C6               	movwf	efgtoa@f
  5003  0F09  086C               	movf	vfpfcnvrt@c,w
  5004  0F0A  00D1               	movwf	??_vfpfcnvrt
  5005  0F0B  0851               	movf	??_vfpfcnvrt,w
  5006  0F0C  00CA               	movwf	efgtoa@c
  5007  0F0D  086D               	movf	vfpfcnvrt@fp,w
  5008  0F0E  3180  20B0  318C   	fcall	_efgtoa
  5009  0F11  0020               	movlb	0	; select bank0
  5010  0F12  0847               	movf	?_efgtoa+1,w
  5011  0F13  00D0               	movwf	?_vfpfcnvrt+1
  5012  0F14  0846               	movf	?_efgtoa,w
  5013  0F15  00CF               	movwf	?_vfpfcnvrt
  5014  0F16  2FFF               	goto	l1069
  5015  0F17                     l4367:
  5016                           
  5017                           ;C:\Program Files\Microchip\xc8\v2.31\pic\sources\c99\common\doprnt.c: 950:         if (
      +                          !strncmp(ct, "lf", ((sizeof("lf")/sizeof("lf"[0]))-1))) {
  5018  0F17  3034               	movlw	low (STR_11| (0+32768))
  5019  0F18  00F0               	movwf	strncmp@_r
  5020  0F19  30A0               	movlw	high (STR_11| (0+32768))
  5021  0F1A  00F1               	movwf	strncmp@_r+1
  5022  0F1B  3002               	movlw	2
  5023  0F1C  00F2               	movwf	strncmp@n
  5024  0F1D  3000               	movlw	0
  5025  0F1E  00F3               	movwf	strncmp@n+1
  5026  0F1F  3069               	movlw	(low (vfpfcnvrt@ct| 0))& (0+255)
  5027  0F20  319D  25A7  318C   	fcall	_strncmp
  5028  0F23  0870               	movf	?_strncmp,w
  5029  0F24  0471               	iorwf	?_strncmp+1,w
  5030  0F25  1D03               	btfss	3,2
  5031  0F26  2F28               	goto	u6361
  5032  0F27  2F29               	goto	u6360
  5033  0F28                     u6361:
  5034  0F28  2FA6               	goto	l4385
  5035  0F29                     u6360:
  5036  0F29                     l4369:
  5037                           
  5038                           ;C:\Program Files\Microchip\xc8\v2.31\pic\sources\c99\common\doprnt.c: 953:             
      +                          if ((0 ? isupper((int)(*fmt)[0]) : ((unsigned)((int)(*fmt)[0])-'A') < 26)) {
  5039  0F29  0020               	movlb	0	; select bank0
  5040  0F2A  084F               	movf	vfpfcnvrt@fmt,w
  5041  0F2B  0086               	movwf	6
  5042  0F2C  0187               	clrf	7
  5043  0F2D  3F40               	moviw [0]fsr1
  5044  0F2E  00D1               	movwf	??_vfpfcnvrt
  5045  0F2F  3F41               	moviw [1]fsr1
  5046  0F30  00D2               	movwf	??_vfpfcnvrt+1
  5047  0F31  3001               	movlw	1
  5048  0F32  0751               	addwf	??_vfpfcnvrt,w
  5049  0F33  0084               	movwf	4
  5050  0F34  0852               	movf	??_vfpfcnvrt+1,w
  5051  0F35  1803               	skipnc
  5052  0F36  0A52               	incf	??_vfpfcnvrt+1,w
  5053  0F37  0085               	movwf	5
  5054  0F38  0800               	movf	0,w	;code access
  5055  0F39  00D3               	movwf	??_vfpfcnvrt+2
  5056  0F3A  0853               	movf	??_vfpfcnvrt+2,w
  5057  0F3B  00EC               	movwf	vfpfcnvrt@c
  5058  0F3C  084F               	movf	vfpfcnvrt@fmt,w
  5059  0F3D  0086               	movwf	6
  5060  0F3E  0187               	clrf	7
  5061  0F3F  3F40               	moviw [0]fsr1
  5062  0F40  00D1               	movwf	??_vfpfcnvrt
  5063  0F41  3F41               	moviw [1]fsr1
  5064  0F42  00D2               	movwf	??_vfpfcnvrt+1
  5065  0F43  0851               	movf	??_vfpfcnvrt,w
  5066  0F44  0084               	movwf	4
  5067  0F45  0852               	movf	??_vfpfcnvrt+1,w
  5068  0F46  0085               	movwf	5
  5069  0F47  0800               	movf	0,w	;code access
  5070  0F48  3EBF               	addlw	191
  5071  0F49  00D3               	movwf	??_vfpfcnvrt+2
  5072  0F4A  30FF               	movlw	255
  5073  0F4B  1803               	skipnc
  5074  0F4C  3000               	movlw	0
  5075  0F4D  00D4               	movwf	??_vfpfcnvrt+3
  5076  0F4E  3000               	movlw	0
  5077  0F4F  0254               	subwf	??_vfpfcnvrt+3,w
  5078  0F50  301A               	movlw	26
  5079  0F51  1903               	skipnz
  5080  0F52  0253               	subwf	??_vfpfcnvrt+2,w
  5081  0F53  1C03               	skipc
  5082  0F54  2F56               	goto	u6371
  5083  0F55  2F58               	goto	u6370
  5084  0F56                     u6371:
  5085  0F56  3001               	movlw	1
  5086  0F57  2F59               	goto	u6380
  5087  0F58                     u6370:
  5088  0F58  3000               	movlw	0
  5089  0F59                     u6380:
  5090  0F59  00D5               	movwf	??_vfpfcnvrt+4
  5091  0F5A  01D6               	clrf	??_vfpfcnvrt+5
  5092  0F5B  0855               	movf	??_vfpfcnvrt+4,w
  5093  0F5C  00E3               	movwf	_vfpfcnvrt$1010
  5094  0F5D  0856               	movf	??_vfpfcnvrt+5,w
  5095  0F5E  00E4               	movwf	_vfpfcnvrt$1010+1
  5096  0F5F                     l4373:
  5097  0F5F  0863               	movf	_vfpfcnvrt$1010,w
  5098  0F60  0464               	iorwf	_vfpfcnvrt$1010+1,w
  5099  0F61  1903               	btfsc	3,2
  5100  0F62  2F64               	goto	u6391
  5101  0F63  2F65               	goto	u6390
  5102  0F64                     u6391:
  5103  0F64  2F77               	goto	l4377
  5104  0F65                     u6390:
  5105  0F65                     l4375:
  5106                           
  5107                           ;C:\Program Files\Microchip\xc8\v2.31\pic\sources\c99\common\doprnt.c: 954:             
      +                              f = (*(long double *)__va_arg(*(long double **)ap, (long double)0));
  5108  0F65  0850               	movf	vfpfcnvrt@ap,w
  5109  0F66  0086               	movwf	6
  5110  0F67  3001               	movlw	1	; select bank2/3
  5111  0F68  0087               	movwf	7
  5112  0F69  0801               	movf	1,w
  5113  0F6A  0084               	movwf	4
  5114  0F6B  0185               	clrf	5
  5115  0F6C  3004               	movlw	4
  5116  0F6D  0781               	addwf	1,f
  5117  0F6E  3F00               	moviw [0]fsr0
  5118  0F6F  00E5               	movwf	vfpfcnvrt@f
  5119  0F70  3F01               	moviw [1]fsr0
  5120  0F71  00E6               	movwf	vfpfcnvrt@f+1
  5121  0F72  3F02               	moviw [2]fsr0
  5122  0F73  00E7               	movwf	vfpfcnvrt@f+2
  5123  0F74  3F03               	moviw [3]fsr0
  5124  0F75  00E8               	movwf	vfpfcnvrt@f+3
  5125                           
  5126                           ;C:\Program Files\Microchip\xc8\v2.31\pic\sources\c99\common\doprnt.c: 955:             
      +                          } else {
  5127  0F76  2F88               	goto	l4379
  5128  0F77                     l4377:
  5129                           
  5130                           ;C:\Program Files\Microchip\xc8\v2.31\pic\sources\c99\common\doprnt.c: 956:             
      +                              f = (long double)(*(double *)__va_arg(*(double **)ap, (double)0));
  5131  0F77  0850               	movf	vfpfcnvrt@ap,w
  5132  0F78  0086               	movwf	6
  5133  0F79  3001               	movlw	1	; select bank2/3
  5134  0F7A  0087               	movwf	7
  5135  0F7B  0801               	movf	1,w
  5136  0F7C  0084               	movwf	4
  5137  0F7D  0185               	clrf	5
  5138  0F7E  3004               	movlw	4
  5139  0F7F  0781               	addwf	1,f
  5140  0F80  3F00               	moviw [0]fsr0
  5141  0F81  00E5               	movwf	vfpfcnvrt@f
  5142  0F82  3F01               	moviw [1]fsr0
  5143  0F83  00E6               	movwf	vfpfcnvrt@f+1
  5144  0F84  3F02               	moviw [2]fsr0
  5145  0F85  00E7               	movwf	vfpfcnvrt@f+2
  5146  0F86  3F03               	moviw [3]fsr0
  5147  0F87  00E8               	movwf	vfpfcnvrt@f+3
  5148  0F88                     l4379:
  5149                           
  5150                           ;C:\Program Files\Microchip\xc8\v2.31\pic\sources\c99\common\doprnt.c: 958:             
      +                          *fmt += ((sizeof("lf")/sizeof("lf"[0]))-1);
  5151  0F88  084F               	movf	vfpfcnvrt@fmt,w
  5152  0F89  0086               	movwf	6
  5153  0F8A  0187               	clrf	7
  5154  0F8B  3002               	movlw	2
  5155  0F8C  0781               	addwf	1,f
  5156  0F8D  3141               	addfsr 1,1
  5157  0F8E  1803               	skipnc
  5158  0F8F  0A81               	incf	1,f
  5159  0F90                     l4381:
  5160                           
  5161                           ;C:\Program Files\Microchip\xc8\v2.31\pic\sources\c99\common\doprnt.c: 960:             
      +                          return efgtoa(fp, f, c);
  5162  0F90  0868               	movf	vfpfcnvrt@f+3,w
  5163  0F91  00C9               	movwf	efgtoa@f+3
  5164  0F92  0867               	movf	vfpfcnvrt@f+2,w
  5165  0F93  00C8               	movwf	efgtoa@f+2
  5166  0F94  0866               	movf	vfpfcnvrt@f+1,w
  5167  0F95  00C7               	movwf	efgtoa@f+1
  5168  0F96  0865               	movf	vfpfcnvrt@f,w
  5169  0F97  00C6               	movwf	efgtoa@f
  5170  0F98  086C               	movf	vfpfcnvrt@c,w
  5171  0F99  00D1               	movwf	??_vfpfcnvrt
  5172  0F9A  0851               	movf	??_vfpfcnvrt,w
  5173  0F9B  00CA               	movwf	efgtoa@c
  5174  0F9C  086D               	movf	vfpfcnvrt@fp,w
  5175  0F9D  3180  20B0  318C   	fcall	_efgtoa
  5176  0FA0  0020               	movlb	0	; select bank0
  5177  0FA1  0847               	movf	?_efgtoa+1,w
  5178  0FA2  00D0               	movwf	?_vfpfcnvrt+1
  5179  0FA3  0846               	movf	?_efgtoa,w
  5180  0FA4  00CF               	movwf	?_vfpfcnvrt
  5181  0FA5  2FFF               	goto	l1069
  5182  0FA6                     l4385:
  5183                           
  5184                           ;C:\Program Files\Microchip\xc8\v2.31\pic\sources\c99\common\doprnt.c: 1372:         if 
      +                          ((*fmt)[0] == '%') {
  5185  0FA6  0020               	movlb	0	; select bank0
  5186  0FA7  084F               	movf	vfpfcnvrt@fmt,w
  5187  0FA8  0086               	movwf	6
  5188  0FA9  0187               	clrf	7
  5189  0FAA  3F40               	moviw [0]fsr1
  5190  0FAB  00D1               	movwf	??_vfpfcnvrt
  5191  0FAC  3F41               	moviw [1]fsr1
  5192  0FAD  00D2               	movwf	??_vfpfcnvrt+1
  5193  0FAE  0851               	movf	??_vfpfcnvrt,w
  5194  0FAF  0084               	movwf	4
  5195  0FB0  0852               	movf	??_vfpfcnvrt+1,w
  5196  0FB1  0085               	movwf	5
  5197  0FB2  0012               	moviw fsr0++
  5198  0FB3  3A25               	xorlw	37
  5199  0FB4  1D03               	btfss	3,2
  5200  0FB5  2FB7               	goto	u6401
  5201  0FB6  2FB8               	goto	u6400
  5202  0FB7                     u6401:
  5203  0FB7  2FD1               	goto	l4395
  5204  0FB8                     u6400:
  5205  0FB8                     l4387:
  5206                           
  5207                           ;C:\Program Files\Microchip\xc8\v2.31\pic\sources\c99\common\doprnt.c: 1373:            
      +                           ++*fmt;
  5208  0FB8  084F               	movf	vfpfcnvrt@fmt,w
  5209  0FB9  0086               	movwf	6
  5210  0FBA  0187               	clrf	7
  5211  0FBB  3001               	movlw	1
  5212  0FBC  0781               	addwf	1,f
  5213  0FBD  3141               	addfsr 1,1
  5214  0FBE  1803               	skipnc
  5215  0FBF  0A81               	incf	1,f
  5216  0FC0                     l4389:
  5217                           
  5218                           ;C:\Program Files\Microchip\xc8\v2.31\pic\sources\c99\common\doprnt.c: 1374:            
      +                           fputc((int)'%', fp);
  5219  0FC0  3025               	movlw	37
  5220  0FC1  00F0               	movwf	fputc@c
  5221  0FC2  3000               	movlw	0
  5222  0FC3  00F1               	movwf	fputc@c+1
  5223  0FC4  086D               	movf	vfpfcnvrt@fp,w
  5224  0FC5  00D1               	movwf	??_vfpfcnvrt
  5225  0FC6  0851               	movf	??_vfpfcnvrt,w
  5226  0FC7  00F2               	movwf	fputc@fp
  5227  0FC8  319D  2551  318C   	fcall	_fputc
  5228  0FCB                     l4391:
  5229                           
  5230                           ;C:\Program Files\Microchip\xc8\v2.31\pic\sources\c99\common\doprnt.c: 1375:            
      +                           return 1;
  5231  0FCB  3001               	movlw	1
  5232  0FCC  0020               	movlb	0	; select bank0
  5233  0FCD  00CF               	movwf	?_vfpfcnvrt
  5234  0FCE  3000               	movlw	0
  5235  0FCF  00D0               	movwf	?_vfpfcnvrt+1
  5236  0FD0  2FFF               	goto	l1069
  5237  0FD1                     l4395:
  5238                           
  5239                           ;C:\Program Files\Microchip\xc8\v2.31\pic\sources\c99\common\doprnt.c: 1379:         ++*
      +                          fmt;
  5240  0FD1  084F               	movf	vfpfcnvrt@fmt,w
  5241  0FD2  0086               	movwf	6
  5242  0FD3  0187               	clrf	7
  5243  0FD4  3001               	movlw	1
  5244  0FD5  0781               	addwf	1,f
  5245  0FD6  3141               	addfsr 1,1
  5246  0FD7  1803               	skipnc
  5247  0FD8  0A81               	incf	1,f
  5248  0FD9                     l4397:
  5249                           
  5250                           ;C:\Program Files\Microchip\xc8\v2.31\pic\sources\c99\common\doprnt.c: 1380:         ret
      +                          urn 0;
  5251  0FD9  01CF               	clrf	?_vfpfcnvrt
  5252  0FDA  01D0               	clrf	?_vfpfcnvrt+1
  5253  0FDB  2FFF               	goto	l1069
  5254  0FDC                     l4401:
  5255                           
  5256                           ;C:\Program Files\Microchip\xc8\v2.31\pic\sources\c99\common\doprnt.c: 1384:     fputc((
      +                          int)(*fmt)[0], fp);
  5257  0FDC  084F               	movf	vfpfcnvrt@fmt,w
  5258  0FDD  0086               	movwf	6
  5259  0FDE  0187               	clrf	7
  5260  0FDF  3F40               	moviw [0]fsr1
  5261  0FE0  00D1               	movwf	??_vfpfcnvrt
  5262  0FE1  3F41               	moviw [1]fsr1
  5263  0FE2  00D2               	movwf	??_vfpfcnvrt+1
  5264  0FE3  0851               	movf	??_vfpfcnvrt,w
  5265  0FE4  0084               	movwf	4
  5266  0FE5  0852               	movf	??_vfpfcnvrt+1,w
  5267  0FE6  0085               	movwf	5
  5268  0FE7  0800               	movf	0,w	;code access
  5269  0FE8  00D3               	movwf	??_vfpfcnvrt+2
  5270  0FE9  01D4               	clrf	??_vfpfcnvrt+3
  5271  0FEA  0853               	movf	??_vfpfcnvrt+2,w
  5272  0FEB  00F0               	movwf	fputc@c
  5273  0FEC  0854               	movf	??_vfpfcnvrt+3,w
  5274  0FED  00F1               	movwf	fputc@c+1
  5275  0FEE  086D               	movf	vfpfcnvrt@fp,w
  5276  0FEF  00D5               	movwf	??_vfpfcnvrt+4
  5277  0FF0  0855               	movf	??_vfpfcnvrt+4,w
  5278  0FF1  00F2               	movwf	fputc@fp
  5279  0FF2  319D  2551  318C   	fcall	_fputc
  5280  0FF5                     l4403:
  5281                           
  5282                           ;C:\Program Files\Microchip\xc8\v2.31\pic\sources\c99\common\doprnt.c: 1385:     ++*fmt;
  5283  0FF5  0020               	movlb	0	; select bank0
  5284  0FF6  084F               	movf	vfpfcnvrt@fmt,w
  5285  0FF7  0086               	movwf	6
  5286  0FF8  0187               	clrf	7
  5287  0FF9  3001               	movlw	1
  5288  0FFA  0781               	addwf	1,f
  5289  0FFB  3141               	addfsr 1,1
  5290  0FFC  1803               	skipnc
  5291  0FFD  0A81               	incf	1,f
  5292  0FFE  2FCB               	goto	l4391
  5293  0FFF                     l1069:
  5294  0FFF  0008               	return
  5295  1000                     __end_of_vfpfcnvrt:
  5296                           
  5297                           	psect	text4
  5298  1DA7                     __ptext4:	
  5299 ;; *************** function _strncmp *****************
  5300 ;; Defined at:
  5301 ;;		line 3 in file "C:\Program Files\Microchip\xc8\v2.31\pic\sources\c99\common\strncmp.c"
  5302 ;; Parameters:    Size  Location     Type
  5303 ;;  _l              1    wreg     PTR const unsigned char 
  5304 ;;		 -> vfpfcnvrt@ct(3), 
  5305 ;;  _r              2    0[COMMON] PTR const unsigned char 
  5306 ;;		 -> STR_13(3), 
  5307 ;;  n               2    2[COMMON] unsigned int 
  5308 ;; Auto vars:     Size  Location     Type
  5309 ;;  _l              1    5[COMMON] PTR const unsigned char 
  5310 ;;		 -> vfpfcnvrt@ct(3), 
  5311 ;;  r               2    6[COMMON] PTR const unsigned char 
  5312 ;;		 -> STR_13(3), 
  5313 ;;  l               1    8[COMMON] PTR const unsigned char 
  5314 ;;		 -> vfpfcnvrt@ct(3), 
  5315 ;; Return value:  Size  Location     Type
  5316 ;;                  2    0[COMMON] int 
  5317 ;; Registers used:
  5318 ;;		wreg, fsr0l, fsr0h, fsr1l, fsr1h, status,2, status,0, pclath
  5319 ;; Tracked objects:
  5320 ;;		On entry : 0/0
  5321 ;;		On exit  : 0/0
  5322 ;;		Unchanged: 0/0
  5323 ;; Data sizes:     COMMON   BANK0   BANK1   BANK2   BANK3   BANK4   BANK5   BANK6   BANK7   BANK8   BANK9  BANK10  BANK1
      +1  BANK12  BANK13  BANK14  BANK15  BANK16  BANK17  BANK18  BANK19  BANK20  BANK21  BANK22  BANK23  BANK24  BANK25
  5324 ;;      Params:         4       0       0       0       0       0       0       0       0       0       0       0       
      +0       0       0       0       0       0       0       0       0       0       0       0       0       0       0
  5325 ;;      Locals:         4       0       0       0       0       0       0       0       0       0       0       0       
      +0       0       0       0       0       0       0       0       0       0       0       0       0       0       0
  5326 ;;      Temps:          1       0       0       0       0       0       0       0       0       0       0       0       
      +0       0       0       0       0       0       0       0       0       0       0       0       0       0       0
  5327 ;;      Totals:         9       0       0       0       0       0       0       0       0       0       0       0       
      +0       0       0       0       0       0       0       0       0       0       0       0       0       0       0
  5328 ;;Total ram usage:        9 bytes
  5329 ;; Hardware stack levels used:    1
  5330 ;; This function calls:
  5331 ;;		Nothing
  5332 ;; This function is called by:
  5333 ;;		_vfpfcnvrt
  5334 ;; This function uses a non-reentrant model
  5335 ;;
  5336                           
  5337                           
  5338                           ;psect for function _strncmp
  5339  1DA7                     _strncmp:
  5340                           
  5341                           ;incstack = 0
  5342                           ; Regs used in _strncmp: [wreg-fsr1h+status,2+status,0+pclath]
  5343                           ;strncmp@_l stored from wreg
  5344  1DA7  00F5               	movwf	strncmp@_l
  5345  1DA8                     l4249:
  5346  1DA8  0875               	movf	strncmp@_l,w
  5347  1DA9  00F4               	movwf	??_strncmp
  5348  1DAA  0874               	movf	??_strncmp,w
  5349  1DAB  00F8               	movwf	strncmp@l
  5350  1DAC  0871               	movf	strncmp@_r+1,w
  5351  1DAD  00F7               	movwf	strncmp@r+1
  5352  1DAE  0870               	movf	strncmp@_r,w
  5353  1DAF  00F6               	movwf	strncmp@r
  5354  1DB0                     l4251:
  5355  1DB0  3001               	movlw	1
  5356  1DB1  02F2               	subwf	strncmp@n,f
  5357  1DB2  3000               	movlw	0
  5358  1DB3  3BF3               	subwfb	strncmp@n+1,f
  5359  1DB4  0A72               	incf	strncmp@n,w
  5360  1DB5  1D03               	skipz
  5361  1DB6  2DBB               	goto	u6151
  5362  1DB7  0A73               	incf	strncmp@n+1,w
  5363  1DB8  1D03               	btfss	3,2
  5364  1DB9  2DBB               	goto	u6151
  5365  1DBA  2DBC               	goto	u6150
  5366  1DBB                     u6151:
  5367  1DBB  2DCB               	goto	l4263
  5368  1DBC                     u6150:
  5369  1DBC                     l4253:
  5370  1DBC  01F0               	clrf	?_strncmp
  5371  1DBD  01F1               	clrf	?_strncmp+1
  5372  1DBE  2DFE               	goto	l1205
  5373  1DBF                     l4257:
  5374  1DBF  3001               	movlw	1
  5375  1DC0  00F4               	movwf	??_strncmp
  5376  1DC1  0874               	movf	??_strncmp,w
  5377  1DC2  07F8               	addwf	strncmp@l,f
  5378  1DC3                     l4259:
  5379  1DC3  3001               	movlw	1
  5380  1DC4  07F6               	addwf	strncmp@r,f
  5381  1DC5  3000               	movlw	0
  5382  1DC6  3DF7               	addwfc	strncmp@r+1,f
  5383  1DC7                     l4261:
  5384  1DC7  3001               	movlw	1
  5385  1DC8  02F2               	subwf	strncmp@n,f
  5386  1DC9  3000               	movlw	0
  5387  1DCA  3BF3               	subwfb	strncmp@n+1,f
  5388  1DCB                     l4263:
  5389  1DCB  0878               	movf	strncmp@l,w
  5390  1DCC  0086               	movwf	6
  5391  1DCD  0187               	clrf	7
  5392  1DCE  0801               	movf	1,w
  5393  1DCF  1903               	btfsc	3,2
  5394  1DD0  2DD2               	goto	u6161
  5395  1DD1  2DD3               	goto	u6160
  5396  1DD2                     u6161:
  5397  1DD2  2DF1               	goto	l4271
  5398  1DD3                     u6160:
  5399  1DD3                     l4265:
  5400  1DD3  0876               	movf	strncmp@r,w
  5401  1DD4  0084               	movwf	4
  5402  1DD5  0877               	movf	strncmp@r+1,w
  5403  1DD6  0085               	movwf	5
  5404  1DD7  0012               	moviw fsr0++
  5405  1DD8  1903               	btfsc	3,2
  5406  1DD9  2DDB               	goto	u6171
  5407  1DDA  2DDC               	goto	u6170
  5408  1DDB                     u6171:
  5409  1DDB  2DF1               	goto	l4271
  5410  1DDC                     u6170:
  5411  1DDC                     l4267:
  5412  1DDC  0872               	movf	strncmp@n,w
  5413  1DDD  0473               	iorwf	strncmp@n+1,w
  5414  1DDE  1903               	btfsc	3,2
  5415  1DDF  2DE1               	goto	u6181
  5416  1DE0  2DE2               	goto	u6180
  5417  1DE1                     u6181:
  5418  1DE1  2DF1               	goto	l4271
  5419  1DE2                     u6180:
  5420  1DE2                     l4269:
  5421  1DE2  0876               	movf	strncmp@r,w
  5422  1DE3  0084               	movwf	4
  5423  1DE4  0877               	movf	strncmp@r+1,w
  5424  1DE5  0085               	movwf	5
  5425  1DE6  0800               	movf	0,w	;code access
  5426  1DE7  00F4               	movwf	??_strncmp
  5427  1DE8  0878               	movf	strncmp@l,w
  5428  1DE9  0086               	movwf	6
  5429  1DEA  0187               	clrf	7
  5430  1DEB  0801               	movf	1,w
  5431  1DEC  0674               	xorwf	??_strncmp,w
  5432  1DED  1903               	skipnz
  5433  1DEE  2DF0               	goto	u6191
  5434  1DEF  2DF1               	goto	u6190
  5435  1DF0                     u6191:
  5436  1DF0  2DBF               	goto	l4257
  5437  1DF1                     u6190:
  5438  1DF1                     l4271:
  5439  1DF1  0878               	movf	strncmp@l,w
  5440  1DF2  0086               	movwf	6
  5441  1DF3  0187               	clrf	7
  5442  1DF4  0876               	movf	strncmp@r,w
  5443  1DF5  0084               	movwf	4
  5444  1DF6  0877               	movf	strncmp@r+1,w
  5445  1DF7  0085               	movwf	5
  5446  1DF8  0800               	movf	0,w	;code access
  5447  1DF9  0201               	subwf	1,w
  5448  1DFA  00F0               	movwf	?_strncmp
  5449  1DFB  01F1               	clrf	?_strncmp+1
  5450  1DFC  1C03               	skipc
  5451  1DFD  03F1               	decf	?_strncmp+1,f
  5452  1DFE                     l1205:
  5453  1DFE  0008               	return
  5454  1DFF                     __end_of_strncmp:
  5455                           
  5456                           	psect	text5
  5457  00B0                     __ptext5:	
  5458 ;; *************** function _efgtoa *****************
  5459 ;; Defined at:
  5460 ;;		line 332 in file "C:\Program Files\Microchip\xc8\v2.31\pic\sources\c99\common\doprnt.c"
  5461 ;; Parameters:    Size  Location     Type
  5462 ;;  fp              1    wreg     PTR struct _IO_FILE
  5463 ;;		 -> sprintf@f(5), 
  5464 ;;  f               4   38[BANK0 ] PTR struct _IO_FILE
  5465 ;;  c               1   42[BANK0 ] unsigned char 
  5466 ;; Auto vars:     Size  Location     Type
  5467 ;;  fp              1   28[BANK1 ] PTR struct _IO_FILE
  5468 ;;		 -> sprintf@f(5), 
  5469 ;;  u               4   53[BANK1 ] PTR struct _IO_FILE
  5470 ;;  g               4   45[BANK1 ] PTR struct _IO_FILE
  5471 ;;  l               4   39[BANK1 ] PTR struct _IO_FILE
  5472 ;;  h               4   35[BANK1 ] PTR struct _IO_FILE
  5473 ;;  ou              4   20[BANK1 ] PTR struct _IO_FILE
  5474 ;;  n               2   51[BANK1 ] int 
  5475 ;;  e               2   49[BANK1 ] int 
  5476 ;;  i               2   43[BANK1 ] int 
  5477 ;;  w               2   31[BANK1 ] int 
  5478 ;;  p               2   29[BANK1 ] int 
  5479 ;;  sign            2   26[BANK1 ] int 
  5480 ;;  d               2   24[BANK1 ] int 
  5481 ;;  m               2   18[BANK1 ] int 
  5482 ;;  ne              2   16[BANK1 ] int 
  5483 ;;  pp              2   14[BANK1 ] int 
  5484 ;;  t               2   12[BANK1 ] int 
  5485 ;;  mode            1   34[BANK1 ] unsigned char 
  5486 ;;  nmode           1   33[BANK1 ] unsigned char 
  5487 ;; Return value:  Size  Location     Type
  5488 ;;                  2   38[BANK0 ] int 
  5489 ;; Registers used:
  5490 ;;		wreg, fsr0l, fsr0h, fsr1l, fsr1h, status,2, status,0, pclath, cstack
  5491 ;; Tracked objects:
  5492 ;;		On entry : 0/0
  5493 ;;		On exit  : 0/0
  5494 ;;		Unchanged: 0/0
  5495 ;; Data sizes:     COMMON   BANK0   BANK1   BANK2   BANK3   BANK4   BANK5   BANK6   BANK7   BANK8   BANK9  BANK10  BANK1
      +1  BANK12  BANK13  BANK14  BANK15  BANK16  BANK17  BANK18  BANK19  BANK20  BANK21  BANK22  BANK23  BANK24  BANK25
  5496 ;;      Params:         0       5       0       0       0       0       0       0       0       0       0       0       
      +0       0       0       0       0       0       0       0       0       0       0       0       0       0       0
  5497 ;;      Locals:         0       0      57       0       0       0       0       0       0       0       0       0       
      +0       0       0       0       0       0       0       0       0       0       0       0       0       0       0
  5498 ;;      Temps:          0       4       0       0       0       0       0       0       0       0       0       0       
      +0       0       0       0       0       0       0       0       0       0       0       0       0       0       0
  5499 ;;      Totals:         0       9      57       0       0       0       0       0       0       0       0       0       
      +0       0       0       0       0       0       0       0       0       0       0       0       0       0       0
  5500 ;;Total ram usage:       66 bytes
  5501 ;; Hardware stack levels used:    1
  5502 ;; Hardware stack levels required when called:    4
  5503 ;; This function calls:
  5504 ;;		___awdiv
  5505 ;;		___awmod
  5506 ;;		___fladd
  5507 ;;		___fldiv
  5508 ;;		___fleq
  5509 ;;		___flge
  5510 ;;		___flmul
  5511 ;;		___flneg
  5512 ;;		___flsub
  5513 ;;		___fltol
  5514 ;;		___fpclassifyf
  5515 ;;		_floorf
  5516 ;;		_isupper
  5517 ;;		_pad
  5518 ;;		_strcpy
  5519 ;;		_tolower
  5520 ;; This function is called by:
  5521 ;;		_vfpfcnvrt
  5522 ;; This function uses a non-reentrant model
  5523 ;;
  5524                           
  5525                           
  5526                           ;psect for function _efgtoa
  5527  00B0                     _efgtoa:
  5528                           
  5529                           ;incstack = 0
  5530                           ; Regs used in _efgtoa: [wreg-fsr1h+status,2+status,0+pclath+cstack]
  5531                           ;efgtoa@fp stored from wreg
  5532  00B0  0021               	movlb	1	; select bank1
  5533  00B1  00BC               	movwf	efgtoa@fp^(0+128)
  5534  00B2                     l3903:
  5535                           
  5536                           ;C:\Program Files\Microchip\xc8\v2.31\pic\sources\c99\common\doprnt.c: 332: static int e
      +                          fgtoa(FILE *fp, long double f, char c);C:\Program Files\Microchip\xc8\v2.31\pic\sources\
      +                          c99\common\doprnt.c: 333: {;C:\Program Files\Microchip\xc8\v2.31\pic\sources\c99\common\
      +                          doprnt.c: 334:     char mode, nmode;;C:\Program Files\Microchip\xc8\v2.31\pic\sources\c9
      +                          9\common\doprnt.c: 335:     int d, e, i, m, n, ne, p, pp, sign, t, w;;C:\Program Files\M
      +                          icrochip\xc8\v2.31\pic\sources\c99\common\doprnt.c: 336:     long double g, h, l, ou, u;
  5537  00B2  01BA               	clrf	efgtoa@sign^(0+128)
  5538  00B3  01BB               	clrf	(efgtoa@sign+1)^(0+128)
  5539  00B4                     l3905:
  5540                           
  5541                           ;C:\Program Files\Microchip\xc8\v2.31\pic\sources\c99\common\doprnt.c: 340:     g = f;
  5542  00B4  0020               	movlb	0	; select bank0
  5543  00B5  0849               	movf	efgtoa@f+3,w
  5544  00B6  0021               	movlb	1	; select bank1
  5545  00B7  00D0               	movwf	(efgtoa@g+3)^(0+128)
  5546  00B8  0020               	movlb	0	; select bank0
  5547  00B9  0848               	movf	efgtoa@f+2,w
  5548  00BA  0021               	movlb	1	; select bank1
  5549  00BB  00CF               	movwf	(efgtoa@g+2)^(0+128)
  5550  00BC  0020               	movlb	0	; select bank0
  5551  00BD  0847               	movf	efgtoa@f+1,w
  5552  00BE  0021               	movlb	1	; select bank1
  5553  00BF  00CE               	movwf	(efgtoa@g+1)^(0+128)
  5554  00C0  0020               	movlb	0	; select bank0
  5555  00C1  0846               	movf	efgtoa@f,w
  5556  00C2  0021               	movlb	1	; select bank1
  5557  00C3  00CD               	movwf	efgtoa@g^(0+128)
  5558  00C4                     l3907:
  5559                           
  5560                           ;C:\Program Files\Microchip\xc8\v2.31\pic\sources\c99\common\doprnt.c: 341:     if (g < 
      +                          0.0) {
  5561  00C4  0850               	movf	(efgtoa@g+3)^(0+128),w
  5562  00C5  0020               	movlb	0	; select bank0
  5563  00C6  00BD               	movwf	___flge@ff1+3
  5564  00C7  0021               	movlb	1	; select bank1
  5565  00C8  084F               	movf	(efgtoa@g+2)^(0+128),w
  5566  00C9  0020               	movlb	0	; select bank0
  5567  00CA  00BC               	movwf	___flge@ff1+2
  5568  00CB  0021               	movlb	1	; select bank1
  5569  00CC  084E               	movf	(efgtoa@g+1)^(0+128),w
  5570  00CD  0020               	movlb	0	; select bank0
  5571  00CE  00BB               	movwf	___flge@ff1+1
  5572  00CF  0021               	movlb	1	; select bank1
  5573  00D0  084D               	movf	efgtoa@g^(0+128),w
  5574  00D1  0020               	movlb	0	; select bank0
  5575  00D2  00BA               	movwf	___flge@ff1
  5576  00D3  3000               	movlw	0
  5577  00D4  00C1               	movwf	___flge@ff2+3
  5578  00D5  3000               	movlw	0
  5579  00D6  00C0               	movwf	___flge@ff2+2
  5580  00D7  3000               	movlw	0
  5581  00D8  00BF               	movwf	___flge@ff2+1
  5582  00D9  3000               	movlw	0
  5583  00DA  00BE               	movwf	___flge@ff2
  5584  00DB  3190  2022  3180   	fcall	___flge
  5585  00DE  1803               	btfsc	3,0
  5586  00DF  28E1               	goto	u5541
  5587  00E0  28E2               	goto	u5540
  5588  00E1                     u5541:
  5589  00E1  28FB               	goto	l3913
  5590  00E2                     u5540:
  5591  00E2                     l3909:
  5592                           
  5593                           ;C:\Program Files\Microchip\xc8\v2.31\pic\sources\c99\common\doprnt.c: 342:         sign
      +                           = 1;
  5594  00E2  3001               	movlw	1
  5595  00E3  0021               	movlb	1	; select bank1
  5596  00E4  00BA               	movwf	efgtoa@sign^(0+128)
  5597  00E5  3000               	movlw	0
  5598  00E6  00BB               	movwf	(efgtoa@sign^(0+128)+1)
  5599  00E7                     l3911:
  5600                           
  5601                           ;C:\Program Files\Microchip\xc8\v2.31\pic\sources\c99\common\doprnt.c: 343:         g = 
      +                          -g;
  5602  00E7  0850               	movf	(efgtoa@g+3)^(0+128),w
  5603  00E8  00F3               	movwf	___flneg@f1+3
  5604  00E9  084F               	movf	(efgtoa@g+2)^(0+128),w
  5605  00EA  00F2               	movwf	___flneg@f1+2
  5606  00EB  084E               	movf	(efgtoa@g+1)^(0+128),w
  5607  00EC  00F1               	movwf	___flneg@f1+1
  5608  00ED  084D               	movf	efgtoa@g^(0+128),w
  5609  00EE  00F0               	movwf	___flneg@f1
  5610  00EF  319A  2287  3180   	fcall	___flneg
  5611  00F2  0873               	movf	?___flneg+3,w
  5612  00F3  0021               	movlb	1	; select bank1
  5613  00F4  00D0               	movwf	(efgtoa@g+3)^(0+128)
  5614  00F5  0872               	movf	?___flneg+2,w
  5615  00F6  00CF               	movwf	(efgtoa@g+2)^(0+128)
  5616  00F7  0871               	movf	?___flneg+1,w
  5617  00F8  00CE               	movwf	(efgtoa@g+1)^(0+128)
  5618  00F9  0870               	movf	?___flneg,w
  5619  00FA  00CD               	movwf	efgtoa@g^(0+128)
  5620  00FB                     l3913:
  5621                           
  5622                           ;C:\Program Files\Microchip\xc8\v2.31\pic\sources\c99\common\doprnt.c: 347:     n = 0;
  5623  00FB  0021               	movlb	1	; select bank1
  5624  00FC  01D3               	clrf	efgtoa@n^(0+128)
  5625  00FD  01D4               	clrf	(efgtoa@n+1)^(0+128)
  5626  00FE                     l3915:
  5627                           
  5628                           ;C:\Program Files\Microchip\xc8\v2.31\pic\sources\c99\common\doprnt.c: 348:     w = widt
      +                          h;
  5629  00FE  0022               	movlb	2	; select bank2
  5630  00FF  085C               	movf	(_width+1)^(0+256),w
  5631  0100  0021               	movlb	1	; select bank1
  5632  0101  00C0               	movwf	(efgtoa@w+1)^(0+128)
  5633  0102  0022               	movlb	2	; select bank2
  5634  0103  085B               	movf	_width^(0+256),w
  5635  0104  0021               	movlb	1	; select bank1
  5636  0105  00BF               	movwf	efgtoa@w^(0+128)
  5637  0106                     l3917:
  5638                           
  5639                           ;C:\Program Files\Microchip\xc8\v2.31\pic\sources\c99\common\doprnt.c: 349:     if (sign
      +                           || (flags & (1 << 2))) {
  5640  0106  083A               	movf	efgtoa@sign^(0+128),w
  5641  0107  043B               	iorwf	(efgtoa@sign+1)^(0+128),w
  5642  0108  1D03               	btfss	3,2
  5643  0109  290B               	goto	u5551
  5644  010A  290C               	goto	u5550
  5645  010B                     u5551:
  5646  010B  2910               	goto	l3921
  5647  010C                     u5550:
  5648  010C                     l3919:
  5649  010C  1D6E               	btfss	_flags^(0+128),2
  5650  010D  290F               	goto	u5561
  5651  010E  2910               	goto	u5560
  5652  010F                     u5561:
  5653  010F  292E               	goto	l3933
  5654  0110                     u5560:
  5655  0110                     l3921:
  5656                           
  5657                           ;C:\Program Files\Microchip\xc8\v2.31\pic\sources\c99\common\doprnt.c: 350:         dbuf
      +                          [n] = sign ? '-' : '+';
  5658  0110  083A               	movf	efgtoa@sign^(0+128),w
  5659  0111  043B               	iorwf	(efgtoa@sign+1)^(0+128),w
  5660  0112  1D03               	btfss	3,2
  5661  0113  2915               	goto	u5571
  5662  0114  2916               	goto	u5570
  5663  0115                     u5571:
  5664  0115  291B               	goto	l3925
  5665  0116                     u5570:
  5666  0116                     l3923:
  5667  0116  302B               	movlw	43
  5668  0117  00A0               	movwf	_efgtoa$979^(0+128)
  5669  0118  3000               	movlw	0
  5670  0119  00A1               	movwf	(_efgtoa$979^(0+128)+1)
  5671  011A  291F               	goto	l3927
  5672  011B                     l3925:
  5673  011B  302D               	movlw	45
  5674  011C  00A0               	movwf	_efgtoa$979^(0+128)
  5675  011D  3000               	movlw	0
  5676  011E  00A1               	movwf	(_efgtoa$979^(0+128)+1)
  5677  011F                     l3927:
  5678  011F  0820               	movf	_efgtoa$979^(0+128),w
  5679  0120  0020               	movlb	0	; select bank0
  5680  0121  00CB               	movwf	??_efgtoa
  5681  0122  084B               	movf	??_efgtoa,w
  5682  0123  0023               	movlb	3	; select bank3
  5683  0124  00A0               	movwf	_dbuf^(0+384)
  5684  0125                     l3929:
  5685                           
  5686                           ;C:\Program Files\Microchip\xc8\v2.31\pic\sources\c99\common\doprnt.c: 351:         ++n;
  5687  0125  3001               	movlw	1
  5688  0126  0021               	movlb	1	; select bank1
  5689  0127  07D3               	addwf	efgtoa@n^(0+128),f
  5690  0128  3000               	movlw	0
  5691  0129  3DD4               	addwfc	(efgtoa@n+1)^(0+128),f
  5692  012A                     l3931:
  5693                           
  5694                           ;C:\Program Files\Microchip\xc8\v2.31\pic\sources\c99\common\doprnt.c: 352:         --w;
  5695  012A  30FF               	movlw	255
  5696  012B  07BF               	addwf	efgtoa@w^(0+128),f
  5697  012C  30FF               	movlw	255
  5698  012D  3DC0               	addwfc	(efgtoa@w+1)^(0+128),f
  5699  012E                     l3933:
  5700                           
  5701                           ;C:\Program Files\Microchip\xc8\v2.31\pic\sources\c99\common\doprnt.c: 357:         if (
      +                          (0 ? isupper((int)c) : ((unsigned)((int)c)-'A') < 26)) {
  5702  012E  0850               	movf	(efgtoa@g+3)^(0+128),w
  5703  012F  00F3               	movwf	___fpclassifyf@x+3
  5704  0130  084F               	movf	(efgtoa@g+2)^(0+128),w
  5705  0131  00F2               	movwf	___fpclassifyf@x+2
  5706  0132  084E               	movf	(efgtoa@g+1)^(0+128),w
  5707  0133  00F1               	movwf	___fpclassifyf@x+1
  5708  0134  084D               	movf	efgtoa@g^(0+128),w
  5709  0135  00F0               	movwf	___fpclassifyf@x
  5710  0136  319E  26D2  3180   	fcall	___fpclassifyf
  5711  0139  0370               	decf	?___fpclassifyf,w
  5712  013A  0471               	iorwf	?___fpclassifyf+1,w
  5713  013B  1D03               	btfss	3,2
  5714  013C  293E               	goto	u5581
  5715  013D  293F               	goto	u5580
  5716  013E                     u5581:
  5717  013E  2991               	goto	l3951
  5718  013F                     u5580:
  5719  013F                     l3935:
  5720  013F  0020               	movlb	0	; select bank0
  5721  0140  084A               	movf	efgtoa@c,w
  5722  0141  3EBF               	addlw	191
  5723  0142  00CB               	movwf	??_efgtoa
  5724  0143  30FF               	movlw	255
  5725  0144  1803               	skipnc
  5726  0145  3000               	movlw	0
  5727  0146  00CC               	movwf	??_efgtoa+1
  5728  0147  3000               	movlw	0
  5729  0148  024C               	subwf	??_efgtoa+1,w
  5730  0149  301A               	movlw	26
  5731  014A  1903               	skipnz
  5732  014B  024B               	subwf	??_efgtoa,w
  5733  014C  1C03               	skipc
  5734  014D  294F               	goto	u5591
  5735  014E  2951               	goto	u5590
  5736  014F                     u5591:
  5737  014F  3001               	movlw	1
  5738  0150  2952               	goto	u5600
  5739  0151                     u5590:
  5740  0151  3000               	movlw	0
  5741  0152                     u5600:
  5742  0152  00CD               	movwf	??_efgtoa+2
  5743  0153  01CE               	clrf	??_efgtoa+3
  5744  0154  084D               	movf	??_efgtoa+2,w
  5745  0155  0021               	movlb	1	; select bank1
  5746  0156  00A2               	movwf	_efgtoa$980^(0+128)
  5747  0157  0020               	movlb	0	; select bank0
  5748  0158  084E               	movf	??_efgtoa+3,w
  5749  0159  0021               	movlb	1	; select bank1
  5750  015A  00A3               	movwf	(_efgtoa$980+1)^(0+128)
  5751  015B                     l3939:
  5752  015B  0822               	movf	_efgtoa$980^(0+128),w
  5753  015C  0423               	iorwf	(_efgtoa$980+1)^(0+128),w
  5754  015D  1903               	btfsc	3,2
  5755  015E  2960               	goto	u5611
  5756  015F  2961               	goto	u5610
  5757  0160                     u5611:
  5758  0160  296B               	goto	l3943
  5759  0161                     u5610:
  5760  0161                     l3941:
  5761                           
  5762                           ;C:\Program Files\Microchip\xc8\v2.31\pic\sources\c99\common\doprnt.c: 358:             
      +                          strcpy(&dbuf[n], "INF");
  5763  0161  3024               	movlw	low (STR_3| (0+32768))
  5764  0162  00F0               	movwf	strcpy@src
  5765  0163  30A0               	movlw	high (STR_3| (0+32768))
  5766  0164  00F1               	movwf	strcpy@src+1
  5767  0165  0853               	movf	efgtoa@n^(0+128),w
  5768  0166  3EA0               	addlw	(low (_dbuf| (0+256)))& (0+255)
  5769  0167  319B  239A  3180   	fcall	_strcpy
  5770                           
  5771                           ;C:\Program Files\Microchip\xc8\v2.31\pic\sources\c99\common\doprnt.c: 359:         } el
      +                          se {
  5772  016A  2974               	goto	l3945
  5773  016B                     l3943:
  5774                           
  5775                           ;C:\Program Files\Microchip\xc8\v2.31\pic\sources\c99\common\doprnt.c: 360:             
      +                          strcpy(&dbuf[n], "inf");
  5776  016B  302C               	movlw	low (STR_4| (0+32768))
  5777  016C  00F0               	movwf	strcpy@src
  5778  016D  30A0               	movlw	high (STR_4| (0+32768))
  5779  016E  00F1               	movwf	strcpy@src+1
  5780  016F  0853               	movf	efgtoa@n^(0+128),w
  5781  0170  3EA0               	addlw	(low (_dbuf| (0+256)))& (0+255)
  5782  0171  319B  239A  3180   	fcall	_strcpy
  5783  0174                     l3945:
  5784                           
  5785                           ;C:\Program Files\Microchip\xc8\v2.31\pic\sources\c99\common\doprnt.c: 362:         w -=
      +                           ((sizeof("inf")/sizeof("inf"[0]))-1);
  5786  0174  30FD               	movlw	253
  5787  0175  0021               	movlb	1	; select bank1
  5788  0176  07BF               	addwf	efgtoa@w^(0+128),f
  5789  0177  30FF               	movlw	255
  5790  0178  3DC0               	addwfc	(efgtoa@w+1)^(0+128),f
  5791  0179                     l3947:
  5792                           
  5793                           ;C:\Program Files\Microchip\xc8\v2.31\pic\sources\c99\common\doprnt.c: 363:         retu
      +                          rn pad(fp, &dbuf[0], w);
  5794  0179  30A0               	movlw	(low (_dbuf| (0+256)))& (0+255)
  5795  017A  0020               	movlb	0	; select bank0
  5796  017B  00CB               	movwf	??_efgtoa
  5797  017C  084B               	movf	??_efgtoa,w
  5798  017D  00A4               	movwf	pad@buf
  5799  017E  0021               	movlb	1	; select bank1
  5800  017F  0840               	movf	(efgtoa@w+1)^(0+128),w
  5801  0180  0020               	movlb	0	; select bank0
  5802  0181  00A6               	movwf	pad@p+1
  5803  0182  0021               	movlb	1	; select bank1
  5804  0183  083F               	movf	efgtoa@w^(0+128),w
  5805  0184  0020               	movlb	0	; select bank0
  5806  0185  00A5               	movwf	pad@p
  5807  0186  0021               	movlb	1	; select bank1
  5808  0187  083C               	movf	efgtoa@fp^(0+128),w
  5809  0188  3188  2003  3180   	fcall	_pad
  5810  018B  0020               	movlb	0	; select bank0
  5811  018C  0825               	movf	?_pad+1,w
  5812  018D  00C7               	movwf	?_efgtoa+1
  5813  018E  0824               	movf	?_pad,w
  5814  018F  00C6               	movwf	?_efgtoa
  5815  0190  2FE7               	goto	l965
  5816  0191                     l3951:
  5817                           
  5818                           ;C:\Program Files\Microchip\xc8\v2.31\pic\sources\c99\common\doprnt.c: 366:         if (
      +                          (0 ? isupper((int)c) : ((unsigned)((int)c)-'A') < 26)) {
  5819  0191  0021               	movlb	1	; select bank1
  5820  0192  0850               	movf	(efgtoa@g+3)^(0+128),w
  5821  0193  00F3               	movwf	___fpclassifyf@x+3
  5822  0194  084F               	movf	(efgtoa@g+2)^(0+128),w
  5823  0195  00F2               	movwf	___fpclassifyf@x+2
  5824  0196  084E               	movf	(efgtoa@g+1)^(0+128),w
  5825  0197  00F1               	movwf	___fpclassifyf@x+1
  5826  0198  084D               	movf	efgtoa@g^(0+128),w
  5827  0199  00F0               	movwf	___fpclassifyf@x
  5828  019A  319E  26D2  3180   	fcall	___fpclassifyf
  5829  019D  0870               	movf	?___fpclassifyf,w
  5830  019E  0471               	iorwf	?___fpclassifyf+1,w
  5831  019F  1D03               	btfss	3,2
  5832  01A0  29A2               	goto	u5621
  5833  01A1  29A3               	goto	u5620
  5834  01A2                     u5621:
  5835  01A2  29F5               	goto	l3969
  5836  01A3                     u5620:
  5837  01A3                     l3953:
  5838  01A3  0020               	movlb	0	; select bank0
  5839  01A4  084A               	movf	efgtoa@c,w
  5840  01A5  3EBF               	addlw	191
  5841  01A6  00CB               	movwf	??_efgtoa
  5842  01A7  30FF               	movlw	255
  5843  01A8  1803               	skipnc
  5844  01A9  3000               	movlw	0
  5845  01AA  00CC               	movwf	??_efgtoa+1
  5846  01AB  3000               	movlw	0
  5847  01AC  024C               	subwf	??_efgtoa+1,w
  5848  01AD  301A               	movlw	26
  5849  01AE  1903               	skipnz
  5850  01AF  024B               	subwf	??_efgtoa,w
  5851  01B0  1C03               	skipc
  5852  01B1  29B3               	goto	u5631
  5853  01B2  29B5               	goto	u5630
  5854  01B3                     u5631:
  5855  01B3  3001               	movlw	1
  5856  01B4  29B6               	goto	u5640
  5857  01B5                     u5630:
  5858  01B5  3000               	movlw	0
  5859  01B6                     u5640:
  5860  01B6  00CD               	movwf	??_efgtoa+2
  5861  01B7  01CE               	clrf	??_efgtoa+3
  5862  01B8  084D               	movf	??_efgtoa+2,w
  5863  01B9  0021               	movlb	1	; select bank1
  5864  01BA  00A4               	movwf	_efgtoa$984^(0+128)
  5865  01BB  0020               	movlb	0	; select bank0
  5866  01BC  084E               	movf	??_efgtoa+3,w
  5867  01BD  0021               	movlb	1	; select bank1
  5868  01BE  00A5               	movwf	(_efgtoa$984+1)^(0+128)
  5869  01BF                     l3957:
  5870  01BF  0824               	movf	_efgtoa$984^(0+128),w
  5871  01C0  0425               	iorwf	(_efgtoa$984+1)^(0+128),w
  5872  01C1  1903               	btfsc	3,2
  5873  01C2  29C4               	goto	u5651
  5874  01C3  29C5               	goto	u5650
  5875  01C4                     u5651:
  5876  01C4  29CF               	goto	l3961
  5877  01C5                     u5650:
  5878  01C5                     l3959:
  5879                           
  5880                           ;C:\Program Files\Microchip\xc8\v2.31\pic\sources\c99\common\doprnt.c: 367:             
      +                          strcpy(&dbuf[n], "NAN");
  5881  01C5  3028               	movlw	low (STR_7| (0+32768))
  5882  01C6  00F0               	movwf	strcpy@src
  5883  01C7  30A0               	movlw	high (STR_7| (0+32768))
  5884  01C8  00F1               	movwf	strcpy@src+1
  5885  01C9  0853               	movf	efgtoa@n^(0+128),w
  5886  01CA  3EA0               	addlw	(low (_dbuf| (0+256)))& (0+255)
  5887  01CB  319B  239A  3180   	fcall	_strcpy
  5888                           
  5889                           ;C:\Program Files\Microchip\xc8\v2.31\pic\sources\c99\common\doprnt.c: 368:         } el
      +                          se {
  5890  01CE  29D8               	goto	l3963
  5891  01CF                     l3961:
  5892                           
  5893                           ;C:\Program Files\Microchip\xc8\v2.31\pic\sources\c99\common\doprnt.c: 369:             
      +                          strcpy(&dbuf[n], "nan");
  5894  01CF  3030               	movlw	low (STR_8| (0+32768))
  5895  01D0  00F0               	movwf	strcpy@src
  5896  01D1  30A0               	movlw	high (STR_8| (0+32768))
  5897  01D2  00F1               	movwf	strcpy@src+1
  5898  01D3  0853               	movf	efgtoa@n^(0+128),w
  5899  01D4  3EA0               	addlw	(low (_dbuf| (0+256)))& (0+255)
  5900  01D5  319B  239A  3180   	fcall	_strcpy
  5901  01D8                     l3963:
  5902                           
  5903                           ;C:\Program Files\Microchip\xc8\v2.31\pic\sources\c99\common\doprnt.c: 371:         w -=
      +                           ((sizeof("inf")/sizeof("inf"[0]))-1);
  5904  01D8  30FD               	movlw	253
  5905  01D9  0021               	movlb	1	; select bank1
  5906  01DA  07BF               	addwf	efgtoa@w^(0+128),f
  5907  01DB  30FF               	movlw	255
  5908  01DC  3DC0               	addwfc	(efgtoa@w+1)^(0+128),f
  5909  01DD                     l3965:
  5910                           
  5911                           ;C:\Program Files\Microchip\xc8\v2.31\pic\sources\c99\common\doprnt.c: 372:         retu
      +                          rn pad(fp, &dbuf[0], w);
  5912  01DD  30A0               	movlw	(low (_dbuf| (0+256)))& (0+255)
  5913  01DE  0020               	movlb	0	; select bank0
  5914  01DF  00CB               	movwf	??_efgtoa
  5915  01E0  084B               	movf	??_efgtoa,w
  5916  01E1  00A4               	movwf	pad@buf
  5917  01E2  0021               	movlb	1	; select bank1
  5918  01E3  0840               	movf	(efgtoa@w+1)^(0+128),w
  5919  01E4  0020               	movlb	0	; select bank0
  5920  01E5  00A6               	movwf	pad@p+1
  5921  01E6  0021               	movlb	1	; select bank1
  5922  01E7  083F               	movf	efgtoa@w^(0+128),w
  5923  01E8  0020               	movlb	0	; select bank0
  5924  01E9  00A5               	movwf	pad@p
  5925  01EA  0021               	movlb	1	; select bank1
  5926  01EB  083C               	movf	efgtoa@fp^(0+128),w
  5927  01EC  3188  2003  3180   	fcall	_pad
  5928  01EF  0020               	movlb	0	; select bank0
  5929  01F0  0825               	movf	?_pad+1,w
  5930  01F1  00C7               	movwf	?_efgtoa+1
  5931  01F2  0824               	movf	?_pad,w
  5932  01F3  00C6               	movwf	?_efgtoa
  5933  01F4  2FE7               	goto	l965
  5934  01F5                     l3969:
  5935                           
  5936                           ;C:\Program Files\Microchip\xc8\v2.31\pic\sources\c99\common\doprnt.c: 376:     u = 1.0;
  5937  01F5  303F               	movlw	63
  5938  01F6  0021               	movlb	1	; select bank1
  5939  01F7  00D8               	movwf	(efgtoa@u+3)^(0+128)
  5940  01F8  3080               	movlw	128
  5941  01F9  00D7               	movwf	(efgtoa@u+2)^(0+128)
  5942  01FA  3000               	movlw	0
  5943  01FB  00D6               	movwf	(efgtoa@u+1)^(0+128)
  5944  01FC  3000               	movlw	0
  5945  01FD  00D5               	movwf	efgtoa@u^(0+128)
  5946  01FE                     l3971:
  5947                           
  5948                           ;C:\Program Files\Microchip\xc8\v2.31\pic\sources\c99\common\doprnt.c: 377:     e = 0;
  5949  01FE  01D1               	clrf	efgtoa@e^(0+128)
  5950  01FF  01D2               	clrf	(efgtoa@e+1)^(0+128)
  5951  0200                     l3973:
  5952                           
  5953                           ;C:\Program Files\Microchip\xc8\v2.31\pic\sources\c99\common\doprnt.c: 378:     if (!(g 
      +                          == 0.0)) {
  5954  0200  0850               	movf	(efgtoa@g+3)^(0+128),w
  5955  0201  00F3               	movwf	___fleq@ff1+3
  5956  0202  084F               	movf	(efgtoa@g+2)^(0+128),w
  5957  0203  00F2               	movwf	___fleq@ff1+2
  5958  0204  084E               	movf	(efgtoa@g+1)^(0+128),w
  5959  0205  00F1               	movwf	___fleq@ff1+1
  5960  0206  084D               	movf	efgtoa@g^(0+128),w
  5961  0207  00F0               	movwf	___fleq@ff1
  5962  0208  3000               	movlw	0
  5963  0209  00F7               	movwf	___fleq@ff2+3
  5964  020A  3000               	movlw	0
  5965  020B  00F6               	movwf	___fleq@ff2+2
  5966  020C  3000               	movlw	0
  5967  020D  00F5               	movwf	___fleq@ff2+1
  5968  020E  3000               	movlw	0
  5969  020F  00F4               	movwf	___fleq@ff2
  5970  0210  319C  24B0  3180   	fcall	___fleq
  5971  0213  1803               	btfsc	3,0
  5972  0214  2A16               	goto	u5661
  5973  0215  2A17               	goto	u5660
  5974  0216                     u5661:
  5975  0216  2ACC               	goto	l3989
  5976  0217                     u5660:
  5977  0217  2A48               	goto	l3981
  5978  0218                     l3977:
  5979                           
  5980                           ;C:\Program Files\Microchip\xc8\v2.31\pic\sources\c99\common\doprnt.c: 380:             
      +                          u = u*10.0;
  5981  0218  3041               	movlw	65
  5982  0219  0020               	movlb	0	; select bank0
  5983  021A  00A3               	movwf	___flmul@b+3
  5984  021B  3020               	movlw	32
  5985  021C  00A2               	movwf	___flmul@b+2
  5986  021D  3000               	movlw	0
  5987  021E  00A1               	movwf	___flmul@b+1
  5988  021F  3000               	movlw	0
  5989  0220  00A0               	movwf	___flmul@b
  5990  0221  0021               	movlb	1	; select bank1
  5991  0222  0858               	movf	(efgtoa@u+3)^(0+128),w
  5992  0223  0020               	movlb	0	; select bank0
  5993  0224  00A7               	movwf	___flmul@a+3
  5994  0225  0021               	movlb	1	; select bank1
  5995  0226  0857               	movf	(efgtoa@u+2)^(0+128),w
  5996  0227  0020               	movlb	0	; select bank0
  5997  0228  00A6               	movwf	___flmul@a+2
  5998  0229  0021               	movlb	1	; select bank1
  5999  022A  0856               	movf	(efgtoa@u+1)^(0+128),w
  6000  022B  0020               	movlb	0	; select bank0
  6001  022C  00A5               	movwf	___flmul@a+1
  6002  022D  0021               	movlb	1	; select bank1
  6003  022E  0855               	movf	efgtoa@u^(0+128),w
  6004  022F  0020               	movlb	0	; select bank0
  6005  0230  00A4               	movwf	___flmul@a
  6006  0231  318A  229B  3180   	fcall	___flmul
  6007  0234  0020               	movlb	0	; select bank0
  6008  0235  0823               	movf	?___flmul+3,w
  6009  0236  0021               	movlb	1	; select bank1
  6010  0237  00D8               	movwf	(efgtoa@u+3)^(0+128)
  6011  0238  0020               	movlb	0	; select bank0
  6012  0239  0822               	movf	?___flmul+2,w
  6013  023A  0021               	movlb	1	; select bank1
  6014  023B  00D7               	movwf	(efgtoa@u+2)^(0+128)
  6015  023C  0020               	movlb	0	; select bank0
  6016  023D  0821               	movf	?___flmul+1,w
  6017  023E  0021               	movlb	1	; select bank1
  6018  023F  00D6               	movwf	(efgtoa@u+1)^(0+128)
  6019  0240  0020               	movlb	0	; select bank0
  6020  0241  0820               	movf	?___flmul,w
  6021  0242  0021               	movlb	1	; select bank1
  6022  0243  00D5               	movwf	efgtoa@u^(0+128)
  6023  0244                     l3979:
  6024                           
  6025                           ;C:\Program Files\Microchip\xc8\v2.31\pic\sources\c99\common\doprnt.c: 381:             
      +                          ++e;
  6026  0244  3001               	movlw	1
  6027  0245  07D1               	addwf	efgtoa@e^(0+128),f
  6028  0246  3000               	movlw	0
  6029  0247  3DD2               	addwfc	(efgtoa@e+1)^(0+128),f
  6030  0248                     l3981:
  6031                           
  6032                           ;C:\Program Files\Microchip\xc8\v2.31\pic\sources\c99\common\doprnt.c: 379:         whil
      +                          e (!(g < (u*10.0))) {
  6033  0248  0021               	movlb	1	; select bank1
  6034  0249  0850               	movf	(efgtoa@g+3)^(0+128),w
  6035  024A  0020               	movlb	0	; select bank0
  6036  024B  00BD               	movwf	___flge@ff1+3
  6037  024C  0021               	movlb	1	; select bank1
  6038  024D  084F               	movf	(efgtoa@g+2)^(0+128),w
  6039  024E  0020               	movlb	0	; select bank0
  6040  024F  00BC               	movwf	___flge@ff1+2
  6041  0250  0021               	movlb	1	; select bank1
  6042  0251  084E               	movf	(efgtoa@g+1)^(0+128),w
  6043  0252  0020               	movlb	0	; select bank0
  6044  0253  00BB               	movwf	___flge@ff1+1
  6045  0254  0021               	movlb	1	; select bank1
  6046  0255  084D               	movf	efgtoa@g^(0+128),w
  6047  0256  0020               	movlb	0	; select bank0
  6048  0257  00BA               	movwf	___flge@ff1
  6049  0258  3041               	movlw	65
  6050  0259  00A3               	movwf	___flmul@b+3
  6051  025A  3020               	movlw	32
  6052  025B  00A2               	movwf	___flmul@b+2
  6053  025C  3000               	movlw	0
  6054  025D  00A1               	movwf	___flmul@b+1
  6055  025E  3000               	movlw	0
  6056  025F  00A0               	movwf	___flmul@b
  6057  0260  0021               	movlb	1	; select bank1
  6058  0261  0858               	movf	(efgtoa@u+3)^(0+128),w
  6059  0262  0020               	movlb	0	; select bank0
  6060  0263  00A7               	movwf	___flmul@a+3
  6061  0264  0021               	movlb	1	; select bank1
  6062  0265  0857               	movf	(efgtoa@u+2)^(0+128),w
  6063  0266  0020               	movlb	0	; select bank0
  6064  0267  00A6               	movwf	___flmul@a+2
  6065  0268  0021               	movlb	1	; select bank1
  6066  0269  0856               	movf	(efgtoa@u+1)^(0+128),w
  6067  026A  0020               	movlb	0	; select bank0
  6068  026B  00A5               	movwf	___flmul@a+1
  6069  026C  0021               	movlb	1	; select bank1
  6070  026D  0855               	movf	efgtoa@u^(0+128),w
  6071  026E  0020               	movlb	0	; select bank0
  6072  026F  00A4               	movwf	___flmul@a
  6073  0270  318A  229B  3180   	fcall	___flmul
  6074  0273  0020               	movlb	0	; select bank0
  6075  0274  0823               	movf	?___flmul+3,w
  6076  0275  00C1               	movwf	___flge@ff2+3
  6077  0276  0822               	movf	?___flmul+2,w
  6078  0277  00C0               	movwf	___flge@ff2+2
  6079  0278  0821               	movf	?___flmul+1,w
  6080  0279  00BF               	movwf	___flge@ff2+1
  6081  027A  0820               	movf	?___flmul,w
  6082  027B  00BE               	movwf	___flge@ff2
  6083  027C  3190  2022  3180   	fcall	___flge
  6084  027F  1803               	btfsc	3,0
  6085  0280  2A82               	goto	u5671
  6086  0281  2A83               	goto	u5670
  6087  0282                     u5671:
  6088  0282  2A18               	goto	l3977
  6089  0283                     u5670:
  6090  0283  2AA5               	goto	l3987
  6091  0284                     l3983:
  6092                           
  6093                           ;C:\Program Files\Microchip\xc8\v2.31\pic\sources\c99\common\doprnt.c: 384:             
      +                          u = u/10.0;
  6094  0284  3041               	movlw	65
  6095  0285  00F3               	movwf	___fldiv@a+3
  6096  0286  3020               	movlw	32
  6097  0287  00F2               	movwf	___fldiv@a+2
  6098  0288  3000               	movlw	0
  6099  0289  00F1               	movwf	___fldiv@a+1
  6100  028A  3000               	movlw	0
  6101  028B  00F0               	movwf	___fldiv@a
  6102  028C  0021               	movlb	1	; select bank1
  6103  028D  0858               	movf	(efgtoa@u+3)^(0+128),w
  6104  028E  00F7               	movwf	___fldiv@b+3
  6105  028F  0857               	movf	(efgtoa@u+2)^(0+128),w
  6106  0290  00F6               	movwf	___fldiv@b+2
  6107  0291  0856               	movf	(efgtoa@u+1)^(0+128),w
  6108  0292  00F5               	movwf	___fldiv@b+1
  6109  0293  0855               	movf	efgtoa@u^(0+128),w
  6110  0294  00F4               	movwf	___fldiv@b
  6111  0295  3196  264C  3180   	fcall	___fldiv
  6112  0298  0873               	movf	?___fldiv+3,w
  6113  0299  0021               	movlb	1	; select bank1
  6114  029A  00D8               	movwf	(efgtoa@u+3)^(0+128)
  6115  029B  0872               	movf	?___fldiv+2,w
  6116  029C  00D7               	movwf	(efgtoa@u+2)^(0+128)
  6117  029D  0871               	movf	?___fldiv+1,w
  6118  029E  00D6               	movwf	(efgtoa@u+1)^(0+128)
  6119  029F  0870               	movf	?___fldiv,w
  6120  02A0  00D5               	movwf	efgtoa@u^(0+128)
  6121  02A1                     l3985:
  6122                           
  6123                           ;C:\Program Files\Microchip\xc8\v2.31\pic\sources\c99\common\doprnt.c: 385:             
      +                          --e;
  6124  02A1  30FF               	movlw	255
  6125  02A2  07D1               	addwf	efgtoa@e^(0+128),f
  6126  02A3  30FF               	movlw	255
  6127  02A4  3DD2               	addwfc	(efgtoa@e+1)^(0+128),f
  6128  02A5                     l3987:
  6129                           
  6130                           ;C:\Program Files\Microchip\xc8\v2.31\pic\sources\c99\common\doprnt.c: 383:         whil
      +                          e (g < u) {
  6131  02A5  0021               	movlb	1	; select bank1
  6132  02A6  0850               	movf	(efgtoa@g+3)^(0+128),w
  6133  02A7  0020               	movlb	0	; select bank0
  6134  02A8  00BD               	movwf	___flge@ff1+3
  6135  02A9  0021               	movlb	1	; select bank1
  6136  02AA  084F               	movf	(efgtoa@g+2)^(0+128),w
  6137  02AB  0020               	movlb	0	; select bank0
  6138  02AC  00BC               	movwf	___flge@ff1+2
  6139  02AD  0021               	movlb	1	; select bank1
  6140  02AE  084E               	movf	(efgtoa@g+1)^(0+128),w
  6141  02AF  0020               	movlb	0	; select bank0
  6142  02B0  00BB               	movwf	___flge@ff1+1
  6143  02B1  0021               	movlb	1	; select bank1
  6144  02B2  084D               	movf	efgtoa@g^(0+128),w
  6145  02B3  0020               	movlb	0	; select bank0
  6146  02B4  00BA               	movwf	___flge@ff1
  6147  02B5  0021               	movlb	1	; select bank1
  6148  02B6  0858               	movf	(efgtoa@u+3)^(0+128),w
  6149  02B7  0020               	movlb	0	; select bank0
  6150  02B8  00C1               	movwf	___flge@ff2+3
  6151  02B9  0021               	movlb	1	; select bank1
  6152  02BA  0857               	movf	(efgtoa@u+2)^(0+128),w
  6153  02BB  0020               	movlb	0	; select bank0
  6154  02BC  00C0               	movwf	___flge@ff2+2
  6155  02BD  0021               	movlb	1	; select bank1
  6156  02BE  0856               	movf	(efgtoa@u+1)^(0+128),w
  6157  02BF  0020               	movlb	0	; select bank0
  6158  02C0  00BF               	movwf	___flge@ff2+1
  6159  02C1  0021               	movlb	1	; select bank1
  6160  02C2  0855               	movf	efgtoa@u^(0+128),w
  6161  02C3  0020               	movlb	0	; select bank0
  6162  02C4  00BE               	movwf	___flge@ff2
  6163  02C5  3190  2022  3180   	fcall	___flge
  6164  02C8  1C03               	btfss	3,0
  6165  02C9  2ACB               	goto	u5681
  6166  02CA  2ACC               	goto	u5680
  6167  02CB                     u5681:
  6168  02CB  2A84               	goto	l3983
  6169  02CC                     u5680:
  6170  02CC                     l3989:
  6171                           
  6172                           ;C:\Program Files\Microchip\xc8\v2.31\pic\sources\c99\common\doprnt.c: 390:     mode = (
      +                          char)tolower((int)c);
  6173  02CC  0020               	movlb	0	; select bank0
  6174  02CD  084A               	movf	efgtoa@c,w
  6175  02CE  00CB               	movwf	??_efgtoa
  6176  02CF  01CC               	clrf	??_efgtoa+1
  6177  02D0  084B               	movf	??_efgtoa,w
  6178  02D1  00F6               	movwf	tolower@c
  6179  02D2  084C               	movf	??_efgtoa+1,w
  6180  02D3  00F7               	movwf	tolower@c+1
  6181  02D4  319C  2403  3180   	fcall	_tolower
  6182  02D7  0876               	movf	?_tolower,w
  6183  02D8  0020               	movlb	0	; select bank0
  6184  02D9  00CD               	movwf	??_efgtoa+2
  6185  02DA  084D               	movf	??_efgtoa+2,w
  6186  02DB  0021               	movlb	1	; select bank1
  6187  02DC  00C2               	movwf	efgtoa@mode^(0+128)
  6188  02DD                     l3991:
  6189                           
  6190                           ;C:\Program Files\Microchip\xc8\v2.31\pic\sources\c99\common\doprnt.c: 391:     nmode = 
      +                          mode;
  6191  02DD  0842               	movf	efgtoa@mode^(0+128),w
  6192  02DE  0020               	movlb	0	; select bank0
  6193  02DF  00CB               	movwf	??_efgtoa
  6194  02E0  084B               	movf	??_efgtoa,w
  6195  02E1  0021               	movlb	1	; select bank1
  6196  02E2  00C1               	movwf	efgtoa@nmode^(0+128)
  6197  02E3                     l3993:
  6198                           
  6199                           ;C:\Program Files\Microchip\xc8\v2.31\pic\sources\c99\common\doprnt.c: 392:     if (mode
      +                           == 'g') {
  6200  02E3  3067               	movlw	103
  6201  02E4  0642               	xorwf	efgtoa@mode^(0+128),w
  6202  02E5  1D03               	btfss	3,2
  6203  02E6  2AE8               	goto	u5691
  6204  02E7  2AE9               	goto	u5690
  6205  02E8                     u5691:
  6206  02E8  2B0E               	goto	l980
  6207  02E9                     u5690:
  6208  02E9                     l3995:
  6209                           
  6210                           ;C:\Program Files\Microchip\xc8\v2.31\pic\sources\c99\common\doprnt.c: 393:   if (prec =
      +                          = 0) {
  6211  02E9  086C               	movf	_prec^(0+128),w
  6212  02EA  046D               	iorwf	(_prec+1)^(0+128),w
  6213  02EB  1D03               	btfss	3,2
  6214  02EC  2AEE               	goto	u5701
  6215  02ED  2AEF               	goto	u5700
  6216  02EE                     u5701:
  6217  02EE  2AF3               	goto	l981
  6218  02EF                     u5700:
  6219  02EF                     l3997:
  6220                           
  6221                           ;C:\Program Files\Microchip\xc8\v2.31\pic\sources\c99\common\doprnt.c: 394:    prec = 1;
  6222  02EF  3001               	movlw	1
  6223  02F0  00EC               	movwf	_prec^(0+128)
  6224  02F1  3000               	movlw	0
  6225  02F2  00ED               	movwf	(_prec^(0+128)+1)
  6226  02F3                     l981:	
  6227                           ;C:\Program Files\Microchip\xc8\v2.31\pic\sources\c99\common\doprnt.c: 395:   }
  6228                           
  6229                           
  6230                           ;C:\Program Files\Microchip\xc8\v2.31\pic\sources\c99\common\doprnt.c: 396:         p = 
      +                          (0 < prec) ? prec : 6;
  6231  02F3  086D               	movf	(_prec+1)^(0+128),w
  6232  02F4  3A80               	xorlw	128
  6233  02F5  0020               	movlb	0	; select bank0
  6234  02F6  00CB               	movwf	??_efgtoa
  6235  02F7  3080               	movlw	128
  6236  02F8  024B               	subwf	??_efgtoa,w
  6237  02F9  1D03               	skipz
  6238  02FA  2AFE               	goto	u5715
  6239  02FB  3001               	movlw	1
  6240  02FC  0021               	movlb	1	; select bank1
  6241  02FD  026C               	subwf	_prec^(0+128),w
  6242  02FE                     u5715:
  6243  02FE  1803               	skipnc
  6244  02FF  2B01               	goto	u5711
  6245  0300  2B02               	goto	u5710
  6246  0301                     u5711:
  6247  0301  2B08               	goto	l4001
  6248  0302                     u5710:
  6249  0302                     l3999:
  6250  0302  3006               	movlw	6
  6251  0303  0021               	movlb	1	; select bank1
  6252  0304  00BD               	movwf	efgtoa@p^(0+128)
  6253  0305  3000               	movlw	0
  6254  0306  00BE               	movwf	(efgtoa@p^(0+128)+1)
  6255  0307  2B13               	goto	l4007
  6256  0308                     l4001:
  6257  0308  0021               	movlb	1	; select bank1
  6258  0309  086D               	movf	(_prec+1)^(0+128),w
  6259  030A  00BE               	movwf	(efgtoa@p+1)^(0+128)
  6260  030B  086C               	movf	_prec^(0+128),w
  6261  030C  00BD               	movwf	efgtoa@p^(0+128)
  6262  030D  2B13               	goto	l4007
  6263  030E                     l980:
  6264                           
  6265                           ;C:\Program Files\Microchip\xc8\v2.31\pic\sources\c99\common\doprnt.c: 398:         p = 
      +                          (prec < 0) ? 6 : prec;
  6266  030E  1BED               	btfsc	(_prec+1)^(0+128),7
  6267  030F  2B11               	goto	u5721
  6268  0310  2B12               	goto	u5720
  6269  0311                     u5721:
  6270  0311  2B02               	goto	l3999
  6271  0312                     u5720:
  6272  0312  2B08               	goto	l4001
  6273  0313                     l4007:
  6274                           
  6275                           ;C:\Program Files\Microchip\xc8\v2.31\pic\sources\c99\common\doprnt.c: 402:     if (mode
      +                           == 'g') {
  6276  0313  3067               	movlw	103
  6277  0314  0642               	xorwf	efgtoa@mode^(0+128),w
  6278  0315  1D03               	btfss	3,2
  6279  0316  2B18               	goto	u5731
  6280  0317  2B19               	goto	u5730
  6281  0318                     u5731:
  6282  0318  2B51               	goto	l991
  6283  0319                     u5730:
  6284  0319                     l4009:
  6285                           
  6286                           ;C:\Program Files\Microchip\xc8\v2.31\pic\sources\c99\common\doprnt.c: 403:         if (
      +                          !(e < -4) && !((p - 1) < e)) {
  6287  0319  0852               	movf	(efgtoa@e+1)^(0+128),w
  6288  031A  3A80               	xorlw	128
  6289  031B  0020               	movlb	0	; select bank0
  6290  031C  00CB               	movwf	??_efgtoa
  6291  031D  307F               	movlw	127
  6292  031E  024B               	subwf	??_efgtoa,w
  6293  031F  1D03               	skipz
  6294  0320  2B24               	goto	u5745
  6295  0321  30FC               	movlw	252
  6296  0322  0021               	movlb	1	; select bank1
  6297  0323  0251               	subwf	efgtoa@e^(0+128),w
  6298  0324                     u5745:
  6299  0324  1C03               	skipc
  6300  0325  2B27               	goto	u5741
  6301  0326  2B28               	goto	u5740
  6302  0327                     u5741:
  6303  0327  2B4B               	goto	l4015
  6304  0328                     u5740:
  6305  0328                     l4011:
  6306  0328  0021               	movlb	1	; select bank1
  6307  0329  083D               	movf	efgtoa@p^(0+128),w
  6308  032A  3EFF               	addlw	255
  6309  032B  0020               	movlb	0	; select bank0
  6310  032C  00CB               	movwf	??_efgtoa
  6311  032D  30FF               	movlw	255
  6312  032E  0021               	movlb	1	; select bank1
  6313  032F  3D3E               	addwfc	(efgtoa@p+1)^(0+128),w
  6314  0330  0020               	movlb	0	; select bank0
  6315  0331  00CC               	movwf	??_efgtoa+1
  6316  0332  084C               	movf	??_efgtoa+1,w
  6317  0333  3A80               	xorlw	128
  6318  0334  00CD               	movwf	??_efgtoa+2
  6319  0335  0021               	movlb	1	; select bank1
  6320  0336  0852               	movf	(efgtoa@e+1)^(0+128),w
  6321  0337  3A80               	xorlw	128
  6322  0338  0020               	movlb	0	; select bank0
  6323  0339  024D               	subwf	??_efgtoa+2,w
  6324  033A  1D03               	skipz
  6325  033B  2B40               	goto	u5755
  6326  033C  0021               	movlb	1	; select bank1
  6327  033D  0851               	movf	efgtoa@e^(0+128),w
  6328  033E  0020               	movlb	0	; select bank0
  6329  033F  024B               	subwf	??_efgtoa,w
  6330  0340                     u5755:
  6331  0340  1C03               	skipc
  6332  0341  2B43               	goto	u5751
  6333  0342  2B44               	goto	u5750
  6334  0343                     u5751:
  6335  0343  2B4B               	goto	l4015
  6336  0344                     u5750:
  6337  0344                     l4013:
  6338                           
  6339                           ;C:\Program Files\Microchip\xc8\v2.31\pic\sources\c99\common\doprnt.c: 404:             
      +                          nmode = 'f';
  6340  0344  3066               	movlw	102
  6341  0345  0020               	movlb	0	; select bank0
  6342  0346  00CB               	movwf	??_efgtoa
  6343  0347  084B               	movf	??_efgtoa,w
  6344  0348  0021               	movlb	1	; select bank1
  6345  0349  00C1               	movwf	efgtoa@nmode^(0+128)
  6346                           
  6347                           ;C:\Program Files\Microchip\xc8\v2.31\pic\sources\c99\common\doprnt.c: 405:         } el
      +                          se {
  6348  034A  2B51               	goto	l991
  6349  034B                     l4015:
  6350                           
  6351                           ;C:\Program Files\Microchip\xc8\v2.31\pic\sources\c99\common\doprnt.c: 406:             
      +                          nmode = 'e';
  6352  034B  3065               	movlw	101
  6353  034C  0020               	movlb	0	; select bank0
  6354  034D  00CB               	movwf	??_efgtoa
  6355  034E  084B               	movf	??_efgtoa,w
  6356  034F  0021               	movlb	1	; select bank1
  6357  0350  00C1               	movwf	efgtoa@nmode^(0+128)
  6358  0351                     l991:	
  6359                           ;C:\Program Files\Microchip\xc8\v2.31\pic\sources\c99\common\doprnt.c: 408:     }
  6360                           
  6361                           
  6362                           ;C:\Program Files\Microchip\xc8\v2.31\pic\sources\c99\common\doprnt.c: 411:     m = p;
  6363  0351  083E               	movf	(efgtoa@p+1)^(0+128),w
  6364  0352  00B3               	movwf	(efgtoa@m+1)^(0+128)
  6365  0353  083D               	movf	efgtoa@p^(0+128),w
  6366  0354  00B2               	movwf	efgtoa@m^(0+128)
  6367  0355                     l4017:
  6368                           
  6369                           ;C:\Program Files\Microchip\xc8\v2.31\pic\sources\c99\common\doprnt.c: 412:     if (!(mo
      +                          de == 'g') || ((nmode == 'f') && (e < 0))) {
  6370  0355  3067               	movlw	103
  6371  0356  0642               	xorwf	efgtoa@mode^(0+128),w
  6372  0357  1D03               	btfss	3,2
  6373  0358  2B5A               	goto	u5761
  6374  0359  2B5B               	goto	u5760
  6375  035A                     u5761:
  6376  035A  2B65               	goto	l4023
  6377  035B                     u5760:
  6378  035B                     l4019:
  6379  035B  3066               	movlw	102
  6380  035C  0641               	xorwf	efgtoa@nmode^(0+128),w
  6381  035D  1D03               	btfss	3,2
  6382  035E  2B60               	goto	u5771
  6383  035F  2B61               	goto	u5770
  6384  0360                     u5771:
  6385  0360  2B69               	goto	l4025
  6386  0361                     u5770:
  6387  0361                     l4021:
  6388  0361  1FD2               	btfss	(efgtoa@e+1)^(0+128),7
  6389  0362  2B64               	goto	u5781
  6390  0363  2B65               	goto	u5780
  6391  0364                     u5781:
  6392  0364  2B69               	goto	l4025
  6393  0365                     u5780:
  6394  0365                     l4023:
  6395                           
  6396                           ;C:\Program Files\Microchip\xc8\v2.31\pic\sources\c99\common\doprnt.c: 413:         ++m;
  6397  0365  3001               	movlw	1
  6398  0366  07B2               	addwf	efgtoa@m^(0+128),f
  6399  0367  3000               	movlw	0
  6400  0368  3DB3               	addwfc	(efgtoa@m+1)^(0+128),f
  6401  0369                     l4025:
  6402                           
  6403                           ;C:\Program Files\Microchip\xc8\v2.31\pic\sources\c99\common\doprnt.c: 417:     if (nmod
      +                          e == 'f') {
  6404  0369  3066               	movlw	102
  6405  036A  0641               	xorwf	efgtoa@nmode^(0+128),w
  6406  036B  1D03               	btfss	3,2
  6407  036C  2B6E               	goto	u5791
  6408  036D  2B6F               	goto	u5790
  6409  036E                     u5791:
  6410  036E  2B87               	goto	l4037
  6411  036F                     u5790:
  6412  036F                     l4027:
  6413                           
  6414                           ;C:\Program Files\Microchip\xc8\v2.31\pic\sources\c99\common\doprnt.c: 418:         if (
      +                          e < 0) {
  6415  036F  1FD2               	btfss	(efgtoa@e+1)^(0+128),7
  6416  0370  2B72               	goto	u5801
  6417  0371  2B73               	goto	u5800
  6418  0372                     u5801:
  6419  0372  2B7D               	goto	l4033
  6420  0373                     u5800:
  6421  0373                     l4029:
  6422                           
  6423                           ;C:\Program Files\Microchip\xc8\v2.31\pic\sources\c99\common\doprnt.c: 419:             
      +                          u = 1.0;
  6424  0373  303F               	movlw	63
  6425  0374  00D8               	movwf	(efgtoa@u+3)^(0+128)
  6426  0375  3080               	movlw	128
  6427  0376  00D7               	movwf	(efgtoa@u+2)^(0+128)
  6428  0377  3000               	movlw	0
  6429  0378  00D6               	movwf	(efgtoa@u+1)^(0+128)
  6430  0379  3000               	movlw	0
  6431  037A  00D5               	movwf	efgtoa@u^(0+128)
  6432  037B                     l4031:
  6433                           
  6434                           ;C:\Program Files\Microchip\xc8\v2.31\pic\sources\c99\common\doprnt.c: 420:             
      +                          e = 0;
  6435  037B  01D1               	clrf	efgtoa@e^(0+128)
  6436  037C  01D2               	clrf	(efgtoa@e+1)^(0+128)
  6437  037D                     l4033:
  6438                           
  6439                           ;C:\Program Files\Microchip\xc8\v2.31\pic\sources\c99\common\doprnt.c: 422:         if (
      +                          !(mode == 'g')) {
  6440  037D  3067               	movlw	103
  6441  037E  0642               	xorwf	efgtoa@mode^(0+128),w
  6442  037F  1903               	btfsc	3,2
  6443  0380  2B82               	goto	u5811
  6444  0381  2B83               	goto	u5810
  6445  0382                     u5811:
  6446  0382  2B87               	goto	l4037
  6447  0383                     u5810:
  6448  0383                     l4035:
  6449                           
  6450                           ;C:\Program Files\Microchip\xc8\v2.31\pic\sources\c99\common\doprnt.c: 423:             
      +                          m += e;
  6451  0383  0851               	movf	efgtoa@e^(0+128),w
  6452  0384  07B2               	addwf	efgtoa@m^(0+128),f
  6453  0385  0852               	movf	(efgtoa@e+1)^(0+128),w
  6454  0386  3DB3               	addwfc	(efgtoa@m+1)^(0+128),f
  6455  0387                     l4037:
  6456                           
  6457                           ;C:\Program Files\Microchip\xc8\v2.31\pic\sources\c99\common\doprnt.c: 428:     i = 0;
  6458  0387  01CB               	clrf	efgtoa@i^(0+128)
  6459  0388  01CC               	clrf	(efgtoa@i+1)^(0+128)
  6460  0389                     l4039:
  6461                           
  6462                           ;C:\Program Files\Microchip\xc8\v2.31\pic\sources\c99\common\doprnt.c: 429:     h = g;
  6463  0389  0850               	movf	(efgtoa@g+3)^(0+128),w
  6464  038A  00C6               	movwf	(efgtoa@h+3)^(0+128)
  6465  038B  084F               	movf	(efgtoa@g+2)^(0+128),w
  6466  038C  00C5               	movwf	(efgtoa@h+2)^(0+128)
  6467  038D  084E               	movf	(efgtoa@g+1)^(0+128),w
  6468  038E  00C4               	movwf	(efgtoa@h+1)^(0+128)
  6469  038F  084D               	movf	efgtoa@g^(0+128),w
  6470  0390  00C3               	movwf	efgtoa@h^(0+128)
  6471  0391                     l4041:
  6472                           
  6473                           ;C:\Program Files\Microchip\xc8\v2.31\pic\sources\c99\common\doprnt.c: 430:     ou = u;
  6474  0391  0858               	movf	(efgtoa@u+3)^(0+128),w
  6475  0392  00B7               	movwf	(efgtoa@ou+3)^(0+128)
  6476  0393  0857               	movf	(efgtoa@u+2)^(0+128),w
  6477  0394  00B6               	movwf	(efgtoa@ou+2)^(0+128)
  6478  0395  0856               	movf	(efgtoa@u+1)^(0+128),w
  6479  0396  00B5               	movwf	(efgtoa@ou+1)^(0+128)
  6480  0397  0855               	movf	efgtoa@u^(0+128),w
  6481  0398  00B4               	movwf	efgtoa@ou^(0+128)
  6482                           
  6483                           ;C:\Program Files\Microchip\xc8\v2.31\pic\sources\c99\common\doprnt.c: 431:     while (i
      +                           < m) {
  6484  0399  2C48               	goto	l4047
  6485  039A                     l4043:
  6486                           
  6487                           ;C:\Program Files\Microchip\xc8\v2.31\pic\sources\c99\common\doprnt.c: 432:         l = 
      +                          floorf(h/u);
  6488  039A  0021               	movlb	1	; select bank1
  6489  039B  0858               	movf	(efgtoa@u+3)^(0+128),w
  6490  039C  00F3               	movwf	___fldiv@a+3
  6491  039D  0857               	movf	(efgtoa@u+2)^(0+128),w
  6492  039E  00F2               	movwf	___fldiv@a+2
  6493  039F  0856               	movf	(efgtoa@u+1)^(0+128),w
  6494  03A0  00F1               	movwf	___fldiv@a+1
  6495  03A1  0855               	movf	efgtoa@u^(0+128),w
  6496  03A2  00F0               	movwf	___fldiv@a
  6497  03A3  0846               	movf	(efgtoa@h+3)^(0+128),w
  6498  03A4  00F7               	movwf	___fldiv@b+3
  6499  03A5  0845               	movf	(efgtoa@h+2)^(0+128),w
  6500  03A6  00F6               	movwf	___fldiv@b+2
  6501  03A7  0844               	movf	(efgtoa@h+1)^(0+128),w
  6502  03A8  00F5               	movwf	___fldiv@b+1
  6503  03A9  0843               	movf	efgtoa@h^(0+128),w
  6504  03AA  00F4               	movwf	___fldiv@b
  6505  03AB  3196  264C  3180   	fcall	___fldiv
  6506  03AE  0873               	movf	?___fldiv+3,w
  6507  03AF  0020               	movlb	0	; select bank0
  6508  03B0  00B0               	movwf	floorf@x+3
  6509  03B1  0872               	movf	?___fldiv+2,w
  6510  03B2  00AF               	movwf	floorf@x+2
  6511  03B3  0871               	movf	?___fldiv+1,w
  6512  03B4  00AE               	movwf	floorf@x+1
  6513  03B5  0870               	movf	?___fldiv,w
  6514  03B6  00AD               	movwf	floorf@x
  6515  03B7  3191  2197  3180   	fcall	_floorf
  6516  03BA  0020               	movlb	0	; select bank0
  6517  03BB  0830               	movf	?_floorf+3,w
  6518  03BC  0021               	movlb	1	; select bank1
  6519  03BD  00CA               	movwf	(efgtoa@l+3)^(0+128)
  6520  03BE  0020               	movlb	0	; select bank0
  6521  03BF  082F               	movf	?_floorf+2,w
  6522  03C0  0021               	movlb	1	; select bank1
  6523  03C1  00C9               	movwf	(efgtoa@l+2)^(0+128)
  6524  03C2  0020               	movlb	0	; select bank0
  6525  03C3  082E               	movf	?_floorf+1,w
  6526  03C4  0021               	movlb	1	; select bank1
  6527  03C5  00C8               	movwf	(efgtoa@l+1)^(0+128)
  6528  03C6  0020               	movlb	0	; select bank0
  6529  03C7  082D               	movf	?_floorf,w
  6530  03C8  0021               	movlb	1	; select bank1
  6531  03C9  00C7               	movwf	efgtoa@l^(0+128)
  6532                           
  6533                           ;C:\Program Files\Microchip\xc8\v2.31\pic\sources\c99\common\doprnt.c: 433:         d = 
      +                          (int)l;
  6534  03CA  084A               	movf	(efgtoa@l+3)^(0+128),w
  6535  03CB  00F3               	movwf	___fltol@f1+3
  6536  03CC  0849               	movf	(efgtoa@l+2)^(0+128),w
  6537  03CD  00F2               	movwf	___fltol@f1+2
  6538  03CE  0848               	movf	(efgtoa@l+1)^(0+128),w
  6539  03CF  00F1               	movwf	___fltol@f1+1
  6540  03D0  0847               	movf	efgtoa@l^(0+128),w
  6541  03D1  00F0               	movwf	___fltol@f1
  6542  03D2  319E  265E  3180   	fcall	___fltol
  6543  03D5  0871               	movf	?___fltol+1,w
  6544  03D6  0021               	movlb	1	; select bank1
  6545  03D7  00B9               	movwf	(efgtoa@d+1)^(0+128)
  6546  03D8  0870               	movf	?___fltol,w
  6547  03D9  00B8               	movwf	efgtoa@d^(0+128)
  6548                           
  6549                           ;C:\Program Files\Microchip\xc8\v2.31\pic\sources\c99\common\doprnt.c: 434:         h -=
      +                           l*u;
  6550  03DA  084A               	movf	(efgtoa@l+3)^(0+128),w
  6551  03DB  0020               	movlb	0	; select bank0
  6552  03DC  00A7               	movwf	___flmul@a+3
  6553  03DD  0021               	movlb	1	; select bank1
  6554  03DE  0849               	movf	(efgtoa@l+2)^(0+128),w
  6555  03DF  0020               	movlb	0	; select bank0
  6556  03E0  00A6               	movwf	___flmul@a+2
  6557  03E1  0021               	movlb	1	; select bank1
  6558  03E2  0848               	movf	(efgtoa@l+1)^(0+128),w
  6559  03E3  0020               	movlb	0	; select bank0
  6560  03E4  00A5               	movwf	___flmul@a+1
  6561  03E5  0021               	movlb	1	; select bank1
  6562  03E6  0847               	movf	efgtoa@l^(0+128),w
  6563  03E7  0020               	movlb	0	; select bank0
  6564  03E8  00A4               	movwf	___flmul@a
  6565  03E9  0021               	movlb	1	; select bank1
  6566  03EA  0858               	movf	(efgtoa@u+3)^(0+128),w
  6567  03EB  0020               	movlb	0	; select bank0
  6568  03EC  00A3               	movwf	___flmul@b+3
  6569  03ED  0021               	movlb	1	; select bank1
  6570  03EE  0857               	movf	(efgtoa@u+2)^(0+128),w
  6571  03EF  0020               	movlb	0	; select bank0
  6572  03F0  00A2               	movwf	___flmul@b+2
  6573  03F1  0021               	movlb	1	; select bank1
  6574  03F2  0856               	movf	(efgtoa@u+1)^(0+128),w
  6575  03F3  0020               	movlb	0	; select bank0
  6576  03F4  00A1               	movwf	___flmul@b+1
  6577  03F5  0021               	movlb	1	; select bank1
  6578  03F6  0855               	movf	efgtoa@u^(0+128),w
  6579  03F7  0020               	movlb	0	; select bank0
  6580  03F8  00A0               	movwf	___flmul@b
  6581  03F9  318A  229B  3180   	fcall	___flmul
  6582  03FC  0020               	movlb	0	; select bank0
  6583  03FD  0823               	movf	?___flmul+3,w
  6584  03FE  00BD               	movwf	___flsub@a+3
  6585  03FF  0822               	movf	?___flmul+2,w
  6586  0400  00BC               	movwf	___flsub@a+2
  6587  0401  0821               	movf	?___flmul+1,w
  6588  0402  00BB               	movwf	___flsub@a+1
  6589  0403  0820               	movf	?___flmul,w
  6590  0404  00BA               	movwf	___flsub@a
  6591  0405  0021               	movlb	1	; select bank1
  6592  0406  0846               	movf	(efgtoa@h+3)^(0+128),w
  6593  0407  0020               	movlb	0	; select bank0
  6594  0408  00C1               	movwf	___flsub@b+3
  6595  0409  0021               	movlb	1	; select bank1
  6596  040A  0845               	movf	(efgtoa@h+2)^(0+128),w
  6597  040B  0020               	movlb	0	; select bank0
  6598  040C  00C0               	movwf	___flsub@b+2
  6599  040D  0021               	movlb	1	; select bank1
  6600  040E  0844               	movf	(efgtoa@h+1)^(0+128),w
  6601  040F  0020               	movlb	0	; select bank0
  6602  0410  00BF               	movwf	___flsub@b+1
  6603  0411  0021               	movlb	1	; select bank1
  6604  0412  0843               	movf	efgtoa@h^(0+128),w
  6605  0413  0020               	movlb	0	; select bank0
  6606  0414  00BE               	movwf	___flsub@b
  6607  0415  319B  2359  3180   	fcall	___flsub
  6608  0418  0020               	movlb	0	; select bank0
  6609  0419  083D               	movf	?___flsub+3,w
  6610  041A  0021               	movlb	1	; select bank1
  6611  041B  00C6               	movwf	(efgtoa@h+3)^(0+128)
  6612  041C  0020               	movlb	0	; select bank0
  6613  041D  083C               	movf	?___flsub+2,w
  6614  041E  0021               	movlb	1	; select bank1
  6615  041F  00C5               	movwf	(efgtoa@h+2)^(0+128)
  6616  0420  0020               	movlb	0	; select bank0
  6617  0421  083B               	movf	?___flsub+1,w
  6618  0422  0021               	movlb	1	; select bank1
  6619  0423  00C4               	movwf	(efgtoa@h+1)^(0+128)
  6620  0424  0020               	movlb	0	; select bank0
  6621  0425  083A               	movf	?___flsub,w
  6622  0426  0021               	movlb	1	; select bank1
  6623  0427  00C3               	movwf	efgtoa@h^(0+128)
  6624                           
  6625                           ;C:\Program Files\Microchip\xc8\v2.31\pic\sources\c99\common\doprnt.c: 435:         u = 
      +                          u/10.0;
  6626  0428  3041               	movlw	65
  6627  0429  00F3               	movwf	___fldiv@a+3
  6628  042A  3020               	movlw	32
  6629  042B  00F2               	movwf	___fldiv@a+2
  6630  042C  3000               	movlw	0
  6631  042D  00F1               	movwf	___fldiv@a+1
  6632  042E  3000               	movlw	0
  6633  042F  00F0               	movwf	___fldiv@a
  6634  0430  0858               	movf	(efgtoa@u+3)^(0+128),w
  6635  0431  00F7               	movwf	___fldiv@b+3
  6636  0432  0857               	movf	(efgtoa@u+2)^(0+128),w
  6637  0433  00F6               	movwf	___fldiv@b+2
  6638  0434  0856               	movf	(efgtoa@u+1)^(0+128),w
  6639  0435  00F5               	movwf	___fldiv@b+1
  6640  0436  0855               	movf	efgtoa@u^(0+128),w
  6641  0437  00F4               	movwf	___fldiv@b
  6642  0438  3196  264C  3180   	fcall	___fldiv
  6643  043B  0873               	movf	?___fldiv+3,w
  6644  043C  0021               	movlb	1	; select bank1
  6645  043D  00D8               	movwf	(efgtoa@u+3)^(0+128)
  6646  043E  0872               	movf	?___fldiv+2,w
  6647  043F  00D7               	movwf	(efgtoa@u+2)^(0+128)
  6648  0440  0871               	movf	?___fldiv+1,w
  6649  0441  00D6               	movwf	(efgtoa@u+1)^(0+128)
  6650  0442  0870               	movf	?___fldiv,w
  6651  0443  00D5               	movwf	efgtoa@u^(0+128)
  6652  0444                     l4045:
  6653                           
  6654                           ;C:\Program Files\Microchip\xc8\v2.31\pic\sources\c99\common\doprnt.c: 436:         ++i;
  6655  0444  3001               	movlw	1
  6656  0445  07CB               	addwf	efgtoa@i^(0+128),f
  6657  0446  3000               	movlw	0
  6658  0447  3DCC               	addwfc	(efgtoa@i+1)^(0+128),f
  6659  0448                     l4047:
  6660                           
  6661                           ;C:\Program Files\Microchip\xc8\v2.31\pic\sources\c99\common\doprnt.c: 431:     while (i
      +                           < m) {
  6662  0448  084C               	movf	(efgtoa@i+1)^(0+128),w
  6663  0449  3A80               	xorlw	128
  6664  044A  0020               	movlb	0	; select bank0
  6665  044B  00CB               	movwf	??_efgtoa
  6666  044C  0021               	movlb	1	; select bank1
  6667  044D  0833               	movf	(efgtoa@m+1)^(0+128),w
  6668  044E  3A80               	xorlw	128
  6669  044F  0020               	movlb	0	; select bank0
  6670  0450  024B               	subwf	??_efgtoa,w
  6671  0451  1D03               	skipz
  6672  0452  2C56               	goto	u5825
  6673  0453  0021               	movlb	1	; select bank1
  6674  0454  0832               	movf	efgtoa@m^(0+128),w
  6675  0455  024B               	subwf	efgtoa@i^(0+128),w
  6676  0456                     u5825:
  6677  0456  1C03               	skipc
  6678  0457  2C59               	goto	u5821
  6679  0458  2C5A               	goto	u5820
  6680  0459                     u5821:
  6681  0459  2B9A               	goto	l4043
  6682  045A                     u5820:
  6683  045A                     l4049:
  6684                           
  6685                           ;C:\Program Files\Microchip\xc8\v2.31\pic\sources\c99\common\doprnt.c: 440:     l = u*5.
      +                          0;
  6686  045A  3040               	movlw	64
  6687  045B  0020               	movlb	0	; select bank0
  6688  045C  00A3               	movwf	___flmul@b+3
  6689  045D  30A0               	movlw	160
  6690  045E  00A2               	movwf	___flmul@b+2
  6691  045F  3000               	movlw	0
  6692  0460  00A1               	movwf	___flmul@b+1
  6693  0461  3000               	movlw	0
  6694  0462  00A0               	movwf	___flmul@b
  6695  0463  0021               	movlb	1	; select bank1
  6696  0464  0858               	movf	(efgtoa@u+3)^(0+128),w
  6697  0465  0020               	movlb	0	; select bank0
  6698  0466  00A7               	movwf	___flmul@a+3
  6699  0467  0021               	movlb	1	; select bank1
  6700  0468  0857               	movf	(efgtoa@u+2)^(0+128),w
  6701  0469  0020               	movlb	0	; select bank0
  6702  046A  00A6               	movwf	___flmul@a+2
  6703  046B  0021               	movlb	1	; select bank1
  6704  046C  0856               	movf	(efgtoa@u+1)^(0+128),w
  6705  046D  0020               	movlb	0	; select bank0
  6706  046E  00A5               	movwf	___flmul@a+1
  6707  046F  0021               	movlb	1	; select bank1
  6708  0470  0855               	movf	efgtoa@u^(0+128),w
  6709  0471  0020               	movlb	0	; select bank0
  6710  0472  00A4               	movwf	___flmul@a
  6711  0473  318A  229B  3180   	fcall	___flmul
  6712  0476  0020               	movlb	0	; select bank0
  6713  0477  0823               	movf	?___flmul+3,w
  6714  0478  0021               	movlb	1	; select bank1
  6715  0479  00CA               	movwf	(efgtoa@l+3)^(0+128)
  6716  047A  0020               	movlb	0	; select bank0
  6717  047B  0822               	movf	?___flmul+2,w
  6718  047C  0021               	movlb	1	; select bank1
  6719  047D  00C9               	movwf	(efgtoa@l+2)^(0+128)
  6720  047E  0020               	movlb	0	; select bank0
  6721  047F  0821               	movf	?___flmul+1,w
  6722  0480  0021               	movlb	1	; select bank1
  6723  0481  00C8               	movwf	(efgtoa@l+1)^(0+128)
  6724  0482  0020               	movlb	0	; select bank0
  6725  0483  0820               	movf	?___flmul,w
  6726  0484  0021               	movlb	1	; select bank1
  6727  0485  00C7               	movwf	efgtoa@l^(0+128)
  6728                           
  6729                           ;C:\Program Files\Microchip\xc8\v2.31\pic\sources\c99\common\doprnt.c: 441:     if (h < 
      +                          l) {
  6730  0486  0846               	movf	(efgtoa@h+3)^(0+128),w
  6731  0487  0020               	movlb	0	; select bank0
  6732  0488  00BD               	movwf	___flge@ff1+3
  6733  0489  0021               	movlb	1	; select bank1
  6734  048A  0845               	movf	(efgtoa@h+2)^(0+128),w
  6735  048B  0020               	movlb	0	; select bank0
  6736  048C  00BC               	movwf	___flge@ff1+2
  6737  048D  0021               	movlb	1	; select bank1
  6738  048E  0844               	movf	(efgtoa@h+1)^(0+128),w
  6739  048F  0020               	movlb	0	; select bank0
  6740  0490  00BB               	movwf	___flge@ff1+1
  6741  0491  0021               	movlb	1	; select bank1
  6742  0492  0843               	movf	efgtoa@h^(0+128),w
  6743  0493  0020               	movlb	0	; select bank0
  6744  0494  00BA               	movwf	___flge@ff1
  6745  0495  0021               	movlb	1	; select bank1
  6746  0496  084A               	movf	(efgtoa@l+3)^(0+128),w
  6747  0497  0020               	movlb	0	; select bank0
  6748  0498  00C1               	movwf	___flge@ff2+3
  6749  0499  0021               	movlb	1	; select bank1
  6750  049A  0849               	movf	(efgtoa@l+2)^(0+128),w
  6751  049B  0020               	movlb	0	; select bank0
  6752  049C  00C0               	movwf	___flge@ff2+2
  6753  049D  0021               	movlb	1	; select bank1
  6754  049E  0848               	movf	(efgtoa@l+1)^(0+128),w
  6755  049F  0020               	movlb	0	; select bank0
  6756  04A0  00BF               	movwf	___flge@ff2+1
  6757  04A1  0021               	movlb	1	; select bank1
  6758  04A2  0847               	movf	efgtoa@l^(0+128),w
  6759  04A3  0020               	movlb	0	; select bank0
  6760  04A4  00BE               	movwf	___flge@ff2
  6761  04A5  3190  2022  3180   	fcall	___flge
  6762  04A8  1803               	btfsc	3,0
  6763  04A9  2CAB               	goto	u5831
  6764  04AA  2CAC               	goto	u5830
  6765  04AB                     u5831:
  6766  04AB  2CB6               	goto	l4053
  6767  04AC                     u5830:
  6768  04AC                     l4051:
  6769                           
  6770                           ;C:\Program Files\Microchip\xc8\v2.31\pic\sources\c99\common\doprnt.c: 442:         l = 
      +                          0.0;
  6771  04AC  3000               	movlw	0
  6772  04AD  0021               	movlb	1	; select bank1
  6773  04AE  00CA               	movwf	(efgtoa@l+3)^(0+128)
  6774  04AF  3000               	movlw	0
  6775  04B0  00C9               	movwf	(efgtoa@l+2)^(0+128)
  6776  04B1  3000               	movlw	0
  6777  04B2  00C8               	movwf	(efgtoa@l+1)^(0+128)
  6778  04B3  3000               	movlw	0
  6779  04B4  00C7               	movwf	efgtoa@l^(0+128)
  6780                           
  6781                           ;C:\Program Files\Microchip\xc8\v2.31\pic\sources\c99\common\doprnt.c: 443:     } else {
  6782  04B5  2CDB               	goto	l4059
  6783  04B6                     l4053:
  6784                           
  6785                           ;C:\Program Files\Microchip\xc8\v2.31\pic\sources\c99\common\doprnt.c: 445:         if (
      +                          (h == l) && !(d % 2)) {
  6786  04B6  0021               	movlb	1	; select bank1
  6787  04B7  0846               	movf	(efgtoa@h+3)^(0+128),w
  6788  04B8  00F3               	movwf	___fleq@ff1+3
  6789  04B9  0845               	movf	(efgtoa@h+2)^(0+128),w
  6790  04BA  00F2               	movwf	___fleq@ff1+2
  6791  04BB  0844               	movf	(efgtoa@h+1)^(0+128),w
  6792  04BC  00F1               	movwf	___fleq@ff1+1
  6793  04BD  0843               	movf	efgtoa@h^(0+128),w
  6794  04BE  00F0               	movwf	___fleq@ff1
  6795  04BF  084A               	movf	(efgtoa@l+3)^(0+128),w
  6796  04C0  00F7               	movwf	___fleq@ff2+3
  6797  04C1  0849               	movf	(efgtoa@l+2)^(0+128),w
  6798  04C2  00F6               	movwf	___fleq@ff2+2
  6799  04C3  0848               	movf	(efgtoa@l+1)^(0+128),w
  6800  04C4  00F5               	movwf	___fleq@ff2+1
  6801  04C5  0847               	movf	efgtoa@l^(0+128),w
  6802  04C6  00F4               	movwf	___fleq@ff2
  6803  04C7  319C  24B0  3180   	fcall	___fleq
  6804  04CA  1C03               	btfss	3,0
  6805  04CB  2CCD               	goto	u5841
  6806  04CC  2CCE               	goto	u5840
  6807  04CD                     u5841:
  6808  04CD  2CDB               	goto	l4059
  6809  04CE                     u5840:
  6810  04CE                     l4055:
  6811  04CE  0021               	movlb	1	; select bank1
  6812  04CF  1838               	btfsc	efgtoa@d^(0+128),0
  6813  04D0  2CD2               	goto	u5851
  6814  04D1  2CD3               	goto	u5850
  6815  04D2                     u5851:
  6816  04D2  2CDB               	goto	l4059
  6817  04D3                     u5850:
  6818  04D3                     l4057:
  6819                           
  6820                           ;C:\Program Files\Microchip\xc8\v2.31\pic\sources\c99\common\doprnt.c: 446:             
      +                          l = 0.0;
  6821  04D3  3000               	movlw	0
  6822  04D4  00CA               	movwf	(efgtoa@l+3)^(0+128)
  6823  04D5  3000               	movlw	0
  6824  04D6  00C9               	movwf	(efgtoa@l+2)^(0+128)
  6825  04D7  3000               	movlw	0
  6826  04D8  00C8               	movwf	(efgtoa@l+1)^(0+128)
  6827  04D9  3000               	movlw	0
  6828  04DA  00C7               	movwf	efgtoa@l^(0+128)
  6829  04DB                     l4059:
  6830                           
  6831                           ;C:\Program Files\Microchip\xc8\v2.31\pic\sources\c99\common\doprnt.c: 451:     h = g + 
      +                          l;
  6832  04DB  0021               	movlb	1	; select bank1
  6833  04DC  084A               	movf	(efgtoa@l+3)^(0+128),w
  6834  04DD  00F3               	movwf	___fladd@b+3
  6835  04DE  0849               	movf	(efgtoa@l+2)^(0+128),w
  6836  04DF  00F2               	movwf	___fladd@b+2
  6837  04E0  0848               	movf	(efgtoa@l+1)^(0+128),w
  6838  04E1  00F1               	movwf	___fladd@b+1
  6839  04E2  0847               	movf	efgtoa@l^(0+128),w
  6840  04E3  00F0               	movwf	___fladd@b
  6841  04E4  0850               	movf	(efgtoa@g+3)^(0+128),w
  6842  04E5  00F7               	movwf	___fladd@a+3
  6843  04E6  084F               	movf	(efgtoa@g+2)^(0+128),w
  6844  04E7  00F6               	movwf	___fladd@a+2
  6845  04E8  084E               	movf	(efgtoa@g+1)^(0+128),w
  6846  04E9  00F5               	movwf	___fladd@a+1
  6847  04EA  084D               	movf	efgtoa@g^(0+128),w
  6848  04EB  00F4               	movwf	___fladd@a
  6849  04EC  3188  205C  3180   	fcall	___fladd
  6850  04EF  0873               	movf	?___fladd+3,w
  6851  04F0  0021               	movlb	1	; select bank1
  6852  04F1  00C6               	movwf	(efgtoa@h+3)^(0+128)
  6853  04F2  0872               	movf	?___fladd+2,w
  6854  04F3  00C5               	movwf	(efgtoa@h+2)^(0+128)
  6855  04F4  0871               	movf	?___fladd+1,w
  6856  04F5  00C4               	movwf	(efgtoa@h+1)^(0+128)
  6857  04F6  0870               	movf	?___fladd,w
  6858  04F7  00C3               	movwf	efgtoa@h^(0+128)
  6859  04F8                     l4061:
  6860                           
  6861                           ;C:\Program Files\Microchip\xc8\v2.31\pic\sources\c99\common\doprnt.c: 453:  if (h >= (o
      +                          u*10.0)) {
  6862  04F8  0846               	movf	(efgtoa@h+3)^(0+128),w
  6863  04F9  0020               	movlb	0	; select bank0
  6864  04FA  00BD               	movwf	___flge@ff1+3
  6865  04FB  0021               	movlb	1	; select bank1
  6866  04FC  0845               	movf	(efgtoa@h+2)^(0+128),w
  6867  04FD  0020               	movlb	0	; select bank0
  6868  04FE  00BC               	movwf	___flge@ff1+2
  6869  04FF  0021               	movlb	1	; select bank1
  6870  0500  0844               	movf	(efgtoa@h+1)^(0+128),w
  6871  0501  0020               	movlb	0	; select bank0
  6872  0502  00BB               	movwf	___flge@ff1+1
  6873  0503  0021               	movlb	1	; select bank1
  6874  0504  0843               	movf	efgtoa@h^(0+128),w
  6875  0505  0020               	movlb	0	; select bank0
  6876  0506  00BA               	movwf	___flge@ff1
  6877  0507  3041               	movlw	65
  6878  0508  00A3               	movwf	___flmul@b+3
  6879  0509  3020               	movlw	32
  6880  050A  00A2               	movwf	___flmul@b+2
  6881  050B  3000               	movlw	0
  6882  050C  00A1               	movwf	___flmul@b+1
  6883  050D  3000               	movlw	0
  6884  050E  00A0               	movwf	___flmul@b
  6885  050F  0021               	movlb	1	; select bank1
  6886  0510  0837               	movf	(efgtoa@ou+3)^(0+128),w
  6887  0511  0020               	movlb	0	; select bank0
  6888  0512  00A7               	movwf	___flmul@a+3
  6889  0513  0021               	movlb	1	; select bank1
  6890  0514  0836               	movf	(efgtoa@ou+2)^(0+128),w
  6891  0515  0020               	movlb	0	; select bank0
  6892  0516  00A6               	movwf	___flmul@a+2
  6893  0517  0021               	movlb	1	; select bank1
  6894  0518  0835               	movf	(efgtoa@ou+1)^(0+128),w
  6895  0519  0020               	movlb	0	; select bank0
  6896  051A  00A5               	movwf	___flmul@a+1
  6897  051B  0021               	movlb	1	; select bank1
  6898  051C  0834               	movf	efgtoa@ou^(0+128),w
  6899  051D  0020               	movlb	0	; select bank0
  6900  051E  00A4               	movwf	___flmul@a
  6901  051F  318A  229B  3180   	fcall	___flmul
  6902  0522  0020               	movlb	0	; select bank0
  6903  0523  0823               	movf	?___flmul+3,w
  6904  0524  00C1               	movwf	___flge@ff2+3
  6905  0525  0822               	movf	?___flmul+2,w
  6906  0526  00C0               	movwf	___flge@ff2+2
  6907  0527  0821               	movf	?___flmul+1,w
  6908  0528  00BF               	movwf	___flge@ff2+1
  6909  0529  0820               	movf	?___flmul,w
  6910  052A  00BE               	movwf	___flge@ff2
  6911  052B  3190  2022  3180   	fcall	___flge
  6912  052E  1C03               	btfss	3,0
  6913  052F  2D31               	goto	u5861
  6914  0530  2D32               	goto	u5860
  6915  0531                     u5861:
  6916  0531  2D6D               	goto	l1006
  6917  0532                     u5860:
  6918  0532                     l4063:
  6919                           
  6920                           ;C:\Program Files\Microchip\xc8\v2.31\pic\sources\c99\common\doprnt.c: 454:   e++;
  6921  0532  3001               	movlw	1
  6922  0533  0021               	movlb	1	; select bank1
  6923  0534  07D1               	addwf	efgtoa@e^(0+128),f
  6924  0535  3000               	movlw	0
  6925  0536  3DD2               	addwfc	(efgtoa@e+1)^(0+128),f
  6926  0537                     l4065:
  6927                           
  6928                           ;C:\Program Files\Microchip\xc8\v2.31\pic\sources\c99\common\doprnt.c: 455:   ou *= 10.0
      +                          ;
  6929  0537  3041               	movlw	65
  6930  0538  0020               	movlb	0	; select bank0
  6931  0539  00A3               	movwf	___flmul@b+3
  6932  053A  3020               	movlw	32
  6933  053B  00A2               	movwf	___flmul@b+2
  6934  053C  3000               	movlw	0
  6935  053D  00A1               	movwf	___flmul@b+1
  6936  053E  3000               	movlw	0
  6937  053F  00A0               	movwf	___flmul@b
  6938  0540  0021               	movlb	1	; select bank1
  6939  0541  0837               	movf	(efgtoa@ou+3)^(0+128),w
  6940  0542  0020               	movlb	0	; select bank0
  6941  0543  00A7               	movwf	___flmul@a+3
  6942  0544  0021               	movlb	1	; select bank1
  6943  0545  0836               	movf	(efgtoa@ou+2)^(0+128),w
  6944  0546  0020               	movlb	0	; select bank0
  6945  0547  00A6               	movwf	___flmul@a+2
  6946  0548  0021               	movlb	1	; select bank1
  6947  0549  0835               	movf	(efgtoa@ou+1)^(0+128),w
  6948  054A  0020               	movlb	0	; select bank0
  6949  054B  00A5               	movwf	___flmul@a+1
  6950  054C  0021               	movlb	1	; select bank1
  6951  054D  0834               	movf	efgtoa@ou^(0+128),w
  6952  054E  0020               	movlb	0	; select bank0
  6953  054F  00A4               	movwf	___flmul@a
  6954  0550  318A  229B  3180   	fcall	___flmul
  6955  0553  0020               	movlb	0	; select bank0
  6956  0554  0823               	movf	?___flmul+3,w
  6957  0555  0021               	movlb	1	; select bank1
  6958  0556  00B7               	movwf	(efgtoa@ou+3)^(0+128)
  6959  0557  0020               	movlb	0	; select bank0
  6960  0558  0822               	movf	?___flmul+2,w
  6961  0559  0021               	movlb	1	; select bank1
  6962  055A  00B6               	movwf	(efgtoa@ou+2)^(0+128)
  6963  055B  0020               	movlb	0	; select bank0
  6964  055C  0821               	movf	?___flmul+1,w
  6965  055D  0021               	movlb	1	; select bank1
  6966  055E  00B5               	movwf	(efgtoa@ou+1)^(0+128)
  6967  055F  0020               	movlb	0	; select bank0
  6968  0560  0820               	movf	?___flmul,w
  6969  0561  0021               	movlb	1	; select bank1
  6970  0562  00B4               	movwf	efgtoa@ou^(0+128)
  6971  0563                     l4067:
  6972                           
  6973                           ;C:\Program Files\Microchip\xc8\v2.31\pic\sources\c99\common\doprnt.c: 456:   if (nmode 
      +                          == 'f') {
  6974  0563  3066               	movlw	102
  6975  0564  0641               	xorwf	efgtoa@nmode^(0+128),w
  6976  0565  1D03               	btfss	3,2
  6977  0566  2D68               	goto	u5871
  6978  0567  2D69               	goto	u5870
  6979  0568                     u5871:
  6980  0568  2D6D               	goto	l1006
  6981  0569                     u5870:
  6982  0569                     l4069:
  6983                           
  6984                           ;C:\Program Files\Microchip\xc8\v2.31\pic\sources\c99\common\doprnt.c: 458:    m++;
  6985  0569  3001               	movlw	1
  6986  056A  07B2               	addwf	efgtoa@m^(0+128),f
  6987  056B  3000               	movlw	0
  6988  056C  3DB3               	addwfc	(efgtoa@m+1)^(0+128),f
  6989  056D                     l1006:	
  6990                           ;C:\Program Files\Microchip\xc8\v2.31\pic\sources\c99\common\doprnt.c: 460:  }
  6991                           
  6992                           
  6993                           ;C:\Program Files\Microchip\xc8\v2.31\pic\sources\c99\common\doprnt.c: 463:     u = ou;
  6994  056D  0021               	movlb	1	; select bank1
  6995  056E  0837               	movf	(efgtoa@ou+3)^(0+128),w
  6996  056F  00D8               	movwf	(efgtoa@u+3)^(0+128)
  6997  0570  0836               	movf	(efgtoa@ou+2)^(0+128),w
  6998  0571  00D7               	movwf	(efgtoa@u+2)^(0+128)
  6999  0572  0835               	movf	(efgtoa@ou+1)^(0+128),w
  7000  0573  00D6               	movwf	(efgtoa@u+1)^(0+128)
  7001  0574  0834               	movf	efgtoa@ou^(0+128),w
  7002  0575  00D5               	movwf	efgtoa@u^(0+128)
  7003  0576                     l4071:
  7004                           
  7005                           ;C:\Program Files\Microchip\xc8\v2.31\pic\sources\c99\common\doprnt.c: 464:     ne = (nm
      +                          ode == 'e') ? 0 : e;
  7006  0576  3065               	movlw	101
  7007  0577  0641               	xorwf	efgtoa@nmode^(0+128),w
  7008  0578  1903               	btfsc	3,2
  7009  0579  2D7B               	goto	u5881
  7010  057A  2D7C               	goto	u5880
  7011  057B                     u5881:
  7012  057B  2D81               	goto	l4075
  7013  057C                     u5880:
  7014  057C                     l4073:
  7015  057C  0852               	movf	(efgtoa@e+1)^(0+128),w
  7016  057D  00B1               	movwf	(efgtoa@ne+1)^(0+128)
  7017  057E  0851               	movf	efgtoa@e^(0+128),w
  7018  057F  00B0               	movwf	efgtoa@ne^(0+128)
  7019  0580  2D83               	goto	l1011
  7020  0581                     l4075:
  7021  0581  01B0               	clrf	efgtoa@ne^(0+128)
  7022  0582  01B1               	clrf	(efgtoa@ne+1)^(0+128)
  7023  0583                     l1011:
  7024                           
  7025                           ;C:\Program Files\Microchip\xc8\v2.31\pic\sources\c99\common\doprnt.c: 465:     pp = 0;
  7026  0583  01AE               	clrf	efgtoa@pp^(0+128)
  7027  0584  01AF               	clrf	(efgtoa@pp+1)^(0+128)
  7028                           
  7029                           ;C:\Program Files\Microchip\xc8\v2.31\pic\sources\c99\common\doprnt.c: 466:     t = 0;
  7030  0585  01AC               	clrf	efgtoa@t^(0+128)
  7031  0586  01AD               	clrf	(efgtoa@t+1)^(0+128)
  7032                           
  7033                           ;C:\Program Files\Microchip\xc8\v2.31\pic\sources\c99\common\doprnt.c: 467:     i = 0;
  7034  0587  01CB               	clrf	efgtoa@i^(0+128)
  7035  0588  01CC               	clrf	(efgtoa@i+1)^(0+128)
  7036                           
  7037                           ;C:\Program Files\Microchip\xc8\v2.31\pic\sources\c99\common\doprnt.c: 468:     while ((
      +                          i < m) && (n < (80 - 5))) {
  7038  0589  2EAE               	goto	l4125
  7039  058A                     l4077:
  7040                           
  7041                           ;C:\Program Files\Microchip\xc8\v2.31\pic\sources\c99\common\doprnt.c: 469:         l = 
      +                          floorf(h/u);
  7042  058A  0021               	movlb	1	; select bank1
  7043  058B  0858               	movf	(efgtoa@u+3)^(0+128),w
  7044  058C  00F3               	movwf	___fldiv@a+3
  7045  058D  0857               	movf	(efgtoa@u+2)^(0+128),w
  7046  058E  00F2               	movwf	___fldiv@a+2
  7047  058F  0856               	movf	(efgtoa@u+1)^(0+128),w
  7048  0590  00F1               	movwf	___fldiv@a+1
  7049  0591  0855               	movf	efgtoa@u^(0+128),w
  7050  0592  00F0               	movwf	___fldiv@a
  7051  0593  0846               	movf	(efgtoa@h+3)^(0+128),w
  7052  0594  00F7               	movwf	___fldiv@b+3
  7053  0595  0845               	movf	(efgtoa@h+2)^(0+128),w
  7054  0596  00F6               	movwf	___fldiv@b+2
  7055  0597  0844               	movf	(efgtoa@h+1)^(0+128),w
  7056  0598  00F5               	movwf	___fldiv@b+1
  7057  0599  0843               	movf	efgtoa@h^(0+128),w
  7058  059A  00F4               	movwf	___fldiv@b
  7059  059B  3196  264C  3180   	fcall	___fldiv
  7060  059E  0873               	movf	?___fldiv+3,w
  7061  059F  0020               	movlb	0	; select bank0
  7062  05A0  00B0               	movwf	floorf@x+3
  7063  05A1  0872               	movf	?___fldiv+2,w
  7064  05A2  00AF               	movwf	floorf@x+2
  7065  05A3  0871               	movf	?___fldiv+1,w
  7066  05A4  00AE               	movwf	floorf@x+1
  7067  05A5  0870               	movf	?___fldiv,w
  7068  05A6  00AD               	movwf	floorf@x
  7069  05A7  3191  2197  3180   	fcall	_floorf
  7070  05AA  0020               	movlb	0	; select bank0
  7071  05AB  0830               	movf	?_floorf+3,w
  7072  05AC  0021               	movlb	1	; select bank1
  7073  05AD  00CA               	movwf	(efgtoa@l+3)^(0+128)
  7074  05AE  0020               	movlb	0	; select bank0
  7075  05AF  082F               	movf	?_floorf+2,w
  7076  05B0  0021               	movlb	1	; select bank1
  7077  05B1  00C9               	movwf	(efgtoa@l+2)^(0+128)
  7078  05B2  0020               	movlb	0	; select bank0
  7079  05B3  082E               	movf	?_floorf+1,w
  7080  05B4  0021               	movlb	1	; select bank1
  7081  05B5  00C8               	movwf	(efgtoa@l+1)^(0+128)
  7082  05B6  0020               	movlb	0	; select bank0
  7083  05B7  082D               	movf	?_floorf,w
  7084  05B8  0021               	movlb	1	; select bank1
  7085  05B9  00C7               	movwf	efgtoa@l^(0+128)
  7086                           
  7087                           ;C:\Program Files\Microchip\xc8\v2.31\pic\sources\c99\common\doprnt.c: 470:         d = 
      +                          (int)l;
  7088  05BA  084A               	movf	(efgtoa@l+3)^(0+128),w
  7089  05BB  00F3               	movwf	___fltol@f1+3
  7090  05BC  0849               	movf	(efgtoa@l+2)^(0+128),w
  7091  05BD  00F2               	movwf	___fltol@f1+2
  7092  05BE  0848               	movf	(efgtoa@l+1)^(0+128),w
  7093  05BF  00F1               	movwf	___fltol@f1+1
  7094  05C0  0847               	movf	efgtoa@l^(0+128),w
  7095  05C1  00F0               	movwf	___fltol@f1
  7096  05C2  319E  265E  3180   	fcall	___fltol
  7097  05C5  0871               	movf	?___fltol+1,w
  7098  05C6  0021               	movlb	1	; select bank1
  7099  05C7  00B9               	movwf	(efgtoa@d+1)^(0+128)
  7100  05C8  0870               	movf	?___fltol,w
  7101  05C9  00B8               	movwf	efgtoa@d^(0+128)
  7102  05CA                     l4079:
  7103                           
  7104                           ;C:\Program Files\Microchip\xc8\v2.31\pic\sources\c99\common\doprnt.c: 471:         if (
      +                          !(flags & (1 << 4)) && !d && (mode == 'g') && (ne < 0)) {
  7105  05CA  1A6E               	btfsc	_flags^(0+128),4
  7106  05CB  2DCD               	goto	u5891
  7107  05CC  2DCE               	goto	u5890
  7108  05CD                     u5891:
  7109  05CD  2DE3               	goto	l4089
  7110  05CE                     u5890:
  7111  05CE                     l4081:
  7112  05CE  0838               	movf	efgtoa@d^(0+128),w
  7113  05CF  0439               	iorwf	(efgtoa@d+1)^(0+128),w
  7114  05D0  1D03               	btfss	3,2
  7115  05D1  2DD3               	goto	u5901
  7116  05D2  2DD4               	goto	u5900
  7117  05D3                     u5901:
  7118  05D3  2DE3               	goto	l4089
  7119  05D4                     u5900:
  7120  05D4                     l4083:
  7121  05D4  3067               	movlw	103
  7122  05D5  0642               	xorwf	efgtoa@mode^(0+128),w
  7123  05D6  1D03               	btfss	3,2
  7124  05D7  2DD9               	goto	u5911
  7125  05D8  2DDA               	goto	u5910
  7126  05D9                     u5911:
  7127  05D9  2DE3               	goto	l4089
  7128  05DA                     u5910:
  7129  05DA                     l4085:
  7130  05DA  1FB1               	btfss	(efgtoa@ne+1)^(0+128),7
  7131  05DB  2DDD               	goto	u5921
  7132  05DC  2DDE               	goto	u5920
  7133  05DD                     u5921:
  7134  05DD  2DE3               	goto	l4089
  7135  05DE                     u5920:
  7136  05DE                     l4087:
  7137                           
  7138                           ;C:\Program Files\Microchip\xc8\v2.31\pic\sources\c99\common\doprnt.c: 472:             
      +                          ++t;
  7139  05DE  3001               	movlw	1
  7140  05DF  07AC               	addwf	efgtoa@t^(0+128),f
  7141  05E0  3000               	movlw	0
  7142  05E1  3DAD               	addwfc	(efgtoa@t+1)^(0+128),f
  7143                           
  7144                           ;C:\Program Files\Microchip\xc8\v2.31\pic\sources\c99\common\doprnt.c: 473:         } el
      +                          se {
  7145  05E2  2E3C               	goto	l4117
  7146  05E3                     l4089:
  7147                           
  7148                           ;C:\Program Files\Microchip\xc8\v2.31\pic\sources\c99\common\doprnt.c: 474:             
      +                          if (!pp && (ne < 0)) {
  7149  05E3  082E               	movf	efgtoa@pp^(0+128),w
  7150  05E4  042F               	iorwf	(efgtoa@pp+1)^(0+128),w
  7151  05E5  1D03               	btfss	3,2
  7152  05E6  2DE8               	goto	u5931
  7153  05E7  2DE9               	goto	u5930
  7154  05E8                     u5931:
  7155  05E8  2E20               	goto	l4109
  7156  05E9                     u5930:
  7157  05E9                     l4091:
  7158  05E9  1FB1               	btfss	(efgtoa@ne+1)^(0+128),7
  7159  05EA  2DEC               	goto	u5941
  7160  05EB  2DED               	goto	u5940
  7161  05EC                     u5941:
  7162  05EC  2E20               	goto	l4109
  7163  05ED                     u5940:
  7164  05ED                     l4093:
  7165                           
  7166                           ;C:\Program Files\Microchip\xc8\v2.31\pic\sources\c99\common\doprnt.c: 475:             
      +                              dbuf[n++] = '.';
  7167  05ED  302E               	movlw	46
  7168  05EE  0020               	movlb	0	; select bank0
  7169  05EF  00CB               	movwf	??_efgtoa
  7170  05F0  0021               	movlb	1	; select bank1
  7171  05F1  0853               	movf	efgtoa@n^(0+128),w
  7172  05F2  3EA0               	addlw	(low (_dbuf| (0+256)))& (0+255)
  7173  05F3  0086               	movwf	6
  7174  05F4  3001               	movlw	1	; select bank3/4
  7175  05F5  0087               	movwf	7
  7176  05F6  0020               	movlb	0	; select bank0
  7177  05F7  084B               	movf	??_efgtoa,w
  7178  05F8  0081               	movwf	1
  7179  05F9                     l4095:
  7180  05F9  3001               	movlw	1
  7181  05FA  0021               	movlb	1	; select bank1
  7182  05FB  07D3               	addwf	efgtoa@n^(0+128),f
  7183  05FC  3000               	movlw	0
  7184  05FD  3DD4               	addwfc	(efgtoa@n+1)^(0+128),f
  7185  05FE                     l4097:
  7186                           
  7187                           ;C:\Program Files\Microchip\xc8\v2.31\pic\sources\c99\common\doprnt.c: 476:             
      +                              --w;
  7188  05FE  30FF               	movlw	255
  7189  05FF  07BF               	addwf	efgtoa@w^(0+128),f
  7190  0600  30FF               	movlw	255
  7191  0601  3DC0               	addwfc	(efgtoa@w+1)^(0+128),f
  7192  0602                     l4099:
  7193                           
  7194                           ;C:\Program Files\Microchip\xc8\v2.31\pic\sources\c99\common\doprnt.c: 477:             
      +                              pp = 1;
  7195  0602  3001               	movlw	1
  7196  0603  00AE               	movwf	efgtoa@pp^(0+128)
  7197  0604  3000               	movlw	0
  7198  0605  00AF               	movwf	(efgtoa@pp^(0+128)+1)
  7199  0606  2E20               	goto	l4109
  7200  0607                     l4101:
  7201                           
  7202                           ;C:\Program Files\Microchip\xc8\v2.31\pic\sources\c99\common\doprnt.c: 480:             
      +                              dbuf[n++] = '0';
  7203  0607  3030               	movlw	48
  7204  0608  0020               	movlb	0	; select bank0
  7205  0609  00CB               	movwf	??_efgtoa
  7206  060A  0021               	movlb	1	; select bank1
  7207  060B  0853               	movf	efgtoa@n^(0+128),w
  7208  060C  3EA0               	addlw	(low (_dbuf| (0+256)))& (0+255)
  7209  060D  0086               	movwf	6
  7210  060E  3001               	movlw	1	; select bank3/4
  7211  060F  0087               	movwf	7
  7212  0610  0020               	movlb	0	; select bank0
  7213  0611  084B               	movf	??_efgtoa,w
  7214  0612  0081               	movwf	1
  7215  0613                     l4103:
  7216  0613  3001               	movlw	1
  7217  0614  0021               	movlb	1	; select bank1
  7218  0615  07D3               	addwf	efgtoa@n^(0+128),f
  7219  0616  3000               	movlw	0
  7220  0617  3DD4               	addwfc	(efgtoa@n+1)^(0+128),f
  7221  0618                     l4105:
  7222                           
  7223                           ;C:\Program Files\Microchip\xc8\v2.31\pic\sources\c99\common\doprnt.c: 481:             
      +                              --w;
  7224  0618  30FF               	movlw	255
  7225  0619  07BF               	addwf	efgtoa@w^(0+128),f
  7226  061A  30FF               	movlw	255
  7227  061B  3DC0               	addwfc	(efgtoa@w+1)^(0+128),f
  7228  061C                     l4107:
  7229                           
  7230                           ;C:\Program Files\Microchip\xc8\v2.31\pic\sources\c99\common\doprnt.c: 482:             
      +                              --t;
  7231  061C  30FF               	movlw	255
  7232  061D  07AC               	addwf	efgtoa@t^(0+128),f
  7233  061E  30FF               	movlw	255
  7234  061F  3DAD               	addwfc	(efgtoa@t+1)^(0+128),f
  7235  0620                     l4109:
  7236                           
  7237                           ;C:\Program Files\Microchip\xc8\v2.31\pic\sources\c99\common\doprnt.c: 479:             
      +                          while (t) {
  7238  0620  082C               	movf	efgtoa@t^(0+128),w
  7239  0621  042D               	iorwf	(efgtoa@t+1)^(0+128),w
  7240  0622  1D03               	btfss	3,2
  7241  0623  2E25               	goto	u5951
  7242  0624  2E26               	goto	u5950
  7243  0625                     u5951:
  7244  0625  2E07               	goto	l4101
  7245  0626                     u5950:
  7246  0626                     l4111:
  7247                           
  7248                           ;C:\Program Files\Microchip\xc8\v2.31\pic\sources\c99\common\doprnt.c: 484:             
      +                          dbuf[n++] = (char)((int)'0' + d);
  7249  0626  0838               	movf	efgtoa@d^(0+128),w
  7250  0627  3E30               	addlw	48
  7251  0628  0020               	movlb	0	; select bank0
  7252  0629  00CB               	movwf	??_efgtoa
  7253  062A  0021               	movlb	1	; select bank1
  7254  062B  0853               	movf	efgtoa@n^(0+128),w
  7255  062C  3EA0               	addlw	(low (_dbuf| (0+256)))& (0+255)
  7256  062D  0086               	movwf	6
  7257  062E  3001               	movlw	1	; select bank3/4
  7258  062F  0087               	movwf	7
  7259  0630  0020               	movlb	0	; select bank0
  7260  0631  084B               	movf	??_efgtoa,w
  7261  0632  0081               	movwf	1
  7262  0633                     l4113:
  7263  0633  3001               	movlw	1
  7264  0634  0021               	movlb	1	; select bank1
  7265  0635  07D3               	addwf	efgtoa@n^(0+128),f
  7266  0636  3000               	movlw	0
  7267  0637  3DD4               	addwfc	(efgtoa@n+1)^(0+128),f
  7268  0638                     l4115:
  7269                           
  7270                           ;C:\Program Files\Microchip\xc8\v2.31\pic\sources\c99\common\doprnt.c: 485:             
      +                          --w;
  7271  0638  30FF               	movlw	255
  7272  0639  07BF               	addwf	efgtoa@w^(0+128),f
  7273  063A  30FF               	movlw	255
  7274  063B  3DC0               	addwfc	(efgtoa@w+1)^(0+128),f
  7275  063C                     l4117:
  7276                           
  7277                           ;C:\Program Files\Microchip\xc8\v2.31\pic\sources\c99\common\doprnt.c: 487:         h -=
      +                           l*u;
  7278  063C  084A               	movf	(efgtoa@l+3)^(0+128),w
  7279  063D  0020               	movlb	0	; select bank0
  7280  063E  00A7               	movwf	___flmul@a+3
  7281  063F  0021               	movlb	1	; select bank1
  7282  0640  0849               	movf	(efgtoa@l+2)^(0+128),w
  7283  0641  0020               	movlb	0	; select bank0
  7284  0642  00A6               	movwf	___flmul@a+2
  7285  0643  0021               	movlb	1	; select bank1
  7286  0644  0848               	movf	(efgtoa@l+1)^(0+128),w
  7287  0645  0020               	movlb	0	; select bank0
  7288  0646  00A5               	movwf	___flmul@a+1
  7289  0647  0021               	movlb	1	; select bank1
  7290  0648  0847               	movf	efgtoa@l^(0+128),w
  7291  0649  0020               	movlb	0	; select bank0
  7292  064A  00A4               	movwf	___flmul@a
  7293  064B  0021               	movlb	1	; select bank1
  7294  064C  0858               	movf	(efgtoa@u+3)^(0+128),w
  7295  064D  0020               	movlb	0	; select bank0
  7296  064E  00A3               	movwf	___flmul@b+3
  7297  064F  0021               	movlb	1	; select bank1
  7298  0650  0857               	movf	(efgtoa@u+2)^(0+128),w
  7299  0651  0020               	movlb	0	; select bank0
  7300  0652  00A2               	movwf	___flmul@b+2
  7301  0653  0021               	movlb	1	; select bank1
  7302  0654  0856               	movf	(efgtoa@u+1)^(0+128),w
  7303  0655  0020               	movlb	0	; select bank0
  7304  0656  00A1               	movwf	___flmul@b+1
  7305  0657  0021               	movlb	1	; select bank1
  7306  0658  0855               	movf	efgtoa@u^(0+128),w
  7307  0659  0020               	movlb	0	; select bank0
  7308  065A  00A0               	movwf	___flmul@b
  7309  065B  318A  229B  3180   	fcall	___flmul
  7310  065E  0020               	movlb	0	; select bank0
  7311  065F  0823               	movf	?___flmul+3,w
  7312  0660  00BD               	movwf	___flsub@a+3
  7313  0661  0822               	movf	?___flmul+2,w
  7314  0662  00BC               	movwf	___flsub@a+2
  7315  0663  0821               	movf	?___flmul+1,w
  7316  0664  00BB               	movwf	___flsub@a+1
  7317  0665  0820               	movf	?___flmul,w
  7318  0666  00BA               	movwf	___flsub@a
  7319  0667  0021               	movlb	1	; select bank1
  7320  0668  0846               	movf	(efgtoa@h+3)^(0+128),w
  7321  0669  0020               	movlb	0	; select bank0
  7322  066A  00C1               	movwf	___flsub@b+3
  7323  066B  0021               	movlb	1	; select bank1
  7324  066C  0845               	movf	(efgtoa@h+2)^(0+128),w
  7325  066D  0020               	movlb	0	; select bank0
  7326  066E  00C0               	movwf	___flsub@b+2
  7327  066F  0021               	movlb	1	; select bank1
  7328  0670  0844               	movf	(efgtoa@h+1)^(0+128),w
  7329  0671  0020               	movlb	0	; select bank0
  7330  0672  00BF               	movwf	___flsub@b+1
  7331  0673  0021               	movlb	1	; select bank1
  7332  0674  0843               	movf	efgtoa@h^(0+128),w
  7333  0675  0020               	movlb	0	; select bank0
  7334  0676  00BE               	movwf	___flsub@b
  7335  0677  319B  2359  3180   	fcall	___flsub
  7336  067A  0020               	movlb	0	; select bank0
  7337  067B  083D               	movf	?___flsub+3,w
  7338  067C  0021               	movlb	1	; select bank1
  7339  067D  00C6               	movwf	(efgtoa@h+3)^(0+128)
  7340  067E  0020               	movlb	0	; select bank0
  7341  067F  083C               	movf	?___flsub+2,w
  7342  0680  0021               	movlb	1	; select bank1
  7343  0681  00C5               	movwf	(efgtoa@h+2)^(0+128)
  7344  0682  0020               	movlb	0	; select bank0
  7345  0683  083B               	movf	?___flsub+1,w
  7346  0684  0021               	movlb	1	; select bank1
  7347  0685  00C4               	movwf	(efgtoa@h+1)^(0+128)
  7348  0686  0020               	movlb	0	; select bank0
  7349  0687  083A               	movf	?___flsub,w
  7350  0688  0021               	movlb	1	; select bank1
  7351  0689  00C3               	movwf	efgtoa@h^(0+128)
  7352  068A                     l4119:
  7353                           
  7354                           ;C:\Program Files\Microchip\xc8\v2.31\pic\sources\c99\common\doprnt.c: 488:         u = 
      +                          u/10.0;
  7355  068A  3041               	movlw	65
  7356  068B  00F3               	movwf	___fldiv@a+3
  7357  068C  3020               	movlw	32
  7358  068D  00F2               	movwf	___fldiv@a+2
  7359  068E  3000               	movlw	0
  7360  068F  00F1               	movwf	___fldiv@a+1
  7361  0690  3000               	movlw	0
  7362  0691  00F0               	movwf	___fldiv@a
  7363  0692  0858               	movf	(efgtoa@u+3)^(0+128),w
  7364  0693  00F7               	movwf	___fldiv@b+3
  7365  0694  0857               	movf	(efgtoa@u+2)^(0+128),w
  7366  0695  00F6               	movwf	___fldiv@b+2
  7367  0696  0856               	movf	(efgtoa@u+1)^(0+128),w
  7368  0697  00F5               	movwf	___fldiv@b+1
  7369  0698  0855               	movf	efgtoa@u^(0+128),w
  7370  0699  00F4               	movwf	___fldiv@b
  7371  069A  3196  264C  3180   	fcall	___fldiv
  7372  069D  0873               	movf	?___fldiv+3,w
  7373  069E  0021               	movlb	1	; select bank1
  7374  069F  00D8               	movwf	(efgtoa@u+3)^(0+128)
  7375  06A0  0872               	movf	?___fldiv+2,w
  7376  06A1  00D7               	movwf	(efgtoa@u+2)^(0+128)
  7377  06A2  0871               	movf	?___fldiv+1,w
  7378  06A3  00D6               	movwf	(efgtoa@u+1)^(0+128)
  7379  06A4  0870               	movf	?___fldiv,w
  7380  06A5  00D5               	movwf	efgtoa@u^(0+128)
  7381  06A6                     l4121:
  7382                           
  7383                           ;C:\Program Files\Microchip\xc8\v2.31\pic\sources\c99\common\doprnt.c: 489:         --ne
      +                          ;
  7384  06A6  30FF               	movlw	255
  7385  06A7  07B0               	addwf	efgtoa@ne^(0+128),f
  7386  06A8  30FF               	movlw	255
  7387  06A9  3DB1               	addwfc	(efgtoa@ne+1)^(0+128),f
  7388  06AA                     l4123:
  7389                           
  7390                           ;C:\Program Files\Microchip\xc8\v2.31\pic\sources\c99\common\doprnt.c: 490:         ++i;
  7391  06AA  3001               	movlw	1
  7392  06AB  07CB               	addwf	efgtoa@i^(0+128),f
  7393  06AC  3000               	movlw	0
  7394  06AD  3DCC               	addwfc	(efgtoa@i+1)^(0+128),f
  7395  06AE                     l4125:
  7396                           
  7397                           ;C:\Program Files\Microchip\xc8\v2.31\pic\sources\c99\common\doprnt.c: 468:     while ((
      +                          i < m) && (n < (80 - 5))) {
  7398  06AE  084C               	movf	(efgtoa@i+1)^(0+128),w
  7399  06AF  3A80               	xorlw	128
  7400  06B0  0020               	movlb	0	; select bank0
  7401  06B1  00CB               	movwf	??_efgtoa
  7402  06B2  0021               	movlb	1	; select bank1
  7403  06B3  0833               	movf	(efgtoa@m+1)^(0+128),w
  7404  06B4  3A80               	xorlw	128
  7405  06B5  0020               	movlb	0	; select bank0
  7406  06B6  024B               	subwf	??_efgtoa,w
  7407  06B7  1D03               	skipz
  7408  06B8  2EBC               	goto	u5965
  7409  06B9  0021               	movlb	1	; select bank1
  7410  06BA  0832               	movf	efgtoa@m^(0+128),w
  7411  06BB  024B               	subwf	efgtoa@i^(0+128),w
  7412  06BC                     u5965:
  7413  06BC  1803               	skipnc
  7414  06BD  2EBF               	goto	u5961
  7415  06BE  2EC0               	goto	u5960
  7416  06BF                     u5961:
  7417  06BF  2ED0               	goto	l4129
  7418  06C0                     u5960:
  7419  06C0                     l4127:
  7420  06C0  0021               	movlb	1	; select bank1
  7421  06C1  0854               	movf	(efgtoa@n+1)^(0+128),w
  7422  06C2  3A80               	xorlw	128
  7423  06C3  0020               	movlb	0	; select bank0
  7424  06C4  00CB               	movwf	??_efgtoa
  7425  06C5  3080               	movlw	128
  7426  06C6  024B               	subwf	??_efgtoa,w
  7427  06C7  1D03               	skipz
  7428  06C8  2ECC               	goto	u5975
  7429  06C9  304B               	movlw	75
  7430  06CA  0021               	movlb	1	; select bank1
  7431  06CB  0253               	subwf	efgtoa@n^(0+128),w
  7432  06CC                     u5975:
  7433  06CC  1C03               	skipc
  7434  06CD  2ECF               	goto	u5971
  7435  06CE  2ED0               	goto	u5970
  7436  06CF                     u5971:
  7437  06CF  2D8A               	goto	l4077
  7438  06D0                     u5970:
  7439  06D0                     l4129:
  7440                           
  7441                           ;C:\Program Files\Microchip\xc8\v2.31\pic\sources\c99\common\doprnt.c: 492:     if (!pp 
      +                          && (flags & (1 << 4))) {
  7442  06D0  0021               	movlb	1	; select bank1
  7443  06D1  082E               	movf	efgtoa@pp^(0+128),w
  7444  06D2  042F               	iorwf	(efgtoa@pp+1)^(0+128),w
  7445  06D3  1D03               	btfss	3,2
  7446  06D4  2ED6               	goto	u5981
  7447  06D5  2ED7               	goto	u5980
  7448  06D6                     u5981:
  7449  06D6  2EEC               	goto	l4137
  7450  06D7                     u5980:
  7451  06D7                     l4131:
  7452  06D7  1E6E               	btfss	_flags^(0+128),4
  7453  06D8  2EDA               	goto	u5991
  7454  06D9  2EDB               	goto	u5990
  7455  06DA                     u5991:
  7456  06DA  2EEC               	goto	l4137
  7457  06DB                     u5990:
  7458  06DB                     l4133:
  7459                           
  7460                           ;C:\Program Files\Microchip\xc8\v2.31\pic\sources\c99\common\doprnt.c: 493:         dbuf
      +                          [n++] = '.';
  7461  06DB  302E               	movlw	46
  7462  06DC  0020               	movlb	0	; select bank0
  7463  06DD  00CB               	movwf	??_efgtoa
  7464  06DE  0021               	movlb	1	; select bank1
  7465  06DF  0853               	movf	efgtoa@n^(0+128),w
  7466  06E0  3EA0               	addlw	(low (_dbuf| (0+256)))& (0+255)
  7467  06E1  0086               	movwf	6
  7468  06E2  3001               	movlw	1	; select bank3/4
  7469  06E3  0087               	movwf	7
  7470  06E4  0020               	movlb	0	; select bank0
  7471  06E5  084B               	movf	??_efgtoa,w
  7472  06E6  0081               	movwf	1
  7473  06E7                     l4135:
  7474  06E7  3001               	movlw	1
  7475  06E8  0021               	movlb	1	; select bank1
  7476  06E9  07D3               	addwf	efgtoa@n^(0+128),f
  7477  06EA  3000               	movlw	0
  7478  06EB  3DD4               	addwfc	(efgtoa@n+1)^(0+128),f
  7479  06EC                     l4137:
  7480                           
  7481                           ;C:\Program Files\Microchip\xc8\v2.31\pic\sources\c99\common\doprnt.c: 495:     dbuf[n] 
      +                          = '\0';
  7482  06EC  0853               	movf	efgtoa@n^(0+128),w
  7483  06ED  3EA0               	addlw	(low (_dbuf| (0+256)))& (0+255)
  7484  06EE  0086               	movwf	6
  7485  06EF  3001               	movlw	1	; select bank3/4
  7486  06F0  0087               	movwf	7
  7487  06F1  0181               	clrf	1
  7488  06F2                     l4139:
  7489                           
  7490                           ;C:\Program Files\Microchip\xc8\v2.31\pic\sources\c99\common\doprnt.c: 498:     if (nmod
      +                          e == 'e') {
  7491  06F2  3065               	movlw	101
  7492  06F3  0641               	xorwf	efgtoa@nmode^(0+128),w
  7493  06F4  1D03               	btfss	3,2
  7494  06F5  2EF7               	goto	u6001
  7495  06F6  2EF8               	goto	u6000
  7496  06F7                     u6001:
  7497  06F7  2FD0               	goto	l4199
  7498  06F8                     u6000:
  7499  06F8                     l4141:
  7500                           
  7501                           ;C:\Program Files\Microchip\xc8\v2.31\pic\sources\c99\common\doprnt.c: 499:         i = 
      +                          sizeof(dbuf) - 1;
  7502  06F8  304F               	movlw	79
  7503  06F9  00CB               	movwf	efgtoa@i^(0+128)
  7504  06FA  3000               	movlw	0
  7505  06FB  00CC               	movwf	(efgtoa@i^(0+128)+1)
  7506  06FC                     l4143:
  7507                           
  7508                           ;C:\Program Files\Microchip\xc8\v2.31\pic\sources\c99\common\doprnt.c: 500:         dbuf
      +                          [i] = '\0';
  7509  06FC  084B               	movf	efgtoa@i^(0+128),w
  7510  06FD  3EA0               	addlw	(low (_dbuf| (0+256)))& (0+255)
  7511  06FE  0086               	movwf	6
  7512  06FF  3001               	movlw	1	; select bank3/4
  7513  0700  0087               	movwf	7
  7514  0701  0181               	clrf	1
  7515  0702                     l4145:
  7516                           
  7517                           ;C:\Program Files\Microchip\xc8\v2.31\pic\sources\c99\common\doprnt.c: 501:         sign
      +                           = 0;
  7518  0702  01BA               	clrf	efgtoa@sign^(0+128)
  7519  0703  01BB               	clrf	(efgtoa@sign+1)^(0+128)
  7520  0704                     l4147:
  7521                           
  7522                           ;C:\Program Files\Microchip\xc8\v2.31\pic\sources\c99\common\doprnt.c: 502:         if (
      +                          e < 0) {
  7523  0704  1FD2               	btfss	(efgtoa@e+1)^(0+128),7
  7524  0705  2F07               	goto	u6011
  7525  0706  2F08               	goto	u6010
  7526  0707                     u6011:
  7527  0707  2F11               	goto	l4153
  7528  0708                     u6010:
  7529  0708                     l4149:
  7530                           
  7531                           ;C:\Program Files\Microchip\xc8\v2.31\pic\sources\c99\common\doprnt.c: 503:             
      +                          sign = 1;
  7532  0708  3001               	movlw	1
  7533  0709  00BA               	movwf	efgtoa@sign^(0+128)
  7534  070A  3000               	movlw	0
  7535  070B  00BB               	movwf	(efgtoa@sign^(0+128)+1)
  7536  070C                     l4151:
  7537                           
  7538                           ;C:\Program Files\Microchip\xc8\v2.31\pic\sources\c99\common\doprnt.c: 504:             
      +                          e = -e;
  7539  070C  09D1               	comf	efgtoa@e^(0+128),f
  7540  070D  09D2               	comf	(efgtoa@e+1)^(0+128),f
  7541  070E  0AD1               	incf	efgtoa@e^(0+128),f
  7542  070F  1903               	skipnz
  7543  0710  0AD2               	incf	(efgtoa@e+1)^(0+128),f
  7544  0711                     l4153:
  7545                           
  7546                           ;C:\Program Files\Microchip\xc8\v2.31\pic\sources\c99\common\doprnt.c: 506:         p = 
      +                          2;
  7547  0711  3002               	movlw	2
  7548  0712  00BD               	movwf	efgtoa@p^(0+128)
  7549  0713  3000               	movlw	0
  7550  0714  00BE               	movwf	(efgtoa@p^(0+128)+1)
  7551                           
  7552                           ;C:\Program Files\Microchip\xc8\v2.31\pic\sources\c99\common\doprnt.c: 507:         whil
      +                          e (e || (0 < p)) {
  7553  0715  2F4C               	goto	l4165
  7554  0716                     l4155:
  7555                           
  7556                           ;C:\Program Files\Microchip\xc8\v2.31\pic\sources\c99\common\doprnt.c: 508:             
      +                          --i;
  7557  0716  30FF               	movlw	255
  7558  0717  0021               	movlb	1	; select bank1
  7559  0718  07CB               	addwf	efgtoa@i^(0+128),f
  7560  0719  30FF               	movlw	255
  7561  071A  3DCC               	addwfc	(efgtoa@i+1)^(0+128),f
  7562  071B                     l4157:
  7563                           
  7564                           ;C:\Program Files\Microchip\xc8\v2.31\pic\sources\c99\common\doprnt.c: 509:             
      +                          dbuf[i] = '0' + (e % 10);
  7565  071B  300A               	movlw	10
  7566  071C  00F0               	movwf	___awmod@divisor
  7567  071D  3000               	movlw	0
  7568  071E  00F1               	movwf	___awmod@divisor+1
  7569  071F  0852               	movf	(efgtoa@e+1)^(0+128),w
  7570  0720  00F3               	movwf	___awmod@dividend+1
  7571  0721  0851               	movf	efgtoa@e^(0+128),w
  7572  0722  00F2               	movwf	___awmod@dividend
  7573  0723  319C  24FE  3180   	fcall	___awmod
  7574  0726  0870               	movf	?___awmod,w
  7575  0727  3E30               	addlw	48
  7576  0728  0020               	movlb	0	; select bank0
  7577  0729  00CB               	movwf	??_efgtoa
  7578  072A  0021               	movlb	1	; select bank1
  7579  072B  084B               	movf	efgtoa@i^(0+128),w
  7580  072C  3EA0               	addlw	(low (_dbuf| (0+256)))& (0+255)
  7581  072D  0086               	movwf	6
  7582  072E  3001               	movlw	1	; select bank3/4
  7583  072F  0087               	movwf	7
  7584  0730  0020               	movlb	0	; select bank0
  7585  0731  084B               	movf	??_efgtoa,w
  7586  0732  0081               	movwf	1
  7587  0733                     l4159:
  7588                           
  7589                           ;C:\Program Files\Microchip\xc8\v2.31\pic\sources\c99\common\doprnt.c: 510:             
      +                          e = e / 10;
  7590  0733  300A               	movlw	10
  7591  0734  00F0               	movwf	___awdiv@divisor
  7592  0735  3000               	movlw	0
  7593  0736  00F1               	movwf	___awdiv@divisor+1
  7594  0737  0021               	movlb	1	; select bank1
  7595  0738  0852               	movf	(efgtoa@e+1)^(0+128),w
  7596  0739  00F3               	movwf	___awdiv@dividend+1
  7597  073A  0851               	movf	efgtoa@e^(0+128),w
  7598  073B  00F2               	movwf	___awdiv@dividend
  7599  073C  319D  25FF  3180   	fcall	___awdiv
  7600  073F  0871               	movf	?___awdiv+1,w
  7601  0740  0021               	movlb	1	; select bank1
  7602  0741  00D2               	movwf	(efgtoa@e+1)^(0+128)
  7603  0742  0870               	movf	?___awdiv,w
  7604  0743  00D1               	movwf	efgtoa@e^(0+128)
  7605  0744                     l4161:
  7606                           
  7607                           ;C:\Program Files\Microchip\xc8\v2.31\pic\sources\c99\common\doprnt.c: 511:             
      +                          --p;
  7608  0744  30FF               	movlw	255
  7609  0745  07BD               	addwf	efgtoa@p^(0+128),f
  7610  0746  30FF               	movlw	255
  7611  0747  3DBE               	addwfc	(efgtoa@p+1)^(0+128),f
  7612  0748                     l4163:
  7613                           
  7614                           ;C:\Program Files\Microchip\xc8\v2.31\pic\sources\c99\common\doprnt.c: 512:             
      +                          --w;
  7615  0748  30FF               	movlw	255
  7616  0749  07BF               	addwf	efgtoa@w^(0+128),f
  7617  074A  30FF               	movlw	255
  7618  074B  3DC0               	addwfc	(efgtoa@w+1)^(0+128),f
  7619  074C                     l4165:
  7620                           
  7621                           ;C:\Program Files\Microchip\xc8\v2.31\pic\sources\c99\common\doprnt.c: 507:         whil
      +                          e (e || (0 < p)) {
  7622  074C  0851               	movf	efgtoa@e^(0+128),w
  7623  074D  0452               	iorwf	(efgtoa@e+1)^(0+128),w
  7624  074E  1D03               	btfss	3,2
  7625  074F  2F51               	goto	u6021
  7626  0750  2F52               	goto	u6020
  7627  0751                     u6021:
  7628  0751  2F16               	goto	l4155
  7629  0752                     u6020:
  7630  0752                     l4167:
  7631  0752  083E               	movf	(efgtoa@p+1)^(0+128),w
  7632  0753  3A80               	xorlw	128
  7633  0754  0020               	movlb	0	; select bank0
  7634  0755  00CB               	movwf	??_efgtoa
  7635  0756  3080               	movlw	128
  7636  0757  024B               	subwf	??_efgtoa,w
  7637  0758  1D03               	skipz
  7638  0759  2F5D               	goto	u6035
  7639  075A  3001               	movlw	1
  7640  075B  0021               	movlb	1	; select bank1
  7641  075C  023D               	subwf	efgtoa@p^(0+128),w
  7642  075D                     u6035:
  7643  075D  1803               	skipnc
  7644  075E  2F60               	goto	u6031
  7645  075F  2F61               	goto	u6030
  7646  0760                     u6031:
  7647  0760  2F16               	goto	l4155
  7648  0761                     u6030:
  7649  0761                     l4169:
  7650                           
  7651                           ;C:\Program Files\Microchip\xc8\v2.31\pic\sources\c99\common\doprnt.c: 514:         --i;
  7652  0761  30FF               	movlw	255
  7653  0762  0021               	movlb	1	; select bank1
  7654  0763  07CB               	addwf	efgtoa@i^(0+128),f
  7655  0764  30FF               	movlw	255
  7656  0765  3DCC               	addwfc	(efgtoa@i+1)^(0+128),f
  7657  0766                     l4171:
  7658                           
  7659                           ;C:\Program Files\Microchip\xc8\v2.31\pic\sources\c99\common\doprnt.c: 515:         dbuf
      +                          [i] = sign ? '-' : '+';
  7660  0766  083A               	movf	efgtoa@sign^(0+128),w
  7661  0767  043B               	iorwf	(efgtoa@sign+1)^(0+128),w
  7662  0768  1D03               	btfss	3,2
  7663  0769  2F6B               	goto	u6041
  7664  076A  2F6C               	goto	u6040
  7665  076B                     u6041:
  7666  076B  2F71               	goto	l4175
  7667  076C                     u6040:
  7668  076C                     l4173:
  7669  076C  302B               	movlw	43
  7670  076D  00A6               	movwf	_efgtoa$988^(0+128)
  7671  076E  3000               	movlw	0
  7672  076F  00A7               	movwf	(_efgtoa$988^(0+128)+1)
  7673  0770  2F75               	goto	l4177
  7674  0771                     l4175:
  7675  0771  302D               	movlw	45
  7676  0772  00A6               	movwf	_efgtoa$988^(0+128)
  7677  0773  3000               	movlw	0
  7678  0774  00A7               	movwf	(_efgtoa$988^(0+128)+1)
  7679  0775                     l4177:
  7680  0775  0826               	movf	_efgtoa$988^(0+128),w
  7681  0776  0020               	movlb	0	; select bank0
  7682  0777  00CB               	movwf	??_efgtoa
  7683  0778  0021               	movlb	1	; select bank1
  7684  0779  084B               	movf	efgtoa@i^(0+128),w
  7685  077A  3EA0               	addlw	(low (_dbuf| (0+256)))& (0+255)
  7686  077B  0086               	movwf	6
  7687  077C  3001               	movlw	1	; select bank3/4
  7688  077D  0087               	movwf	7
  7689  077E  0020               	movlb	0	; select bank0
  7690  077F  084B               	movf	??_efgtoa,w
  7691  0780  0081               	movwf	1
  7692  0781                     l4179:
  7693                           
  7694                           ;C:\Program Files\Microchip\xc8\v2.31\pic\sources\c99\common\doprnt.c: 516:         --w;
  7695  0781  30FF               	movlw	255
  7696  0782  0021               	movlb	1	; select bank1
  7697  0783  07BF               	addwf	efgtoa@w^(0+128),f
  7698  0784  30FF               	movlw	255
  7699  0785  3DC0               	addwfc	(efgtoa@w+1)^(0+128),f
  7700  0786                     l4181:
  7701                           
  7702                           ;C:\Program Files\Microchip\xc8\v2.31\pic\sources\c99\common\doprnt.c: 518:         dbuf
      +                          [i] = (0 ? isupper((int)c) : ((unsigned)((int)c)-'A') < 26) ? 'E' : 'e';
  7703  0786  30FF               	movlw	255
  7704  0787  07CB               	addwf	efgtoa@i^(0+128),f
  7705  0788  30FF               	movlw	255
  7706  0789  3DCC               	addwfc	(efgtoa@i+1)^(0+128),f
  7707  078A                     l4183:
  7708  078A  0020               	movlb	0	; select bank0
  7709  078B  084A               	movf	efgtoa@c,w
  7710  078C  3EBF               	addlw	191
  7711  078D  00CB               	movwf	??_efgtoa
  7712  078E  30FF               	movlw	255
  7713  078F  1803               	skipnc
  7714  0790  3000               	movlw	0
  7715  0791  00CC               	movwf	??_efgtoa+1
  7716  0792  3000               	movlw	0
  7717  0793  024C               	subwf	??_efgtoa+1,w
  7718  0794  301A               	movlw	26
  7719  0795  1903               	skipnz
  7720  0796  024B               	subwf	??_efgtoa,w
  7721  0797  1C03               	skipc
  7722  0798  2F9A               	goto	u6051
  7723  0799  2F9C               	goto	u6050
  7724  079A                     u6051:
  7725  079A  3001               	movlw	1
  7726  079B  2F9D               	goto	u6060
  7727  079C                     u6050:
  7728  079C  3000               	movlw	0
  7729  079D                     u6060:
  7730  079D  00CD               	movwf	??_efgtoa+2
  7731  079E  01CE               	clrf	??_efgtoa+3
  7732  079F  084D               	movf	??_efgtoa+2,w
  7733  07A0  0021               	movlb	1	; select bank1
  7734  07A1  00AA               	movwf	_efgtoa$990^(0+128)
  7735  07A2  0020               	movlb	0	; select bank0
  7736  07A3  084E               	movf	??_efgtoa+3,w
  7737  07A4  0021               	movlb	1	; select bank1
  7738  07A5  00AB               	movwf	(_efgtoa$990+1)^(0+128)
  7739  07A6                     l4187:
  7740  07A6  082A               	movf	_efgtoa$990^(0+128),w
  7741  07A7  042B               	iorwf	(_efgtoa$990+1)^(0+128),w
  7742  07A8  1D03               	btfss	3,2
  7743  07A9  2FAB               	goto	u6071
  7744  07AA  2FAC               	goto	u6070
  7745  07AB                     u6071:
  7746  07AB  2FB1               	goto	l4191
  7747  07AC                     u6070:
  7748  07AC                     l4189:
  7749  07AC  3065               	movlw	101
  7750  07AD  00A8               	movwf	_efgtoa$989^(0+128)
  7751  07AE  3000               	movlw	0
  7752  07AF  00A9               	movwf	(_efgtoa$989^(0+128)+1)
  7753  07B0  2FB5               	goto	l4193
  7754  07B1                     l4191:
  7755  07B1  3045               	movlw	69
  7756  07B2  00A8               	movwf	_efgtoa$989^(0+128)
  7757  07B3  3000               	movlw	0
  7758  07B4  00A9               	movwf	(_efgtoa$989^(0+128)+1)
  7759  07B5                     l4193:
  7760  07B5  0828               	movf	_efgtoa$989^(0+128),w
  7761  07B6  0020               	movlb	0	; select bank0
  7762  07B7  00CB               	movwf	??_efgtoa
  7763  07B8  0021               	movlb	1	; select bank1
  7764  07B9  084B               	movf	efgtoa@i^(0+128),w
  7765  07BA  3EA0               	addlw	(low (_dbuf| (0+256)))& (0+255)
  7766  07BB  0086               	movwf	6
  7767  07BC  3001               	movlw	1	; select bank3/4
  7768  07BD  0087               	movwf	7
  7769  07BE  0020               	movlb	0	; select bank0
  7770  07BF  084B               	movf	??_efgtoa,w
  7771  07C0  0081               	movwf	1
  7772  07C1                     l4195:
  7773                           
  7774                           ;C:\Program Files\Microchip\xc8\v2.31\pic\sources\c99\common\doprnt.c: 519:         --w;
  7775  07C1  30FF               	movlw	255
  7776  07C2  0021               	movlb	1	; select bank1
  7777  07C3  07BF               	addwf	efgtoa@w^(0+128),f
  7778  07C4  30FF               	movlw	255
  7779  07C5  3DC0               	addwfc	(efgtoa@w+1)^(0+128),f
  7780  07C6                     l4197:
  7781                           
  7782                           ;C:\Program Files\Microchip\xc8\v2.31\pic\sources\c99\common\doprnt.c: 520:         strc
      +                          py(&dbuf[n], &dbuf[i]);
  7783  07C6  084B               	movf	efgtoa@i^(0+128),w
  7784  07C7  3EA0               	addlw	(low (_dbuf| (0+256)))& (0+255)
  7785  07C8  00F0               	movwf	strcpy@src
  7786  07C9  3001               	movlw	1
  7787  07CA  00F1               	movwf	strcpy@src+1
  7788  07CB  0853               	movf	efgtoa@n^(0+128),w
  7789  07CC  3EA0               	addlw	(low (_dbuf| (0+256)))& (0+255)
  7790  07CD  319B  239A  3180   	fcall	_strcpy
  7791  07D0                     l4199:
  7792                           
  7793                           ;C:\Program Files\Microchip\xc8\v2.31\pic\sources\c99\common\doprnt.c: 524:     return p
      +                          ad(fp, &dbuf[0], w);
  7794  07D0  30A0               	movlw	(low (_dbuf| (0+256)))& (0+255)
  7795  07D1  0020               	movlb	0	; select bank0
  7796  07D2  00CB               	movwf	??_efgtoa
  7797  07D3  084B               	movf	??_efgtoa,w
  7798  07D4  00A4               	movwf	pad@buf
  7799  07D5  0021               	movlb	1	; select bank1
  7800  07D6  0840               	movf	(efgtoa@w+1)^(0+128),w
  7801  07D7  0020               	movlb	0	; select bank0
  7802  07D8  00A6               	movwf	pad@p+1
  7803  07D9  0021               	movlb	1	; select bank1
  7804  07DA  083F               	movf	efgtoa@w^(0+128),w
  7805  07DB  0020               	movlb	0	; select bank0
  7806  07DC  00A5               	movwf	pad@p
  7807  07DD  0021               	movlb	1	; select bank1
  7808  07DE  083C               	movf	efgtoa@fp^(0+128),w
  7809  07DF  3188  2003  3180   	fcall	_pad
  7810  07E2  0020               	movlb	0	; select bank0
  7811  07E3  0825               	movf	?_pad+1,w
  7812  07E4  00C7               	movwf	?_efgtoa+1
  7813  07E5  0824               	movf	?_pad,w
  7814  07E6  00C6               	movwf	?_efgtoa
  7815  07E7                     l965:
  7816  07E7  0008               	return
  7817  07E8                     __end_of_efgtoa:
  7818                           
  7819                           	psect	text6
  7820  1C03                     __ptext6:	
  7821 ;; *************** function _tolower *****************
  7822 ;; Defined at:
  7823 ;;		line 4 in file "C:\Program Files\Microchip\xc8\v2.31\pic\sources\c99\common\tolower.c"
  7824 ;; Parameters:    Size  Location     Type
  7825 ;;  c               2    6[COMMON] int 
  7826 ;; Auto vars:     Size  Location     Type
  7827 ;;		None
  7828 ;; Return value:  Size  Location     Type
  7829 ;;                  2    6[COMMON] int 
  7830 ;; Registers used:
  7831 ;;		wreg, status,2, status,0
  7832 ;; Tracked objects:
  7833 ;;		On entry : 0/0
  7834 ;;		On exit  : 0/0
  7835 ;;		Unchanged: 0/0
  7836 ;; Data sizes:     COMMON   BANK0   BANK1   BANK2   BANK3   BANK4   BANK5   BANK6   BANK7   BANK8   BANK9  BANK10  BANK1
      +1  BANK12  BANK13  BANK14  BANK15  BANK16  BANK17  BANK18  BANK19  BANK20  BANK21  BANK22  BANK23  BANK24  BANK25
  7837 ;;      Params:         2       0       0       0       0       0       0       0       0       0       0       0       
      +0       0       0       0       0       0       0       0       0       0       0       0       0       0       0
  7838 ;;      Locals:         2       0       0       0       0       0       0       0       0       0       0       0       
      +0       0       0       0       0       0       0       0       0       0       0       0       0       0       0
  7839 ;;      Temps:          4       0       0       0       0       0       0       0       0       0       0       0       
      +0       0       0       0       0       0       0       0       0       0       0       0       0       0       0
  7840 ;;      Totals:         8       0       0       0       0       0       0       0       0       0       0       0       
      +0       0       0       0       0       0       0       0       0       0       0       0       0       0       0
  7841 ;;Total ram usage:        8 bytes
  7842 ;; Hardware stack levels used:    1
  7843 ;; Hardware stack levels required when called:    1
  7844 ;; This function calls:
  7845 ;;		_isupper
  7846 ;; This function is called by:
  7847 ;;		_efgtoa
  7848 ;;		_vfpfcnvrt
  7849 ;; This function uses a non-reentrant model
  7850 ;;
  7851                           
  7852                           
  7853                           ;psect for function _tolower
  7854  1C03                     _tolower:
  7855  1C03                     l3789:	
  7856                           ;incstack = 0
  7857                           ; Regs used in _tolower: [wreg+status,2+status,0]
  7858                           
  7859  1C03  0876               	movf	tolower@c,w
  7860  1C04  3EBF               	addlw	191
  7861  1C05  00F8               	movwf	??_tolower
  7862  1C06  30FF               	movlw	255
  7863  1C07  3D77               	addwfc	tolower@c+1,w
  7864  1C08  00F9               	movwf	??_tolower+1
  7865  1C09  3000               	movlw	0
  7866  1C0A  0279               	subwf	??_tolower+1,w
  7867  1C0B  301A               	movlw	26
  7868  1C0C  1903               	skipnz
  7869  1C0D  0278               	subwf	??_tolower,w
  7870  1C0E  1C03               	skipc
  7871  1C0F  2C11               	goto	u5201
  7872  1C10  2C13               	goto	u5200
  7873  1C11                     u5201:
  7874  1C11  3001               	movlw	1
  7875  1C12  2C14               	goto	u5210
  7876  1C13                     u5200:
  7877  1C13  3000               	movlw	0
  7878  1C14                     u5210:
  7879  1C14  00FA               	movwf	??_tolower+2
  7880  1C15  01FB               	clrf	??_tolower+3
  7881  1C16  087A               	movf	??_tolower+2,w
  7882  1C17  00FC               	movwf	_tolower$1141
  7883  1C18  087B               	movf	??_tolower+3,w
  7884  1C19  00FD               	movwf	_tolower$1141+1
  7885  1C1A                     l3793:
  7886  1C1A  087C               	movf	_tolower$1141,w
  7887  1C1B  047D               	iorwf	_tolower$1141+1,w
  7888  1C1C  1903               	btfsc	3,2
  7889  1C1D  2C1F               	goto	u5221
  7890  1C1E  2C20               	goto	u5220
  7891  1C1F                     u5221:
  7892  1C1F  2C27               	goto	l1215
  7893  1C20                     u5220:
  7894  1C20                     l3795:
  7895  1C20  3020               	movlw	32
  7896  1C21  0476               	iorwf	tolower@c,w
  7897  1C22  00F6               	movwf	?_tolower
  7898  1C23  3000               	movlw	0
  7899  1C24  0477               	iorwf	tolower@c+1,w
  7900  1C25  00F7               	movwf	?_tolower+1
  7901  1C26  2C27               	goto	l1220
  7902  1C27                     l1215:
  7903  1C27                     l1220:
  7904  1C27  0008               	return
  7905  1C28                     __end_of_tolower:
  7906                           
  7907                           	psect	text7
  7908  1AD4                     __ptext7:	
  7909 ;; *************** function _isupper *****************
  7910 ;; Defined at:
  7911 ;;		line 5 in file "C:\Program Files\Microchip\xc8\v2.31\pic\sources\c99\common\isupper.c"
  7912 ;; Parameters:    Size  Location     Type
  7913 ;;  c               2    0[COMMON] int 
  7914 ;; Auto vars:     Size  Location     Type
  7915 ;;		None
  7916 ;; Return value:  Size  Location     Type
  7917 ;;                  2    0[COMMON] int 
  7918 ;; Registers used:
  7919 ;;		wreg, status,2, status,0
  7920 ;; Tracked objects:
  7921 ;;		On entry : 0/0
  7922 ;;		On exit  : 0/0
  7923 ;;		Unchanged: 0/0
  7924 ;; Data sizes:     COMMON   BANK0   BANK1   BANK2   BANK3   BANK4   BANK5   BANK6   BANK7   BANK8   BANK9  BANK10  BANK1
      +1  BANK12  BANK13  BANK14  BANK15  BANK16  BANK17  BANK18  BANK19  BANK20  BANK21  BANK22  BANK23  BANK24  BANK25
  7925 ;;      Params:         2       0       0       0       0       0       0       0       0       0       0       0       
      +0       0       0       0       0       0       0       0       0       0       0       0       0       0       0
  7926 ;;      Locals:         0       0       0       0       0       0       0       0       0       0       0       0       
      +0       0       0       0       0       0       0       0       0       0       0       0       0       0       0
  7927 ;;      Temps:          4       0       0       0       0       0       0       0       0       0       0       0       
      +0       0       0       0       0       0       0       0       0       0       0       0       0       0       0
  7928 ;;      Totals:         6       0       0       0       0       0       0       0       0       0       0       0       
      +0       0       0       0       0       0       0       0       0       0       0       0       0       0       0
  7929 ;;Total ram usage:        6 bytes
  7930 ;; Hardware stack levels used:    1
  7931 ;; This function calls:
  7932 ;;		Nothing
  7933 ;; This function is called by:
  7934 ;;		_efgtoa
  7935 ;;		_vfpfcnvrt
  7936 ;;		_tolower
  7937 ;; This function uses a non-reentrant model
  7938 ;;
  7939                           
  7940                           
  7941                           ;psect for function _isupper
  7942  1AD4                     _isupper:
  7943  1AD4                     l3205:	
  7944                           ;incstack = 0
  7945                           ; Regs used in _isupper: [wreg+status,2+status,0]
  7946                           
  7947  1AD4  0870               	movf	isupper@c,w
  7948  1AD5  3EBF               	addlw	191
  7949  1AD6  00F2               	movwf	??_isupper
  7950  1AD7  30FF               	movlw	255
  7951  1AD8  3D71               	addwfc	isupper@c+1,w
  7952  1AD9  00F3               	movwf	??_isupper+1
  7953  1ADA  3000               	movlw	0
  7954  1ADB  0273               	subwf	??_isupper+1,w
  7955  1ADC  301A               	movlw	26
  7956  1ADD  1903               	skipnz
  7957  1ADE  0272               	subwf	??_isupper,w
  7958  1ADF  1C03               	skipc
  7959  1AE0  2AE2               	goto	u3861
  7960  1AE1  2AE4               	goto	u3860
  7961  1AE2                     u3861:
  7962  1AE2  3001               	movlw	1
  7963  1AE3  2AE5               	goto	u3870
  7964  1AE4                     u3860:
  7965  1AE4  3000               	movlw	0
  7966  1AE5                     u3870:
  7967  1AE5  00F4               	movwf	??_isupper+2
  7968  1AE6  01F5               	clrf	??_isupper+3
  7969  1AE7  0874               	movf	??_isupper+2,w
  7970  1AE8  00F0               	movwf	?_isupper
  7971  1AE9  0875               	movf	??_isupper+3,w
  7972  1AEA  00F1               	movwf	?_isupper+1
  7973  1AEB                     l1163:
  7974  1AEB  0008               	return
  7975  1AEC                     __end_of_isupper:
  7976                           
  7977                           	psect	text8
  7978  1B9A                     __ptext8:	
  7979 ;; *************** function _strcpy *****************
  7980 ;; Defined at:
  7981 ;;		line 3 in file "C:\Program Files\Microchip\xc8\v2.31\pic\sources\c99\common\strcpy.c"
  7982 ;; Parameters:    Size  Location     Type
  7983 ;;  dest            1    wreg     PTR unsigned char 
  7984 ;;		 -> dbuf(80), 
  7985 ;;  src             2    0[COMMON] PTR const unsigned char 
  7986 ;;		 -> STR_8(4), STR_7(4), STR_4(4), STR_3(4), 
  7987 ;;		 -> dbuf(80), 
  7988 ;; Auto vars:     Size  Location     Type
  7989 ;;  dest            1    7[COMMON] PTR unsigned char 
  7990 ;;		 -> dbuf(80), 
  7991 ;;  s               2    4[COMMON] PTR const unsigned char 
  7992 ;;		 -> STR_8(4), STR_7(4), STR_4(4), STR_3(4), 
  7993 ;;		 -> dbuf(80), 
  7994 ;;  d               1    6[COMMON] PTR unsigned char 
  7995 ;;		 -> dbuf(80), 
  7996 ;; Return value:  Size  Location     Type
  7997 ;;                  1    wreg      PTR unsigned char 
  7998 ;; Registers used:
  7999 ;;		wreg, fsr0l, fsr0h, fsr1l, fsr1h, status,2, status,0, pclath
  8000 ;; Tracked objects:
  8001 ;;		On entry : 0/0
  8002 ;;		On exit  : 0/0
  8003 ;;		Unchanged: 0/0
  8004 ;; Data sizes:     COMMON   BANK0   BANK1   BANK2   BANK3   BANK4   BANK5   BANK6   BANK7   BANK8   BANK9  BANK10  BANK1
      +1  BANK12  BANK13  BANK14  BANK15  BANK16  BANK17  BANK18  BANK19  BANK20  BANK21  BANK22  BANK23  BANK24  BANK25
  8005 ;;      Params:         2       0       0       0       0       0       0       0       0       0       0       0       
      +0       0       0       0       0       0       0       0       0       0       0       0       0       0       0
  8006 ;;      Locals:         4       0       0       0       0       0       0       0       0       0       0       0       
      +0       0       0       0       0       0       0       0       0       0       0       0       0       0       0
  8007 ;;      Temps:          2       0       0       0       0       0       0       0       0       0       0       0       
      +0       0       0       0       0       0       0       0       0       0       0       0       0       0       0
  8008 ;;      Totals:         8       0       0       0       0       0       0       0       0       0       0       0       
      +0       0       0       0       0       0       0       0       0       0       0       0       0       0       0
  8009 ;;Total ram usage:        8 bytes
  8010 ;; Hardware stack levels used:    1
  8011 ;; This function calls:
  8012 ;;		Nothing
  8013 ;; This function is called by:
  8014 ;;		_efgtoa
  8015 ;; This function uses a non-reentrant model
  8016 ;;
  8017                           
  8018                           
  8019                           ;psect for function _strcpy
  8020  1B9A                     _strcpy:
  8021                           
  8022                           ;incstack = 0
  8023                           ; Regs used in _strcpy: [wreg-fsr1h+status,2+status,0+pclath]
  8024                           ;strcpy@dest stored from wreg
  8025  1B9A  00F7               	movwf	strcpy@dest
  8026  1B9B                     l3785:
  8027  1B9B  0871               	movf	strcpy@src+1,w
  8028  1B9C  00F5               	movwf	strcpy@s+1
  8029  1B9D  0870               	movf	strcpy@src,w
  8030  1B9E  00F4               	movwf	strcpy@s
  8031  1B9F  0877               	movf	strcpy@dest,w
  8032  1BA0  00F2               	movwf	??_strcpy
  8033  1BA1  0872               	movf	??_strcpy,w
  8034  1BA2  00F6               	movwf	strcpy@d
  8035  1BA3                     l3787:
  8036  1BA3  0876               	movf	strcpy@d,w
  8037  1BA4  0086               	movwf	6
  8038  1BA5  3001               	movlw	1	; select bank2/3
  8039  1BA6  0087               	movwf	7
  8040  1BA7  0AF6               	incf	strcpy@d,f
  8041  1BA8  0875               	movf	strcpy@s+1,w
  8042  1BA9  00F3               	movwf	??_strcpy+1
  8043  1BAA  0874               	movf	strcpy@s,w
  8044  1BAB  00F2               	movwf	??_strcpy
  8045  1BAC  0AF4               	incf	strcpy@s,f
  8046  1BAD  1903               	skipnz
  8047  1BAE  0AF5               	incf	strcpy@s+1,f
  8048  1BAF  0872               	movf	??_strcpy,w
  8049  1BB0  0084               	movwf	4
  8050  1BB1  0873               	movf	??_strcpy+1,w
  8051  1BB2  0085               	movwf	5
  8052  1BB3  0800               	movf	0,w	;code access
  8053  1BB4  3FC0               	movwi [0]fsr1
  8054  1BB5  0889               	movf	9,f
  8055  1BB6  1D03               	btfss	3,2
  8056  1BB7  2BB9               	goto	u5191
  8057  1BB8  2BBA               	goto	u5190
  8058  1BB9                     u5191:
  8059  1BB9  2BA3               	goto	l3787
  8060  1BBA                     u5190:
  8061  1BBA                     l1195:
  8062  1BBA  0008               	return
  8063  1BBB                     __end_of_strcpy:
  8064                           
  8065                           	psect	text9
  8066  1197                     __ptext9:	
  8067 ;; *************** function _floorf *****************
  8068 ;; Defined at:
  8069 ;;		line 3 in file "C:\Program Files\Microchip\xc8\v2.31\pic\sources\c99\common\floorf.c"
  8070 ;; Parameters:    Size  Location     Type
  8071 ;;  x               4   13[BANK0 ] float 
  8072 ;; Auto vars:     Size  Location     Type
  8073 ;;  u               4   29[BANK0 ] struct .
  8074 ;;  m               4   23[BANK0 ] unsigned long 
  8075 ;;  e               2   27[BANK0 ] int 
  8076 ;; Return value:  Size  Location     Type
  8077 ;;                  4   13[BANK0 ] float 
  8078 ;; Registers used:
  8079 ;;		wreg, status,2, status,0
  8080 ;; Tracked objects:
  8081 ;;		On entry : 0/0
  8082 ;;		On exit  : 0/0
  8083 ;;		Unchanged: 0/0
  8084 ;; Data sizes:     COMMON   BANK0   BANK1   BANK2   BANK3   BANK4   BANK5   BANK6   BANK7   BANK8   BANK9  BANK10  BANK1
      +1  BANK12  BANK13  BANK14  BANK15  BANK16  BANK17  BANK18  BANK19  BANK20  BANK21  BANK22  BANK23  BANK24  BANK25
  8085 ;;      Params:         0       4       0       0       0       0       0       0       0       0       0       0       
      +0       0       0       0       0       0       0       0       0       0       0       0       0       0       0
  8086 ;;      Locals:         0      10       0       0       0       0       0       0       0       0       0       0       
      +0       0       0       0       0       0       0       0       0       0       0       0       0       0       0
  8087 ;;      Temps:          0       6       0       0       0       0       0       0       0       0       0       0       
      +0       0       0       0       0       0       0       0       0       0       0       0       0       0       0
  8088 ;;      Totals:         0      20       0       0       0       0       0       0       0       0       0       0       
      +0       0       0       0       0       0       0       0       0       0       0       0       0       0       0
  8089 ;;Total ram usage:       20 bytes
  8090 ;; Hardware stack levels used:    1
  8091 ;; This function calls:
  8092 ;;		Nothing
  8093 ;; This function is called by:
  8094 ;;		_efgtoa
  8095 ;; This function uses a non-reentrant model
  8096 ;;
  8097                           
  8098                           
  8099                           ;psect for function _floorf
  8100  1197                     _floorf:
  8101  1197                     l3799:	
  8102                           ;incstack = 0
  8103                           ; Regs used in _floorf: [wreg+status,2+status,0]
  8104                           
  8105  1197  0022               	movlb	2	; select bank2
  8106  1198  0854               	movf	(floorf@F527+3)^(0+256),w
  8107  1199  0020               	movlb	0	; select bank0
  8108  119A  00C0               	movwf	floorf@u+3
  8109  119B  0022               	movlb	2	; select bank2
  8110  119C  0853               	movf	(floorf@F527+2)^(0+256),w
  8111  119D  0020               	movlb	0	; select bank0
  8112  119E  00BF               	movwf	floorf@u+2
  8113  119F  0022               	movlb	2	; select bank2
  8114  11A0  0852               	movf	(floorf@F527+1)^(0+256),w
  8115  11A1  0020               	movlb	0	; select bank0
  8116  11A2  00BE               	movwf	floorf@u+1
  8117  11A3  0022               	movlb	2	; select bank2
  8118  11A4  0851               	movf	floorf@F527^(0+256),w
  8119  11A5  0020               	movlb	0	; select bank0
  8120  11A6  00BD               	movwf	floorf@u
  8121  11A7  0830               	movf	floorf@x+3,w
  8122  11A8  00C0               	movwf	floorf@u+3
  8123  11A9  082F               	movf	floorf@x+2,w
  8124  11AA  00BF               	movwf	floorf@u+2
  8125  11AB  082E               	movf	floorf@x+1,w
  8126  11AC  00BE               	movwf	floorf@u+1
  8127  11AD  082D               	movf	floorf@x,w
  8128  11AE  00BD               	movwf	floorf@u
  8129  11AF                     l3801:
  8130  11AF  083D               	movf	floorf@u,w
  8131  11B0  00B1               	movwf	??_floorf
  8132  11B1  083E               	movf	floorf@u+1,w
  8133  11B2  00B2               	movwf	??_floorf+1
  8134  11B3  083F               	movf	floorf@u+2,w
  8135  11B4  00B3               	movwf	??_floorf+2
  8136  11B5  0840               	movf	floorf@u+3,w
  8137  11B6  00B4               	movwf	??_floorf+3
  8138  11B7  3017               	movlw	23
  8139  11B8                     u5235:
  8140  11B8  36B4               	lsrf	??_floorf+3,f
  8141  11B9  0CB3               	rrf	??_floorf+2,f
  8142  11BA  0CB2               	rrf	??_floorf+1,f
  8143  11BB  0CB1               	rrf	??_floorf,f
  8144  11BC                     u5230:
  8145  11BC  0B89               	decfsz	9,f
  8146  11BD  29B8               	goto	u5235
  8147  11BE  30FF               	movlw	255
  8148  11BF  0531               	andwf	??_floorf,w
  8149  11C0  00B5               	movwf	??_floorf+4
  8150  11C1  3000               	movlw	0
  8151  11C2  0532               	andwf	??_floorf+1,w
  8152  11C3  00B6               	movwf	??_floorf+5
  8153  11C4  0835               	movf	??_floorf+4,w
  8154  11C5  3E81               	addlw	129
  8155  11C6  00BB               	movwf	floorf@e
  8156  11C7  30FF               	movlw	255
  8157  11C8  3D36               	addwfc	??_floorf+5,w
  8158  11C9  00BC               	movwf	floorf@e+1
  8159  11CA                     l3803:
  8160  11CA  083C               	movf	floorf@e+1,w
  8161  11CB  3A80               	xorlw	128
  8162  11CC  00B1               	movwf	??_floorf
  8163  11CD  3080               	movlw	128
  8164  11CE  0231               	subwf	??_floorf,w
  8165  11CF  1D03               	skipz
  8166  11D0  29D3               	goto	u5245
  8167  11D1  3017               	movlw	23
  8168  11D2  023B               	subwf	floorf@e,w
  8169  11D3                     u5245:
  8170  11D3  1C03               	skipc
  8171  11D4  29D6               	goto	u5241
  8172  11D5  29D7               	goto	u5240
  8173  11D6                     u5241:
  8174  11D6  29D8               	goto	l1138
  8175  11D7                     u5240:
  8176  11D7                     l3805:
  8177  11D7  2A81               	goto	l1139
  8178  11D8                     l1138:
  8179  11D8  0020               	movlb	0	; select bank0
  8180  11D9  1BBC               	btfsc	floorf@e+1,7
  8181  11DA  29DC               	goto	u5251
  8182  11DB  29DD               	goto	u5250
  8183  11DC                     u5251:
  8184  11DC  2A3A               	goto	l3819
  8185  11DD                     u5250:
  8186  11DD                     l3807:
  8187  11DD  30FF               	movlw	255
  8188  11DE  00B1               	movwf	??_floorf
  8189  11DF  30FF               	movlw	255
  8190  11E0  00B2               	movwf	??_floorf+1
  8191  11E1  307F               	movlw	127
  8192  11E2  00B3               	movwf	??_floorf+2
  8193  11E3  3000               	movlw	0
  8194  11E4  00B4               	movwf	??_floorf+3
  8195  11E5  0A3B               	incf	floorf@e,w
  8196  11E6  29EB               	goto	u5260
  8197  11E7                     u5265:
  8198  11E7  37B4               	asrf	??_floorf+3,f
  8199  11E8  0CB3               	rrf	??_floorf+2,f
  8200  11E9  0CB2               	rrf	??_floorf+1,f
  8201  11EA  0CB1               	rrf	??_floorf,f
  8202  11EB                     u5260:
  8203  11EB  0B89               	decfsz	9,f
  8204  11EC  29E7               	goto	u5265
  8205  11ED  0834               	movf	??_floorf+3,w
  8206  11EE  00BA               	movwf	floorf@m+3
  8207  11EF  0833               	movf	??_floorf+2,w
  8208  11F0  00B9               	movwf	floorf@m+2
  8209  11F1  0832               	movf	??_floorf+1,w
  8210  11F2  00B8               	movwf	floorf@m+1
  8211  11F3  0831               	movf	??_floorf,w
  8212  11F4  00B7               	movwf	floorf@m
  8213  11F5                     l3809:
  8214  11F5  083D               	movf	floorf@u,w
  8215  11F6  0537               	andwf	floorf@m,w
  8216  11F7  00B1               	movwf	??_floorf
  8217  11F8  083E               	movf	floorf@u+1,w
  8218  11F9  0538               	andwf	floorf@m+1,w
  8219  11FA  00B2               	movwf	??_floorf+1
  8220  11FB  083F               	movf	floorf@u+2,w
  8221  11FC  0539               	andwf	floorf@m+2,w
  8222  11FD  00B3               	movwf	??_floorf+2
  8223  11FE  0840               	movf	floorf@u+3,w
  8224  11FF  053A               	andwf	floorf@m+3,w
  8225  1200  00B4               	movwf	??_floorf+3
  8226  1201  0834               	movf	??_floorf+3,w
  8227  1202  0433               	iorwf	??_floorf+2,w
  8228  1203  0432               	iorwf	??_floorf+1,w
  8229  1204  0431               	iorwf	??_floorf,w
  8230  1205  1D03               	skipz
  8231  1206  2A08               	goto	u5271
  8232  1207  2A09               	goto	u5270
  8233  1208                     u5271:
  8234  1208  2A0A               	goto	l3813
  8235  1209                     u5270:
  8236  1209  29D7               	goto	l3805
  8237  120A                     l3813:
  8238  120A  083D               	movf	floorf@u,w
  8239  120B  00B1               	movwf	??_floorf
  8240  120C  083E               	movf	floorf@u+1,w
  8241  120D  00B2               	movwf	??_floorf+1
  8242  120E  083F               	movf	floorf@u+2,w
  8243  120F  00B3               	movwf	??_floorf+2
  8244  1210  0840               	movf	floorf@u+3,w
  8245  1211  00B4               	movwf	??_floorf+3
  8246  1212  301F               	movlw	31
  8247  1213                     u5285:
  8248  1213  36B4               	lsrf	??_floorf+3,f
  8249  1214  0CB3               	rrf	??_floorf+2,f
  8250  1215  0CB2               	rrf	??_floorf+1,f
  8251  1216  0CB1               	rrf	??_floorf,f
  8252  1217                     u5280:
  8253  1217  0B89               	decfsz	9,f
  8254  1218  2A13               	goto	u5285
  8255  1219  0834               	movf	??_floorf+3,w
  8256  121A  0433               	iorwf	??_floorf+2,w
  8257  121B  0432               	iorwf	??_floorf+1,w
  8258  121C  0431               	iorwf	??_floorf,w
  8259  121D  1903               	skipnz
  8260  121E  2A20               	goto	u5291
  8261  121F  2A21               	goto	u5290
  8262  1220                     u5291:
  8263  1220  2A29               	goto	l3817
  8264  1221                     u5290:
  8265  1221                     l3815:
  8266  1221  0837               	movf	floorf@m,w
  8267  1222  07BD               	addwf	floorf@u,f
  8268  1223  0838               	movf	floorf@m+1,w
  8269  1224  3DBE               	addwfc	floorf@u+1,f
  8270  1225  0839               	movf	floorf@m+2,w
  8271  1226  3DBF               	addwfc	floorf@u+2,f
  8272  1227  083A               	movf	floorf@m+3,w
  8273  1228  3DC0               	addwfc	floorf@u+3,f
  8274  1229                     l3817:
  8275  1229  0937               	comf	floorf@m,w
  8276  122A  00B1               	movwf	??_floorf
  8277  122B  0938               	comf	floorf@m+1,w
  8278  122C  00B2               	movwf	??_floorf+1
  8279  122D  0939               	comf	floorf@m+2,w
  8280  122E  00B3               	movwf	??_floorf+2
  8281  122F  093A               	comf	floorf@m+3,w
  8282  1230  00B4               	movwf	??_floorf+3
  8283  1231  0831               	movf	??_floorf,w
  8284  1232  05BD               	andwf	floorf@u,f
  8285  1233  0832               	movf	??_floorf+1,w
  8286  1234  05BE               	andwf	floorf@u+1,f
  8287  1235  0833               	movf	??_floorf+2,w
  8288  1236  05BF               	andwf	floorf@u+2,f
  8289  1237  0834               	movf	??_floorf+3,w
  8290  1238  05C0               	andwf	floorf@u+3,f
  8291  1239  2A79               	goto	l1143
  8292  123A                     l3819:
  8293  123A  083D               	movf	floorf@u,w
  8294  123B  00B1               	movwf	??_floorf
  8295  123C  083E               	movf	floorf@u+1,w
  8296  123D  00B2               	movwf	??_floorf+1
  8297  123E  083F               	movf	floorf@u+2,w
  8298  123F  00B3               	movwf	??_floorf+2
  8299  1240  0840               	movf	floorf@u+3,w
  8300  1241  00B4               	movwf	??_floorf+3
  8301  1242  301F               	movlw	31
  8302  1243                     u5305:
  8303  1243  36B4               	lsrf	??_floorf+3,f
  8304  1244  0CB3               	rrf	??_floorf+2,f
  8305  1245  0CB2               	rrf	??_floorf+1,f
  8306  1246  0CB1               	rrf	??_floorf,f
  8307  1247                     u5300:
  8308  1247  0B89               	decfsz	9,f
  8309  1248  2A43               	goto	u5305
  8310  1249  0834               	movf	??_floorf+3,w
  8311  124A  0433               	iorwf	??_floorf+2,w
  8312  124B  0432               	iorwf	??_floorf+1,w
  8313  124C  0431               	iorwf	??_floorf,w
  8314  124D  1D03               	skipz
  8315  124E  2A50               	goto	u5311
  8316  124F  2A51               	goto	u5310
  8317  1250                     u5311:
  8318  1250  2A5A               	goto	l3823
  8319  1251                     u5310:
  8320  1251                     l3821:
  8321  1251  3000               	movlw	0
  8322  1252  00C0               	movwf	floorf@u+3
  8323  1253  3000               	movlw	0
  8324  1254  00BF               	movwf	floorf@u+2
  8325  1255  3000               	movlw	0
  8326  1256  00BE               	movwf	floorf@u+1
  8327  1257  3000               	movlw	0
  8328  1258  00BD               	movwf	floorf@u
  8329  1259  2A79               	goto	l1143
  8330  125A                     l3823:
  8331  125A  083D               	movf	floorf@u,w
  8332  125B  00B1               	movwf	??_floorf
  8333  125C  083E               	movf	floorf@u+1,w
  8334  125D  00B2               	movwf	??_floorf+1
  8335  125E  083F               	movf	floorf@u+2,w
  8336  125F  00B3               	movwf	??_floorf+2
  8337  1260  0840               	movf	floorf@u+3,w
  8338  1261  00B4               	movwf	??_floorf+3
  8339  1262  3001               	movlw	1
  8340  1263                     u5325:
  8341  1263  35B1               	lslf	??_floorf,f
  8342  1264  0DB2               	rlf	??_floorf+1,f
  8343  1265  0DB3               	rlf	??_floorf+2,f
  8344  1266  0DB4               	rlf	??_floorf+3,f
  8345  1267                     u5320:
  8346  1267  0B89               	decfsz	9,f
  8347  1268  2A63               	goto	u5325
  8348  1269  0834               	movf	??_floorf+3,w
  8349  126A  0433               	iorwf	??_floorf+2,w
  8350  126B  0432               	iorwf	??_floorf+1,w
  8351  126C  0431               	iorwf	??_floorf,w
  8352  126D  1903               	skipnz
  8353  126E  2A70               	goto	u5331
  8354  126F  2A71               	goto	u5330
  8355  1270                     u5331:
  8356  1270  2A79               	goto	l1143
  8357  1271                     u5330:
  8358  1271                     l3825:
  8359  1271  30BF               	movlw	191
  8360  1272  00C0               	movwf	floorf@u+3
  8361  1273  3080               	movlw	128
  8362  1274  00BF               	movwf	floorf@u+2
  8363  1275  3000               	movlw	0
  8364  1276  00BE               	movwf	floorf@u+1
  8365  1277  3000               	movlw	0
  8366  1278  00BD               	movwf	floorf@u
  8367  1279                     l1143:
  8368  1279  0840               	movf	floorf@u+3,w
  8369  127A  00B0               	movwf	?_floorf+3
  8370  127B  083F               	movf	floorf@u+2,w
  8371  127C  00AF               	movwf	?_floorf+2
  8372  127D  083E               	movf	floorf@u+1,w
  8373  127E  00AE               	movwf	?_floorf+1
  8374  127F  083D               	movf	floorf@u,w
  8375  1280  00AD               	movwf	?_floorf
  8376  1281                     l1139:
  8377  1281  0008               	return
  8378  1282                     __end_of_floorf:
  8379                           
  8380                           	psect	text10
  8381  1ED2                     __ptext10:	
  8382 ;; *************** function ___fpclassifyf *****************
  8383 ;; Defined at:
  8384 ;;		line 4 in file "C:\Program Files\Microchip\xc8\v2.31\pic\sources\c99\common\__fpclassifyf.c"
  8385 ;; Parameters:    Size  Location     Type
  8386 ;;  x               4    0[COMMON] float 
  8387 ;; Auto vars:     Size  Location     Type
  8388 ;;  u               4    2[BANK0 ] struct .
  8389 ;;  e               2    0[BANK0 ] int 
  8390 ;; Return value:  Size  Location     Type
  8391 ;;                  2    0[COMMON] int 
  8392 ;; Registers used:
  8393 ;;		wreg, status,2, status,0
  8394 ;; Tracked objects:
  8395 ;;		On entry : 0/0
  8396 ;;		On exit  : 0/0
  8397 ;;		Unchanged: 0/0
  8398 ;; Data sizes:     COMMON   BANK0   BANK1   BANK2   BANK3   BANK4   BANK5   BANK6   BANK7   BANK8   BANK9  BANK10  BANK1
      +1  BANK12  BANK13  BANK14  BANK15  BANK16  BANK17  BANK18  BANK19  BANK20  BANK21  BANK22  BANK23  BANK24  BANK25
  8399 ;;      Params:         4       0       0       0       0       0       0       0       0       0       0       0       
      +0       0       0       0       0       0       0       0       0       0       0       0       0       0       0
  8400 ;;      Locals:         0       6       0       0       0       0       0       0       0       0       0       0       
      +0       0       0       0       0       0       0       0       0       0       0       0       0       0       0
  8401 ;;      Temps:          6       0       0       0       0       0       0       0       0       0       0       0       
      +0       0       0       0       0       0       0       0       0       0       0       0       0       0       0
  8402 ;;      Totals:        10       6       0       0       0       0       0       0       0       0       0       0       
      +0       0       0       0       0       0       0       0       0       0       0       0       0       0       0
  8403 ;;Total ram usage:       16 bytes
  8404 ;; Hardware stack levels used:    1
  8405 ;; This function calls:
  8406 ;;		Nothing
  8407 ;; This function is called by:
  8408 ;;		_efgtoa
  8409 ;; This function uses a non-reentrant model
  8410 ;;
  8411                           
  8412                           
  8413                           ;psect for function ___fpclassifyf
  8414  1ED2                     ___fpclassifyf:
  8415  1ED2                     l3761:	
  8416                           ;incstack = 0
  8417                           ; Regs used in ___fpclassifyf: [wreg+status,2+status,0]
  8418                           
  8419  1ED2  0022               	movlb	2	; select bank2
  8420  1ED3  0858               	movf	(___fpclassifyf@F465+3)^(0+256),w
  8421  1ED4  0020               	movlb	0	; select bank0
  8422  1ED5  00A5               	movwf	___fpclassifyf@u+3
  8423  1ED6  0022               	movlb	2	; select bank2
  8424  1ED7  0857               	movf	(___fpclassifyf@F465+2)^(0+256),w
  8425  1ED8  0020               	movlb	0	; select bank0
  8426  1ED9  00A4               	movwf	___fpclassifyf@u+2
  8427  1EDA  0022               	movlb	2	; select bank2
  8428  1EDB  0856               	movf	(___fpclassifyf@F465+1)^(0+256),w
  8429  1EDC  0020               	movlb	0	; select bank0
  8430  1EDD  00A3               	movwf	___fpclassifyf@u+1
  8431  1EDE  0022               	movlb	2	; select bank2
  8432  1EDF  0855               	movf	___fpclassifyf@F465^(0+256),w
  8433  1EE0  0020               	movlb	0	; select bank0
  8434  1EE1  00A2               	movwf	___fpclassifyf@u
  8435  1EE2  0873               	movf	___fpclassifyf@x+3,w
  8436  1EE3  00A5               	movwf	___fpclassifyf@u+3
  8437  1EE4  0872               	movf	___fpclassifyf@x+2,w
  8438  1EE5  00A4               	movwf	___fpclassifyf@u+2
  8439  1EE6  0871               	movf	___fpclassifyf@x+1,w
  8440  1EE7  00A3               	movwf	___fpclassifyf@u+1
  8441  1EE8  0870               	movf	___fpclassifyf@x,w
  8442  1EE9  00A2               	movwf	___fpclassifyf@u
  8443  1EEA                     l3763:
  8444  1EEA  0822               	movf	___fpclassifyf@u,w
  8445  1EEB  00F4               	movwf	??___fpclassifyf
  8446  1EEC  0823               	movf	___fpclassifyf@u+1,w
  8447  1EED  00F5               	movwf	??___fpclassifyf+1
  8448  1EEE  0824               	movf	___fpclassifyf@u+2,w
  8449  1EEF  00F6               	movwf	??___fpclassifyf+2
  8450  1EF0  0825               	movf	___fpclassifyf@u+3,w
  8451  1EF1  00F7               	movwf	??___fpclassifyf+3
  8452  1EF2  3017               	movlw	23
  8453  1EF3                     u5115:
  8454  1EF3  36F7               	lsrf	??___fpclassifyf+3,f
  8455  1EF4  0CF6               	rrf	??___fpclassifyf+2,f
  8456  1EF5  0CF5               	rrf	??___fpclassifyf+1,f
  8457  1EF6  0CF4               	rrf	??___fpclassifyf,f
  8458  1EF7                     u5110:
  8459  1EF7  0B89               	decfsz	9,f
  8460  1EF8  2EF3               	goto	u5115
  8461  1EF9  30FF               	movlw	255
  8462  1EFA  0574               	andwf	??___fpclassifyf,w
  8463  1EFB  00A0               	movwf	___fpclassifyf@e
  8464  1EFC  3000               	movlw	0
  8465  1EFD  0575               	andwf	??___fpclassifyf+1,w
  8466  1EFE  00A1               	movwf	___fpclassifyf@e+1
  8467  1EFF                     l3765:
  8468  1EFF  0820               	movf	___fpclassifyf@e,w
  8469  1F00  0421               	iorwf	___fpclassifyf@e+1,w
  8470  1F01  1D03               	btfss	3,2
  8471  1F02  2F04               	goto	u5121
  8472  1F03  2F05               	goto	u5120
  8473  1F04                     u5121:
  8474  1F04  2F26               	goto	l3775
  8475  1F05                     u5120:
  8476  1F05                     l3767:
  8477  1F05  0822               	movf	___fpclassifyf@u,w
  8478  1F06  00F4               	movwf	??___fpclassifyf
  8479  1F07  0823               	movf	___fpclassifyf@u+1,w
  8480  1F08  00F5               	movwf	??___fpclassifyf+1
  8481  1F09  0824               	movf	___fpclassifyf@u+2,w
  8482  1F0A  00F6               	movwf	??___fpclassifyf+2
  8483  1F0B  0825               	movf	___fpclassifyf@u+3,w
  8484  1F0C  00F7               	movwf	??___fpclassifyf+3
  8485  1F0D  3001               	movlw	1
  8486  1F0E                     u5135:
  8487  1F0E  35F4               	lslf	??___fpclassifyf,f
  8488  1F0F  0DF5               	rlf	??___fpclassifyf+1,f
  8489  1F10  0DF6               	rlf	??___fpclassifyf+2,f
  8490  1F11  0DF7               	rlf	??___fpclassifyf+3,f
  8491  1F12                     u5130:
  8492  1F12  0B89               	decfsz	9,f
  8493  1F13  2F0E               	goto	u5135
  8494  1F14  0877               	movf	??___fpclassifyf+3,w
  8495  1F15  0476               	iorwf	??___fpclassifyf+2,w
  8496  1F16  0475               	iorwf	??___fpclassifyf+1,w
  8497  1F17  0474               	iorwf	??___fpclassifyf,w
  8498  1F18  1D03               	skipz
  8499  1F19  2F1B               	goto	u5141
  8500  1F1A  2F1C               	goto	u5140
  8501  1F1B                     u5141:
  8502  1F1B  2F21               	goto	l3771
  8503  1F1C                     u5140:
  8504  1F1C                     l3769:
  8505  1F1C  3002               	movlw	2
  8506  1F1D  00F0               	movwf	?___fpclassifyf
  8507  1F1E  3000               	movlw	0
  8508  1F1F  00F1               	movwf	?___fpclassifyf+1
  8509  1F20  2F50               	goto	l1094
  8510  1F21                     l3771:
  8511  1F21  3003               	movlw	3
  8512  1F22  00F0               	movwf	?___fpclassifyf
  8513  1F23  3000               	movlw	0
  8514  1F24  00F1               	movwf	?___fpclassifyf+1
  8515  1F25  2F50               	goto	l1094
  8516  1F26                     l3775:
  8517  1F26  0A20               	incf	___fpclassifyf@e,w
  8518  1F27  0421               	iorwf	___fpclassifyf@e+1,w
  8519  1F28  1D03               	btfss	3,2
  8520  1F29  2F2B               	goto	u5151
  8521  1F2A  2F2C               	goto	u5150
  8522  1F2B                     u5151:
  8523  1F2B  2F4C               	goto	l3781
  8524  1F2C                     u5150:
  8525  1F2C                     l3777:
  8526  1F2C  0822               	movf	___fpclassifyf@u,w
  8527  1F2D  00F4               	movwf	??___fpclassifyf
  8528  1F2E  0823               	movf	___fpclassifyf@u+1,w
  8529  1F2F  00F5               	movwf	??___fpclassifyf+1
  8530  1F30  0824               	movf	___fpclassifyf@u+2,w
  8531  1F31  00F6               	movwf	??___fpclassifyf+2
  8532  1F32  0825               	movf	___fpclassifyf@u+3,w
  8533  1F33  00F7               	movwf	??___fpclassifyf+3
  8534  1F34  3009               	movlw	9
  8535  1F35                     u5165:
  8536  1F35  35F4               	lslf	??___fpclassifyf,f
  8537  1F36  0DF5               	rlf	??___fpclassifyf+1,f
  8538  1F37  0DF6               	rlf	??___fpclassifyf+2,f
  8539  1F38  0DF7               	rlf	??___fpclassifyf+3,f
  8540  1F39                     u5160:
  8541  1F39  0B89               	decfsz	9,f
  8542  1F3A  2F35               	goto	u5165
  8543  1F3B  0877               	movf	??___fpclassifyf+3,w
  8544  1F3C  0476               	iorwf	??___fpclassifyf+2,w
  8545  1F3D  0475               	iorwf	??___fpclassifyf+1,w
  8546  1F3E  0474               	iorwf	??___fpclassifyf,w
  8547  1F3F  1903               	skipnz
  8548  1F40  2F42               	goto	u5171
  8549  1F41  2F44               	goto	u5170
  8550  1F42                     u5171:
  8551  1F42  3001               	movlw	1
  8552  1F43  2F45               	goto	u5180
  8553  1F44                     u5170:
  8554  1F44  3000               	movlw	0
  8555  1F45                     u5180:
  8556  1F45  00F8               	movwf	??___fpclassifyf+4
  8557  1F46  01F9               	clrf	??___fpclassifyf+5
  8558  1F47  0878               	movf	??___fpclassifyf+4,w
  8559  1F48  00F0               	movwf	?___fpclassifyf
  8560  1F49  0879               	movf	??___fpclassifyf+5,w
  8561  1F4A  00F1               	movwf	?___fpclassifyf+1
  8562  1F4B  2F50               	goto	l1094
  8563  1F4C                     l3781:
  8564  1F4C  3004               	movlw	4
  8565  1F4D  00F0               	movwf	?___fpclassifyf
  8566  1F4E  3000               	movlw	0
  8567  1F4F  00F1               	movwf	?___fpclassifyf+1
  8568  1F50                     l1094:
  8569  1F50  0008               	return
  8570  1F51                     __end_of___fpclassifyf:
  8571                           
  8572                           	psect	text11
  8573  1E5E                     __ptext11:	
  8574 ;; *************** function ___fltol *****************
  8575 ;; Defined at:
  8576 ;;		line 43 in file "C:\Program Files\Microchip\xc8\v2.31\pic\sources\c99\common\fltol.c"
  8577 ;; Parameters:    Size  Location     Type
  8578 ;;  f1              4    0[COMMON] int 
  8579 ;; Auto vars:     Size  Location     Type
  8580 ;;  exp1            1   10[COMMON] unsigned char 
  8581 ;;  sign1           1    9[COMMON] unsigned char 
  8582 ;; Return value:  Size  Location     Type
  8583 ;;                  4    0[COMMON] long 
  8584 ;; Registers used:
  8585 ;;		wreg, status,2, status,0
  8586 ;; Tracked objects:
  8587 ;;		On entry : 0/0
  8588 ;;		On exit  : 0/0
  8589 ;;		Unchanged: 0/0
  8590 ;; Data sizes:     COMMON   BANK0   BANK1   BANK2   BANK3   BANK4   BANK5   BANK6   BANK7   BANK8   BANK9  BANK10  BANK1
      +1  BANK12  BANK13  BANK14  BANK15  BANK16  BANK17  BANK18  BANK19  BANK20  BANK21  BANK22  BANK23  BANK24  BANK25
  8591 ;;      Params:         4       0       0       0       0       0       0       0       0       0       0       0       
      +0       0       0       0       0       0       0       0       0       0       0       0       0       0       0
  8592 ;;      Locals:         2       0       0       0       0       0       0       0       0       0       0       0       
      +0       0       0       0       0       0       0       0       0       0       0       0       0       0       0
  8593 ;;      Temps:          5       0       0       0       0       0       0       0       0       0       0       0       
      +0       0       0       0       0       0       0       0       0       0       0       0       0       0       0
  8594 ;;      Totals:        11       0       0       0       0       0       0       0       0       0       0       0       
      +0       0       0       0       0       0       0       0       0       0       0       0       0       0       0
  8595 ;;Total ram usage:       11 bytes
  8596 ;; Hardware stack levels used:    1
  8597 ;; This function calls:
  8598 ;;		Nothing
  8599 ;; This function is called by:
  8600 ;;		_efgtoa
  8601 ;; This function uses a non-reentrant model
  8602 ;;
  8603                           
  8604                           
  8605                           ;psect for function ___fltol
  8606  1E5E                     ___fltol:
  8607  1E5E                     l3413:	
  8608                           ;incstack = 0
  8609                           ; Regs used in ___fltol: [wreg+status,2+status,0]
  8610                           
  8611  1E5E  1003               	clrc
  8612  1E5F  0D72               	rlf	___fltol@f1+2,w
  8613  1E60  0D73               	rlf	___fltol@f1+3,w
  8614  1E61  00F4               	movwf	??___fltol
  8615  1E62  0874               	movf	??___fltol,w
  8616  1E63  00FA               	movwf	___fltol@exp1
  8617  1E64  087A               	movf	___fltol@exp1,w
  8618  1E65  1D03               	btfss	3,2
  8619  1E66  2E68               	goto	u4411
  8620  1E67  2E69               	goto	u4410
  8621  1E68                     u4411:
  8622  1E68  2E72               	goto	l3419
  8623  1E69                     u4410:
  8624  1E69                     l3415:
  8625  1E69  3000               	movlw	0
  8626  1E6A  00F3               	movwf	?___fltol+3
  8627  1E6B  3000               	movlw	0
  8628  1E6C  00F2               	movwf	?___fltol+2
  8629  1E6D  3000               	movlw	0
  8630  1E6E  00F1               	movwf	?___fltol+1
  8631  1E6F  3000               	movlw	0
  8632  1E70  00F0               	movwf	?___fltol
  8633  1E71  2ED1               	goto	l604
  8634  1E72                     l3419:
  8635  1E72  0870               	movf	___fltol@f1,w
  8636  1E73  00F4               	movwf	??___fltol
  8637  1E74  0871               	movf	___fltol@f1+1,w
  8638  1E75  00F5               	movwf	??___fltol+1
  8639  1E76  0872               	movf	___fltol@f1+2,w
  8640  1E77  00F6               	movwf	??___fltol+2
  8641  1E78  0873               	movf	___fltol@f1+3,w
  8642  1E79  00F7               	movwf	??___fltol+3
  8643  1E7A  301F               	movlw	31
  8644  1E7B                     u4425:
  8645  1E7B  36F7               	lsrf	??___fltol+3,f
  8646  1E7C  0CF6               	rrf	??___fltol+2,f
  8647  1E7D  0CF5               	rrf	??___fltol+1,f
  8648  1E7E  0CF4               	rrf	??___fltol,f
  8649  1E7F                     u4420:
  8650  1E7F  0B89               	decfsz	9,f
  8651  1E80  2E7B               	goto	u4425
  8652  1E81  0874               	movf	??___fltol,w
  8653  1E82  00F8               	movwf	??___fltol+4
  8654  1E83  0878               	movf	??___fltol+4,w
  8655  1E84  00F9               	movwf	___fltol@sign1
  8656  1E85                     l3421:
  8657  1E85  17F2               	bsf	___fltol@f1+2,7
  8658  1E86                     l3423:
  8659  1E86  30FF               	movlw	255
  8660  1E87  05F0               	andwf	___fltol@f1,f
  8661  1E88  30FF               	movlw	255
  8662  1E89  05F1               	andwf	___fltol@f1+1,f
  8663  1E8A  30FF               	movlw	255
  8664  1E8B  05F2               	andwf	___fltol@f1+2,f
  8665  1E8C  3000               	movlw	0
  8666  1E8D  05F3               	andwf	___fltol@f1+3,f
  8667  1E8E                     l3425:
  8668  1E8E  3096               	movlw	150
  8669  1E8F  02FA               	subwf	___fltol@exp1,f
  8670  1E90                     l3427:
  8671  1E90  1FFA               	btfss	___fltol@exp1,7
  8672  1E91  2E93               	goto	u4431
  8673  1E92  2E94               	goto	u4430
  8674  1E93                     u4431:
  8675  1E93  2EAC               	goto	l3437
  8676  1E94                     u4430:
  8677  1E94                     l3429:
  8678  1E94  087A               	movf	___fltol@exp1,w
  8679  1E95  3A80               	xorlw	128
  8680  1E96  3E97               	addlw	151
  8681  1E97  1803               	skipnc
  8682  1E98  2E9A               	goto	u4441
  8683  1E99  2E9B               	goto	u4440
  8684  1E9A                     u4441:
  8685  1E9A  2E9C               	goto	l3435
  8686  1E9B                     u4440:
  8687  1E9B  2E69               	goto	l3415
  8688  1E9C                     l3435:
  8689  1E9C  3001               	movlw	1
  8690  1E9D                     u4455:
  8691  1E9D  36F3               	lsrf	___fltol@f1+3,f
  8692  1E9E  0CF2               	rrf	___fltol@f1+2,f
  8693  1E9F  0CF1               	rrf	___fltol@f1+1,f
  8694  1EA0  0CF0               	rrf	___fltol@f1,f
  8695  1EA1  0B89               	decfsz	9,f
  8696  1EA2  2E9D               	goto	u4455
  8697  1EA3  3001               	movlw	1
  8698  1EA4  00F4               	movwf	??___fltol
  8699  1EA5  0874               	movf	??___fltol,w
  8700  1EA6  07FA               	addwf	___fltol@exp1,f
  8701  1EA7  1D03               	btfss	3,2
  8702  1EA8  2EAA               	goto	u4461
  8703  1EA9  2EAB               	goto	u4460
  8704  1EAA                     u4461:
  8705  1EAA  2E9C               	goto	l3435
  8706  1EAB                     u4460:
  8707  1EAB  2EC1               	goto	l3445
  8708  1EAC                     l3437:
  8709  1EAC  3020               	movlw	32
  8710  1EAD  027A               	subwf	___fltol@exp1,w
  8711  1EAE  1C03               	skipc
  8712  1EAF  2EB1               	goto	u4471
  8713  1EB0  2EB2               	goto	u4470
  8714  1EB1                     u4471:
  8715  1EB1  2EBC               	goto	l611
  8716  1EB2                     u4470:
  8717  1EB2  2E69               	goto	l3415
  8718  1EB3                     l3443:
  8719  1EB3  3001               	movlw	1
  8720  1EB4                     u4485:
  8721  1EB4  35F0               	lslf	___fltol@f1,f
  8722  1EB5  0DF1               	rlf	___fltol@f1+1,f
  8723  1EB6  0DF2               	rlf	___fltol@f1+2,f
  8724  1EB7  0DF3               	rlf	___fltol@f1+3,f
  8725  1EB8  0B89               	decfsz	9,f
  8726  1EB9  2EB4               	goto	u4485
  8727  1EBA  3001               	movlw	1
  8728  1EBB  02FA               	subwf	___fltol@exp1,f
  8729  1EBC                     l611:
  8730  1EBC  087A               	movf	___fltol@exp1,w
  8731  1EBD  1D03               	btfss	3,2
  8732  1EBE  2EC0               	goto	u4491
  8733  1EBF  2EC1               	goto	u4490
  8734  1EC0                     u4491:
  8735  1EC0  2EB3               	goto	l3443
  8736  1EC1                     u4490:
  8737  1EC1                     l3445:
  8738  1EC1  0879               	movf	___fltol@sign1,w
  8739  1EC2  1903               	btfsc	3,2
  8740  1EC3  2EC5               	goto	u4501
  8741  1EC4  2EC6               	goto	u4500
  8742  1EC5                     u4501:
  8743  1EC5  2ED1               	goto	l614
  8744  1EC6                     u4500:
  8745  1EC6                     l3447:
  8746  1EC6  09F0               	comf	___fltol@f1,f
  8747  1EC7  09F1               	comf	___fltol@f1+1,f
  8748  1EC8  09F2               	comf	___fltol@f1+2,f
  8749  1EC9  09F3               	comf	___fltol@f1+3,f
  8750  1ECA  0AF0               	incf	___fltol@f1,f
  8751  1ECB  1903               	skipnz
  8752  1ECC  0AF1               	incf	___fltol@f1+1,f
  8753  1ECD  1903               	skipnz
  8754  1ECE  0AF2               	incf	___fltol@f1+2,f
  8755  1ECF  1903               	skipnz
  8756  1ED0  0AF3               	incf	___fltol@f1+3,f
  8757  1ED1                     l614:
  8758  1ED1                     l604:
  8759  1ED1  0008               	return
  8760  1ED2                     __end_of___fltol:
  8761                           
  8762                           	psect	text12
  8763  1B59                     __ptext12:	
  8764 ;; *************** function ___flsub *****************
  8765 ;; Defined at:
  8766 ;;		line 242 in file "C:\Program Files\Microchip\xc8\v2.31\pic\sources\c99\common\sprcadd.c"
  8767 ;; Parameters:    Size  Location     Type
  8768 ;;  a               4   26[BANK0 ] long 
  8769 ;;  b               4   30[BANK0 ] long 
  8770 ;; Auto vars:     Size  Location     Type
  8771 ;;		None
  8772 ;; Return value:  Size  Location     Type
  8773 ;;                  4   26[BANK0 ] long 
  8774 ;; Registers used:
  8775 ;;		wreg, status,2, status,0, pclath, cstack
  8776 ;; Tracked objects:
  8777 ;;		On entry : 0/0
  8778 ;;		On exit  : 0/0
  8779 ;;		Unchanged: 0/0
  8780 ;; Data sizes:     COMMON   BANK0   BANK1   BANK2   BANK3   BANK4   BANK5   BANK6   BANK7   BANK8   BANK9  BANK10  BANK1
      +1  BANK12  BANK13  BANK14  BANK15  BANK16  BANK17  BANK18  BANK19  BANK20  BANK21  BANK22  BANK23  BANK24  BANK25
  8781 ;;      Params:         0       8       0       0       0       0       0       0       0       0       0       0       
      +0       0       0       0       0       0       0       0       0       0       0       0       0       0       0
  8782 ;;      Locals:         0       0       0       0       0       0       0       0       0       0       0       0       
      +0       0       0       0       0       0       0       0       0       0       0       0       0       0       0
  8783 ;;      Temps:          0       0       0       0       0       0       0       0       0       0       0       0       
      +0       0       0       0       0       0       0       0       0       0       0       0       0       0       0
  8784 ;;      Totals:         0       8       0       0       0       0       0       0       0       0       0       0       
      +0       0       0       0       0       0       0       0       0       0       0       0       0       0       0
  8785 ;;Total ram usage:        8 bytes
  8786 ;; Hardware stack levels used:    1
  8787 ;; Hardware stack levels required when called:    1
  8788 ;; This function calls:
  8789 ;;		___fladd
  8790 ;; This function is called by:
  8791 ;;		_efgtoa
  8792 ;; This function uses a non-reentrant model
  8793 ;;
  8794                           
  8795                           
  8796                           ;psect for function ___flsub
  8797  1B59                     ___flsub:
  8798  1B59                     l3449:	
  8799                           ;incstack = 0
  8800                           ; Regs used in ___flsub: [wreg+status,2+status,0+pclath+cstack]
  8801                           
  8802  1B59  3080               	movlw	128
  8803  1B5A  0020               	movlb	0	; select bank0
  8804  1B5B  06BD               	xorwf	___flsub@a+3,f
  8805  1B5C                     l3451:
  8806  1B5C  0841               	movf	___flsub@b+3,w
  8807  1B5D  00F3               	movwf	___fladd@b+3
  8808  1B5E  0840               	movf	___flsub@b+2,w
  8809  1B5F  00F2               	movwf	___fladd@b+2
  8810  1B60  083F               	movf	___flsub@b+1,w
  8811  1B61  00F1               	movwf	___fladd@b+1
  8812  1B62  083E               	movf	___flsub@b,w
  8813  1B63  00F0               	movwf	___fladd@b
  8814  1B64  083D               	movf	___flsub@a+3,w
  8815  1B65  00F7               	movwf	___fladd@a+3
  8816  1B66  083C               	movf	___flsub@a+2,w
  8817  1B67  00F6               	movwf	___fladd@a+2
  8818  1B68  083B               	movf	___flsub@a+1,w
  8819  1B69  00F5               	movwf	___fladd@a+1
  8820  1B6A  083A               	movf	___flsub@a,w
  8821  1B6B  00F4               	movwf	___fladd@a
  8822  1B6C  3188  205C  319B   	fcall	___fladd
  8823  1B6F  0873               	movf	?___fladd+3,w
  8824  1B70  0020               	movlb	0	; select bank0
  8825  1B71  00BD               	movwf	?___flsub+3
  8826  1B72  0872               	movf	?___fladd+2,w
  8827  1B73  00BC               	movwf	?___flsub+2
  8828  1B74  0871               	movf	?___fladd+1,w
  8829  1B75  00BB               	movwf	?___flsub+1
  8830  1B76  0870               	movf	?___fladd,w
  8831  1B77  00BA               	movwf	?___flsub
  8832  1B78                     l757:
  8833  1B78  0008               	return
  8834  1B79                     __end_of___flsub:
  8835                           
  8836                           	psect	text13
  8837  085C                     __ptext13:	
  8838 ;; *************** function ___fladd *****************
  8839 ;; Defined at:
  8840 ;;		line 10 in file "C:\Program Files\Microchip\xc8\v2.31\pic\sources\c99\common\sprcadd.c"
  8841 ;; Parameters:    Size  Location     Type
  8842 ;;  b               4    0[COMMON] long 
  8843 ;;  a               4    4[COMMON] long 
  8844 ;; Auto vars:     Size  Location     Type
  8845 ;;  grs             1   11[COMMON] unsigned char 
  8846 ;;  bexp            1   10[COMMON] unsigned char 
  8847 ;;  aexp            1    9[COMMON] unsigned char 
  8848 ;;  signs           1    8[COMMON] unsigned char 
  8849 ;; Return value:  Size  Location     Type
  8850 ;;                  4    0[COMMON] unsigned char 
  8851 ;; Registers used:
  8852 ;;		wreg, status,2, status,0
  8853 ;; Tracked objects:
  8854 ;;		On entry : 0/0
  8855 ;;		On exit  : 0/0
  8856 ;;		Unchanged: 0/0
  8857 ;; Data sizes:     COMMON   BANK0   BANK1   BANK2   BANK3   BANK4   BANK5   BANK6   BANK7   BANK8   BANK9  BANK10  BANK1
      +1  BANK12  BANK13  BANK14  BANK15  BANK16  BANK17  BANK18  BANK19  BANK20  BANK21  BANK22  BANK23  BANK24  BANK25
  8858 ;;      Params:         8       0       0       0       0       0       0       0       0       0       0       0       
      +0       0       0       0       0       0       0       0       0       0       0       0       0       0       0
  8859 ;;      Locals:         4       0       0       0       0       0       0       0       0       0       0       0       
      +0       0       0       0       0       0       0       0       0       0       0       0       0       0       0
  8860 ;;      Temps:          0       8       0       0       0       0       0       0       0       0       0       0       
      +0       0       0       0       0       0       0       0       0       0       0       0       0       0       0
  8861 ;;      Totals:        12       8       0       0       0       0       0       0       0       0       0       0       
      +0       0       0       0       0       0       0       0       0       0       0       0       0       0       0
  8862 ;;Total ram usage:       20 bytes
  8863 ;; Hardware stack levels used:    1
  8864 ;; This function calls:
  8865 ;;		Nothing
  8866 ;; This function is called by:
  8867 ;;		___flsub
  8868 ;;		_efgtoa
  8869 ;; This function uses a non-reentrant model
  8870 ;;
  8871                           
  8872                           
  8873                           ;psect for function ___fladd
  8874  085C                     ___fladd:
  8875  085C                     l2979:	
  8876                           ;incstack = 0
  8877                           ; Regs used in ___fladd: [wreg+status,2+status,0]
  8878                           
  8879  085C  0873               	movf	___fladd@b+3,w
  8880  085D  3980               	andlw	128
  8881  085E  0020               	movlb	0	; select bank0
  8882  085F  00A0               	movwf	??___fladd
  8883  0860  0820               	movf	??___fladd,w
  8884  0861  00F8               	movwf	___fladd@signs
  8885  0862                     l2981:
  8886  0862  3573               	lslf	___fladd@b+3,w
  8887  0863  00A0               	movwf	??___fladd
  8888  0864  0820               	movf	??___fladd,w
  8889  0865  00FA               	movwf	___fladd@bexp
  8890  0866                     l2983:
  8891  0866  1FF2               	btfss	___fladd@b+2,7
  8892  0867  2869               	goto	u3381
  8893  0868  286A               	goto	u3380
  8894  0869                     u3381:
  8895  0869  286B               	goto	l2987
  8896  086A                     u3380:
  8897  086A                     l2985:
  8898  086A  147A               	bsf	___fladd@bexp,0
  8899  086B                     l2987:
  8900  086B  087A               	movf	___fladd@bexp,w
  8901  086C  1903               	btfsc	3,2
  8902  086D  286F               	goto	u3391
  8903  086E  2870               	goto	u3390
  8904  086F                     u3391:
  8905  086F  2880               	goto	l2997
  8906  0870                     u3390:
  8907  0870                     l2989:
  8908  0870  0A7A               	incf	___fladd@bexp,w
  8909  0871  1D03               	btfss	3,2
  8910  0872  2874               	goto	u3401
  8911  0873  2875               	goto	u3400
  8912  0874                     u3401:
  8913  0874  287D               	goto	l2993
  8914  0875                     u3400:
  8915  0875                     l2991:
  8916  0875  3000               	movlw	0
  8917  0876  00F3               	movwf	___fladd@b+3
  8918  0877  3000               	movlw	0
  8919  0878  00F2               	movwf	___fladd@b+2
  8920  0879  3000               	movlw	0
  8921  087A  00F1               	movwf	___fladd@b+1
  8922  087B  3000               	movlw	0
  8923  087C  00F0               	movwf	___fladd@b
  8924  087D                     l2993:
  8925  087D  17F2               	bsf	___fladd@b+2,7
  8926  087E                     l2995:
  8927  087E  01F3               	clrf	___fladd@b+3
  8928  087F  2888               	goto	l2999
  8929  0880                     l2997:
  8930  0880  3000               	movlw	0
  8931  0881  00F3               	movwf	___fladd@b+3
  8932  0882  3000               	movlw	0
  8933  0883  00F2               	movwf	___fladd@b+2
  8934  0884  3000               	movlw	0
  8935  0885  00F1               	movwf	___fladd@b+1
  8936  0886  3000               	movlw	0
  8937  0887  00F0               	movwf	___fladd@b
  8938  0888                     l2999:
  8939  0888  0877               	movf	___fladd@a+3,w
  8940  0889  3980               	andlw	128
  8941  088A  00A0               	movwf	??___fladd
  8942  088B  0820               	movf	??___fladd,w
  8943  088C  00F9               	movwf	___fladd@aexp
  8944  088D                     l3001:
  8945  088D  0879               	movf	___fladd@aexp,w
  8946  088E  0678               	xorwf	___fladd@signs,w
  8947  088F  1903               	skipnz
  8948  0890  2892               	goto	u3411
  8949  0891  2893               	goto	u3410
  8950  0892                     u3411:
  8951  0892  2894               	goto	l3005
  8952  0893                     u3410:
  8953  0893                     l3003:
  8954  0893  1778               	bsf	___fladd@signs,6
  8955  0894                     l3005:
  8956  0894  3577               	lslf	___fladd@a+3,w
  8957  0895  00A0               	movwf	??___fladd
  8958  0896  0820               	movf	??___fladd,w
  8959  0897  00F9               	movwf	___fladd@aexp
  8960  0898                     l3007:
  8961  0898  1FF6               	btfss	___fladd@a+2,7
  8962  0899  289B               	goto	u3421
  8963  089A  289C               	goto	u3420
  8964  089B                     u3421:
  8965  089B  289D               	goto	l3011
  8966  089C                     u3420:
  8967  089C                     l3009:
  8968  089C  1479               	bsf	___fladd@aexp,0
  8969  089D                     l3011:
  8970  089D  0879               	movf	___fladd@aexp,w
  8971  089E  1903               	btfsc	3,2
  8972  089F  28A1               	goto	u3431
  8973  08A0  28A2               	goto	u3430
  8974  08A1                     u3431:
  8975  08A1  28B2               	goto	l3021
  8976  08A2                     u3430:
  8977  08A2                     l3013:
  8978  08A2  0A79               	incf	___fladd@aexp,w
  8979  08A3  1D03               	btfss	3,2
  8980  08A4  28A6               	goto	u3441
  8981  08A5  28A7               	goto	u3440
  8982  08A6                     u3441:
  8983  08A6  28AF               	goto	l3017
  8984  08A7                     u3440:
  8985  08A7                     l3015:
  8986  08A7  3000               	movlw	0
  8987  08A8  00F7               	movwf	___fladd@a+3
  8988  08A9  3000               	movlw	0
  8989  08AA  00F6               	movwf	___fladd@a+2
  8990  08AB  3000               	movlw	0
  8991  08AC  00F5               	movwf	___fladd@a+1
  8992  08AD  3000               	movlw	0
  8993  08AE  00F4               	movwf	___fladd@a
  8994  08AF                     l3017:
  8995  08AF  17F6               	bsf	___fladd@a+2,7
  8996  08B0                     l3019:
  8997  08B0  01F7               	clrf	___fladd@a+3
  8998  08B1  28BA               	goto	l711
  8999  08B2                     l3021:
  9000  08B2  3000               	movlw	0
  9001  08B3  00F7               	movwf	___fladd@a+3
  9002  08B4  3000               	movlw	0
  9003  08B5  00F6               	movwf	___fladd@a+2
  9004  08B6  3000               	movlw	0
  9005  08B7  00F5               	movwf	___fladd@a+1
  9006  08B8  3000               	movlw	0
  9007  08B9  00F4               	movwf	___fladd@a
  9008  08BA                     l711:
  9009  08BA  087A               	movf	___fladd@bexp,w
  9010  08BB  0279               	subwf	___fladd@aexp,w
  9011  08BC  1803               	skipnc
  9012  08BD  28BF               	goto	u3451
  9013  08BE  28C0               	goto	u3450
  9014  08BF                     u3451:
  9015  08BF  2904               	goto	l3057
  9016  08C0                     u3450:
  9017  08C0                     l3023:
  9018  08C0  1F78               	btfss	___fladd@signs,6
  9019  08C1  28C3               	goto	u3461
  9020  08C2  28C4               	goto	u3460
  9021  08C3                     u3461:
  9022  08C3  28C8               	goto	l3027
  9023  08C4                     u3460:
  9024  08C4                     l3025:
  9025  08C4  3080               	movlw	128
  9026  08C5  00A0               	movwf	??___fladd
  9027  08C6  0820               	movf	??___fladd,w
  9028  08C7  06F8               	xorwf	___fladd@signs,f
  9029  08C8                     l3027:
  9030  08C8  087A               	movf	___fladd@bexp,w
  9031  08C9  00A0               	movwf	??___fladd
  9032  08CA  0820               	movf	??___fladd,w
  9033  08CB  00FB               	movwf	___fladd@grs
  9034  08CC                     l3029:
  9035  08CC  0879               	movf	___fladd@aexp,w
  9036  08CD  00A0               	movwf	??___fladd
  9037  08CE  0820               	movf	??___fladd,w
  9038  08CF  00FA               	movwf	___fladd@bexp
  9039  08D0                     l3031:
  9040  08D0  087B               	movf	___fladd@grs,w
  9041  08D1  00A0               	movwf	??___fladd
  9042  08D2  0820               	movf	??___fladd,w
  9043  08D3  00F9               	movwf	___fladd@aexp
  9044  08D4                     l3033:
  9045  08D4  0870               	movf	___fladd@b,w
  9046  08D5  00A0               	movwf	??___fladd
  9047  08D6  0820               	movf	??___fladd,w
  9048  08D7  00FB               	movwf	___fladd@grs
  9049  08D8                     l3035:
  9050  08D8  0874               	movf	___fladd@a,w
  9051  08D9  00A0               	movwf	??___fladd
  9052  08DA  0820               	movf	??___fladd,w
  9053  08DB  00F0               	movwf	___fladd@b
  9054  08DC                     l3037:
  9055  08DC  087B               	movf	___fladd@grs,w
  9056  08DD  00A0               	movwf	??___fladd
  9057  08DE  0820               	movf	??___fladd,w
  9058  08DF  00F4               	movwf	___fladd@a
  9059  08E0                     l3039:
  9060  08E0  0871               	movf	___fladd@b+1,w
  9061  08E1  00A0               	movwf	??___fladd
  9062  08E2  0820               	movf	??___fladd,w
  9063  08E3  00FB               	movwf	___fladd@grs
  9064  08E4                     l3041:
  9065  08E4  0875               	movf	___fladd@a+1,w
  9066  08E5  00A0               	movwf	??___fladd
  9067  08E6  0820               	movf	??___fladd,w
  9068  08E7  00F1               	movwf	___fladd@b+1
  9069  08E8                     l3043:
  9070  08E8  087B               	movf	___fladd@grs,w
  9071  08E9  00A0               	movwf	??___fladd
  9072  08EA  0820               	movf	??___fladd,w
  9073  08EB  00F5               	movwf	___fladd@a+1
  9074  08EC                     l3045:
  9075  08EC  0872               	movf	___fladd@b+2,w
  9076  08ED  00A0               	movwf	??___fladd
  9077  08EE  0820               	movf	??___fladd,w
  9078  08EF  00FB               	movwf	___fladd@grs
  9079  08F0                     l3047:
  9080  08F0  0876               	movf	___fladd@a+2,w
  9081  08F1  00A0               	movwf	??___fladd
  9082  08F2  0820               	movf	??___fladd,w
  9083  08F3  00F2               	movwf	___fladd@b+2
  9084  08F4                     l3049:
  9085  08F4  087B               	movf	___fladd@grs,w
  9086  08F5  00A0               	movwf	??___fladd
  9087  08F6  0820               	movf	??___fladd,w
  9088  08F7  00F6               	movwf	___fladd@a+2
  9089  08F8                     l3051:
  9090  08F8  0873               	movf	___fladd@b+3,w
  9091  08F9  00A0               	movwf	??___fladd
  9092  08FA  0820               	movf	??___fladd,w
  9093  08FB  00FB               	movwf	___fladd@grs
  9094  08FC                     l3053:
  9095  08FC  0877               	movf	___fladd@a+3,w
  9096  08FD  00A0               	movwf	??___fladd
  9097  08FE  0820               	movf	??___fladd,w
  9098  08FF  00F3               	movwf	___fladd@b+3
  9099  0900                     l3055:
  9100  0900  087B               	movf	___fladd@grs,w
  9101  0901  00A0               	movwf	??___fladd
  9102  0902  0820               	movf	??___fladd,w
  9103  0903  00F7               	movwf	___fladd@a+3
  9104  0904                     l3057:
  9105  0904  01FB               	clrf	___fladd@grs
  9106  0905                     l3059:
  9107  0905  0879               	movf	___fladd@aexp,w
  9108  0906  00A0               	movwf	??___fladd
  9109  0907  01A1               	clrf	??___fladd+1
  9110  0908  0821               	movf	??___fladd+1,w
  9111  0909  00A3               	movwf	??___fladd+3
  9112  090A  087A               	movf	___fladd@bexp,w
  9113  090B  0220               	subwf	??___fladd,w
  9114  090C  00A2               	movwf	??___fladd+2
  9115  090D  1C03               	skipc
  9116  090E  03A3               	decf	??___fladd+3,f
  9117  090F  0823               	movf	??___fladd+3,w
  9118  0910  3A80               	xorlw	128
  9119  0911  00A4               	movwf	??___fladd+4
  9120  0912  3080               	movlw	128
  9121  0913  0224               	subwf	??___fladd+4,w
  9122  0914  1D03               	skipz
  9123  0915  2918               	goto	u3475
  9124  0916  301A               	movlw	26
  9125  0917  0222               	subwf	??___fladd+2,w
  9126  0918                     u3475:
  9127  0918  1C03               	skipc
  9128  0919  291B               	goto	u3471
  9129  091A  291C               	goto	u3470
  9130  091B                     u3471:
  9131  091B  2956               	goto	l3075
  9132  091C                     u3470:
  9133  091C                     l3061:
  9134  091C  0873               	movf	___fladd@b+3,w
  9135  091D  0472               	iorwf	___fladd@b+2,w
  9136  091E  0471               	iorwf	___fladd@b+1,w
  9137  091F  0470               	iorwf	___fladd@b,w
  9138  0920  1D03               	skipz
  9139  0921  2923               	goto	u3481
  9140  0922  2925               	goto	u3480
  9141  0923                     u3481:
  9142  0923  3001               	movlw	1
  9143  0924  2926               	goto	u3490
  9144  0925                     u3480:
  9145  0925  3000               	movlw	0
  9146  0926                     u3490:
  9147  0926  0020               	movlb	0	; select bank0
  9148  0927  00A0               	movwf	??___fladd
  9149  0928  0820               	movf	??___fladd,w
  9150  0929  00FB               	movwf	___fladd@grs
  9151  092A  3000               	movlw	0
  9152  092B  00F3               	movwf	___fladd@b+3
  9153  092C  3000               	movlw	0
  9154  092D  00F2               	movwf	___fladd@b+2
  9155  092E  3000               	movlw	0
  9156  092F  00F1               	movwf	___fladd@b+1
  9157  0930  3000               	movlw	0
  9158  0931  00F0               	movwf	___fladd@b
  9159  0932  0879               	movf	___fladd@aexp,w
  9160  0933  00A0               	movwf	??___fladd
  9161  0934  0820               	movf	??___fladd,w
  9162  0935  00FA               	movwf	___fladd@bexp
  9163  0936  295C               	goto	l715
  9164  0937                     l717:
  9165  0937  1C7B               	btfss	___fladd@grs,0
  9166  0938  293A               	goto	u3501
  9167  0939  293B               	goto	u3500
  9168  093A                     u3501:
  9169  093A  2942               	goto	l3065
  9170  093B                     u3500:
  9171  093B                     l3063:
  9172  093B  367B               	lsrf	___fladd@grs,w
  9173  093C  3801               	iorlw	1
  9174  093D  0020               	movlb	0	; select bank0
  9175  093E  00A0               	movwf	??___fladd
  9176  093F  0820               	movf	??___fladd,w
  9177  0940  00FB               	movwf	___fladd@grs
  9178  0941  2944               	goto	l3067
  9179  0942                     l3065:
  9180  0942  1003               	clrc
  9181  0943  0CFB               	rrf	___fladd@grs,f
  9182  0944                     l3067:
  9183  0944  1C70               	btfss	___fladd@b,0
  9184  0945  2947               	goto	u3511
  9185  0946  2948               	goto	u3510
  9186  0947                     u3511:
  9187  0947  2949               	goto	l3071
  9188  0948                     u3510:
  9189  0948                     l3069:
  9190  0948  17FB               	bsf	___fladd@grs,7
  9191  0949                     l3071:
  9192  0949  3001               	movlw	1
  9193  094A  0020               	movlb	0	; select bank0
  9194  094B  00A0               	movwf	??___fladd
  9195  094C                     u3525:
  9196  094C  37F3               	asrf	___fladd@b+3,f
  9197  094D  0CF2               	rrf	___fladd@b+2,f
  9198  094E  0CF1               	rrf	___fladd@b+1,f
  9199  094F  0CF0               	rrf	___fladd@b,f
  9200  0950  0BA0               	decfsz	??___fladd& (0+127),f
  9201  0951  294C               	goto	u3525
  9202  0952                     l3073:
  9203  0952  3001               	movlw	1
  9204  0953  00A0               	movwf	??___fladd
  9205  0954  0820               	movf	??___fladd,w
  9206  0955  07FA               	addwf	___fladd@bexp,f
  9207  0956                     l3075:
  9208  0956  0879               	movf	___fladd@aexp,w
  9209  0957  027A               	subwf	___fladd@bexp,w
  9210  0958  1C03               	skipc
  9211  0959  295B               	goto	u3531
  9212  095A  295C               	goto	u3530
  9213  095B                     u3531:
  9214  095B  2937               	goto	l717
  9215  095C                     u3530:
  9216  095C                     l715:
  9217  095C  1B78               	btfsc	___fladd@signs,6
  9218  095D  295F               	goto	u3541
  9219  095E  2960               	goto	u3540
  9220  095F                     u3541:
  9221  095F  299A               	goto	l3101
  9222  0960                     u3540:
  9223  0960                     l3077:
  9224  0960  087A               	movf	___fladd@bexp,w
  9225  0961  1D03               	btfss	3,2
  9226  0962  2964               	goto	u3551
  9227  0963  2965               	goto	u3550
  9228  0964                     u3551:
  9229  0964  296E               	goto	l3083
  9230  0965                     u3550:
  9231  0965                     l3079:
  9232  0965  3000               	movlw	0
  9233  0966  00F3               	movwf	?___fladd+3
  9234  0967  3000               	movlw	0
  9235  0968  00F2               	movwf	?___fladd+2
  9236  0969  3000               	movlw	0
  9237  096A  00F1               	movwf	?___fladd+1
  9238  096B  3000               	movlw	0
  9239  096C  00F0               	movwf	?___fladd
  9240  096D  2A9A               	goto	l724
  9241  096E                     l3083:
  9242  096E  0874               	movf	___fladd@a,w
  9243  096F  07F0               	addwf	___fladd@b,f
  9244  0970  0875               	movf	___fladd@a+1,w
  9245  0971  3DF1               	addwfc	___fladd@b+1,f
  9246  0972  0876               	movf	___fladd@a+2,w
  9247  0973  3DF2               	addwfc	___fladd@b+2,f
  9248  0974  0877               	movf	___fladd@a+3,w
  9249  0975  3DF3               	addwfc	___fladd@b+3,f
  9250  0976                     l3085:
  9251  0976  1C73               	btfss	___fladd@b+3,0
  9252  0977  2979               	goto	u3561
  9253  0978  297A               	goto	u3560
  9254  0979                     u3561:
  9255  0979  2A27               	goto	l3135
  9256  097A                     u3560:
  9257  097A                     l3087:
  9258  097A  1C7B               	btfss	___fladd@grs,0
  9259  097B  297D               	goto	u3571
  9260  097C  297E               	goto	u3570
  9261  097D                     u3571:
  9262  097D  2985               	goto	l3091
  9263  097E                     u3570:
  9264  097E                     l3089:
  9265  097E  367B               	lsrf	___fladd@grs,w
  9266  097F  3801               	iorlw	1
  9267  0980  0020               	movlb	0	; select bank0
  9268  0981  00A0               	movwf	??___fladd
  9269  0982  0820               	movf	??___fladd,w
  9270  0983  00FB               	movwf	___fladd@grs
  9271  0984  2987               	goto	l3093
  9272  0985                     l3091:
  9273  0985  1003               	clrc
  9274  0986  0CFB               	rrf	___fladd@grs,f
  9275  0987                     l3093:
  9276  0987  1C70               	btfss	___fladd@b,0
  9277  0988  298A               	goto	u3581
  9278  0989  298B               	goto	u3580
  9279  098A                     u3581:
  9280  098A  298C               	goto	l3097
  9281  098B                     u3580:
  9282  098B                     l3095:
  9283  098B  17FB               	bsf	___fladd@grs,7
  9284  098C                     l3097:
  9285  098C  3001               	movlw	1
  9286  098D  0020               	movlb	0	; select bank0
  9287  098E  00A0               	movwf	??___fladd
  9288  098F                     u3595:
  9289  098F  37F3               	asrf	___fladd@b+3,f
  9290  0990  0CF2               	rrf	___fladd@b+2,f
  9291  0991  0CF1               	rrf	___fladd@b+1,f
  9292  0992  0CF0               	rrf	___fladd@b,f
  9293  0993  0BA0               	decfsz	??___fladd& (0+127),f
  9294  0994  298F               	goto	u3595
  9295  0995                     l3099:
  9296  0995  3001               	movlw	1
  9297  0996  00A0               	movwf	??___fladd
  9298  0997  0820               	movf	??___fladd,w
  9299  0998  07FA               	addwf	___fladd@bexp,f
  9300  0999  2A27               	goto	l3135
  9301  099A                     l3101:
  9302  099A  0873               	movf	___fladd@b+3,w
  9303  099B  3A80               	xorlw	128
  9304  099C  0020               	movlb	0	; select bank0
  9305  099D  00A0               	movwf	??___fladd
  9306  099E  0877               	movf	___fladd@a+3,w
  9307  099F  3A80               	xorlw	128
  9308  09A0  0220               	subwf	??___fladd,w
  9309  09A1  1D03               	skipz
  9310  09A2  29AD               	goto	u3603
  9311  09A3  0876               	movf	___fladd@a+2,w
  9312  09A4  0272               	subwf	___fladd@b+2,w
  9313  09A5  1D03               	skipz
  9314  09A6  29AD               	goto	u3603
  9315  09A7  0875               	movf	___fladd@a+1,w
  9316  09A8  0271               	subwf	___fladd@b+1,w
  9317  09A9  1D03               	skipz
  9318  09AA  29AD               	goto	u3603
  9319  09AB  0874               	movf	___fladd@a,w
  9320  09AC  0270               	subwf	___fladd@b,w
  9321  09AD                     u3603:
  9322  09AD  1803               	skipnc
  9323  09AE  29B0               	goto	u3601
  9324  09AF  29B1               	goto	u3600
  9325  09B0                     u3601:
  9326  09B0  29E9               	goto	l3111
  9327  09B1                     u3600:
  9328  09B1                     l3103:
  9329  09B1  30FF               	movlw	255
  9330  09B2  00A0               	movwf	??___fladd
  9331  09B3  30FF               	movlw	255
  9332  09B4  00A1               	movwf	??___fladd+1
  9333  09B5  30FF               	movlw	255
  9334  09B6  00A2               	movwf	??___fladd+2
  9335  09B7  30FF               	movlw	255
  9336  09B8  00A3               	movwf	??___fladd+3
  9337  09B9  0870               	movf	___fladd@b,w
  9338  09BA  0274               	subwf	___fladd@a,w
  9339  09BB  00A4               	movwf	??___fladd+4
  9340  09BC  0871               	movf	___fladd@b+1,w
  9341  09BD  3B75               	subwfb	___fladd@a+1,w
  9342  09BE  00A5               	movwf	??___fladd+5
  9343  09BF  0872               	movf	___fladd@b+2,w
  9344  09C0  3B76               	subwfb	___fladd@a+2,w
  9345  09C1  00A6               	movwf	??___fladd+6
  9346  09C2  0873               	movf	___fladd@b+3,w
  9347  09C3  3B77               	subwfb	___fladd@a+3,w
  9348  09C4  00A7               	movwf	??___fladd+7
  9349  09C5  0824               	movf	??___fladd+4,w
  9350  09C6  07A0               	addwf	??___fladd,f
  9351  09C7  0825               	movf	??___fladd+5,w
  9352  09C8  3DA1               	addwfc	??___fladd+1,f
  9353  09C9  0826               	movf	??___fladd+6,w
  9354  09CA  3DA2               	addwfc	??___fladd+2,f
  9355  09CB  0827               	movf	??___fladd+7,w
  9356  09CC  3DA3               	addwfc	??___fladd+3,f
  9357  09CD  0823               	movf	??___fladd+3,w
  9358  09CE  00F3               	movwf	___fladd@b+3
  9359  09CF  0822               	movf	??___fladd+2,w
  9360  09D0  00F2               	movwf	___fladd@b+2
  9361  09D1  0821               	movf	??___fladd+1,w
  9362  09D2  00F1               	movwf	___fladd@b+1
  9363  09D3  0820               	movf	??___fladd,w
  9364  09D4  00F0               	movwf	___fladd@b
  9365  09D5                     l3105:
  9366  09D5  3080               	movlw	128
  9367  09D6  00A0               	movwf	??___fladd
  9368  09D7  0820               	movf	??___fladd,w
  9369  09D8  06F8               	xorwf	___fladd@signs,f
  9370  09D9  09FB               	comf	___fladd@grs,f
  9371  09DA  0AFB               	incf	___fladd@grs,f
  9372  09DB                     l3107:
  9373  09DB  087B               	movf	___fladd@grs,w
  9374  09DC  1D03               	btfss	3,2
  9375  09DD  29DF               	goto	u3611
  9376  09DE  29E0               	goto	u3610
  9377  09DF                     u3611:
  9378  09DF  29F1               	goto	l732
  9379  09E0                     u3610:
  9380  09E0                     l3109:
  9381  09E0  3001               	movlw	1
  9382  09E1  07F0               	addwf	___fladd@b,f
  9383  09E2  3000               	movlw	0
  9384  09E3  3DF1               	addwfc	___fladd@b+1,f
  9385  09E4  3000               	movlw	0
  9386  09E5  3DF2               	addwfc	___fladd@b+2,f
  9387  09E6  3000               	movlw	0
  9388  09E7  3DF3               	addwfc	___fladd@b+3,f
  9389  09E8  29F1               	goto	l732
  9390  09E9                     l3111:
  9391  09E9  0874               	movf	___fladd@a,w
  9392  09EA  02F0               	subwf	___fladd@b,f
  9393  09EB  0875               	movf	___fladd@a+1,w
  9394  09EC  3BF1               	subwfb	___fladd@b+1,f
  9395  09ED  0876               	movf	___fladd@a+2,w
  9396  09EE  3BF2               	subwfb	___fladd@b+2,f
  9397  09EF  0877               	movf	___fladd@a+3,w
  9398  09F0  3BF3               	subwfb	___fladd@b+3,f
  9399  09F1                     l732:
  9400  09F1  0873               	movf	___fladd@b+3,w
  9401  09F2  0472               	iorwf	___fladd@b+2,w
  9402  09F3  0471               	iorwf	___fladd@b+1,w
  9403  09F4  0470               	iorwf	___fladd@b,w
  9404  09F5  1D03               	skipz
  9405  09F6  29F8               	goto	u3621
  9406  09F7  29F9               	goto	u3620
  9407  09F8                     u3621:
  9408  09F8  2A23               	goto	l3133
  9409  09F9                     u3620:
  9410  09F9                     l3113:
  9411  09F9  087B               	movf	___fladd@grs,w
  9412  09FA  1D03               	btfss	3,2
  9413  09FB  29FD               	goto	u3631
  9414  09FC  29FE               	goto	u3630
  9415  09FD                     u3631:
  9416  09FD  2A23               	goto	l3133
  9417  09FE                     u3630:
  9418  09FE                     l3115:
  9419  09FE  3000               	movlw	0
  9420  09FF  00F3               	movwf	?___fladd+3
  9421  0A00  3000               	movlw	0
  9422  0A01  00F2               	movwf	?___fladd+2
  9423  0A02  3000               	movlw	0
  9424  0A03  00F1               	movwf	?___fladd+1
  9425  0A04  3000               	movlw	0
  9426  0A05  00F0               	movwf	?___fladd
  9427  0A06  2A9A               	goto	l724
  9428  0A07                     l3119:
  9429  0A07  3001               	movlw	1
  9430  0A08                     u3645:
  9431  0A08  35F0               	lslf	___fladd@b,f
  9432  0A09  0DF1               	rlf	___fladd@b+1,f
  9433  0A0A  0DF2               	rlf	___fladd@b+2,f
  9434  0A0B  0DF3               	rlf	___fladd@b+3,f
  9435  0A0C  0B89               	decfsz	9,f
  9436  0A0D  2A08               	goto	u3645
  9437  0A0E                     l3121:
  9438  0A0E  1FFB               	btfss	___fladd@grs,7
  9439  0A0F  2A11               	goto	u3651
  9440  0A10  2A12               	goto	u3650
  9441  0A11                     u3651:
  9442  0A11  2A13               	goto	l736
  9443  0A12                     u3650:
  9444  0A12                     l3123:
  9445  0A12  1470               	bsf	___fladd@b,0
  9446  0A13                     l736:
  9447  0A13  1C7B               	btfss	___fladd@grs,0
  9448  0A14  2A16               	goto	u3661
  9449  0A15  2A17               	goto	u3660
  9450  0A16                     u3661:
  9451  0A16  2A1A               	goto	l3127
  9452  0A17                     u3660:
  9453  0A17                     l3125:
  9454  0A17  1403               	setc
  9455  0A18  0DFB               	rlf	___fladd@grs,f
  9456  0A19  2A1C               	goto	l3129
  9457  0A1A                     l3127:
  9458  0A1A  1003               	clrc
  9459  0A1B  0DFB               	rlf	___fladd@grs,f
  9460  0A1C                     l3129:
  9461  0A1C  087A               	movf	___fladd@bexp,w
  9462  0A1D  1903               	btfsc	3,2
  9463  0A1E  2A20               	goto	u3671
  9464  0A1F  2A21               	goto	u3670
  9465  0A20                     u3671:
  9466  0A20  2A23               	goto	l3133
  9467  0A21                     u3670:
  9468  0A21                     l3131:
  9469  0A21  3001               	movlw	1
  9470  0A22  02FA               	subwf	___fladd@bexp,f
  9471  0A23                     l3133:
  9472  0A23  1FF2               	btfss	___fladd@b+2,7
  9473  0A24  2A26               	goto	u3681
  9474  0A25  2A27               	goto	u3680
  9475  0A26                     u3681:
  9476  0A26  2A07               	goto	l3119
  9477  0A27                     u3680:
  9478  0A27                     l3135:
  9479  0A27  01F9               	clrf	___fladd@aexp
  9480  0A28                     l3137:
  9481  0A28  1FFB               	btfss	___fladd@grs,7
  9482  0A29  2A2B               	goto	u3691
  9483  0A2A  2A2C               	goto	u3690
  9484  0A2B                     u3691:
  9485  0A2B  2A3A               	goto	l3145
  9486  0A2C                     u3690:
  9487  0A2C                     l3139:
  9488  0A2C  087B               	movf	___fladd@grs,w
  9489  0A2D  397F               	andlw	127
  9490  0A2E  1903               	btfsc	3,2
  9491  0A2F  2A31               	goto	u3701
  9492  0A30  2A32               	goto	u3700
  9493  0A31                     u3701:
  9494  0A31  2A35               	goto	l742
  9495  0A32                     u3700:
  9496  0A32                     l3141:
  9497  0A32  01F9               	clrf	___fladd@aexp
  9498  0A33  0AF9               	incf	___fladd@aexp,f
  9499  0A34  2A3A               	goto	l3145
  9500  0A35                     l742:
  9501  0A35  1C70               	btfss	___fladd@b,0
  9502  0A36  2A38               	goto	u3711
  9503  0A37  2A39               	goto	u3710
  9504  0A38                     u3711:
  9505  0A38  2A3A               	goto	l3145
  9506  0A39                     u3710:
  9507  0A39  2A32               	goto	l3141
  9508  0A3A                     l3145:
  9509  0A3A  0879               	movf	___fladd@aexp,w
  9510  0A3B  1903               	btfsc	3,2
  9511  0A3C  2A3E               	goto	u3721
  9512  0A3D  2A3F               	goto	u3720
  9513  0A3E                     u3721:
  9514  0A3E  2A6D               	goto	l745
  9515  0A3F                     u3720:
  9516  0A3F                     l3147:
  9517  0A3F  3001               	movlw	1
  9518  0A40  07F0               	addwf	___fladd@b,f
  9519  0A41  3000               	movlw	0
  9520  0A42  3DF1               	addwfc	___fladd@b+1,f
  9521  0A43  3000               	movlw	0
  9522  0A44  3DF2               	addwfc	___fladd@b+2,f
  9523  0A45  3000               	movlw	0
  9524  0A46  3DF3               	addwfc	___fladd@b+3,f
  9525  0A47                     l3149:
  9526  0A47  1C73               	btfss	___fladd@b+3,0
  9527  0A48  2A4A               	goto	u3731
  9528  0A49  2A4B               	goto	u3730
  9529  0A4A                     u3731:
  9530  0A4A  2A6D               	goto	l745
  9531  0A4B                     u3730:
  9532  0A4B                     l3151:
  9533  0A4B  0870               	movf	___fladd@b,w
  9534  0A4C  0020               	movlb	0	; select bank0
  9535  0A4D  00A0               	movwf	??___fladd
  9536  0A4E  0871               	movf	___fladd@b+1,w
  9537  0A4F  00A1               	movwf	??___fladd+1
  9538  0A50  0872               	movf	___fladd@b+2,w
  9539  0A51  00A2               	movwf	??___fladd+2
  9540  0A52  0873               	movf	___fladd@b+3,w
  9541  0A53  00A3               	movwf	??___fladd+3
  9542  0A54  3001               	movlw	1
  9543  0A55  00A4               	movwf	??___fladd+4
  9544  0A56                     u3745:
  9545  0A56  37A3               	asrf	??___fladd+3,f
  9546  0A57  0CA2               	rrf	??___fladd+2,f
  9547  0A58  0CA1               	rrf	??___fladd+1,f
  9548  0A59  0CA0               	rrf	??___fladd,f
  9549  0A5A                     u3740:
  9550  0A5A  0BA4               	decfsz	??___fladd+4,f
  9551  0A5B  2A56               	goto	u3745
  9552  0A5C  0823               	movf	??___fladd+3,w
  9553  0A5D  00F3               	movwf	___fladd@b+3
  9554  0A5E  0822               	movf	??___fladd+2,w
  9555  0A5F  00F2               	movwf	___fladd@b+2
  9556  0A60  0821               	movf	??___fladd+1,w
  9557  0A61  00F1               	movwf	___fladd@b+1
  9558  0A62  0820               	movf	??___fladd,w
  9559  0A63  00F0               	movwf	___fladd@b
  9560  0A64  0A7A               	incf	___fladd@bexp,w
  9561  0A65  1903               	btfsc	3,2
  9562  0A66  2A68               	goto	u3751
  9563  0A67  2A69               	goto	u3750
  9564  0A68                     u3751:
  9565  0A68  2A6D               	goto	l745
  9566  0A69                     u3750:
  9567  0A69                     l3153:
  9568  0A69  3001               	movlw	1
  9569  0A6A  00A0               	movwf	??___fladd
  9570  0A6B  0820               	movf	??___fladd,w
  9571  0A6C  07FA               	addwf	___fladd@bexp,f
  9572  0A6D                     l745:
  9573  0A6D  0A7A               	incf	___fladd@bexp,w
  9574  0A6E  1903               	btfsc	3,2
  9575  0A6F  2A71               	goto	u3761
  9576  0A70  2A72               	goto	u3760
  9577  0A71                     u3761:
  9578  0A71  2A77               	goto	l3157
  9579  0A72                     u3760:
  9580  0A72                     l3155:
  9581  0A72  087A               	movf	___fladd@bexp,w
  9582  0A73  1D03               	btfss	3,2
  9583  0A74  2A76               	goto	u3771
  9584  0A75  2A77               	goto	u3770
  9585  0A76                     u3771:
  9586  0A76  2A85               	goto	l3163
  9587  0A77                     u3770:
  9588  0A77                     l3157:
  9589  0A77  3000               	movlw	0
  9590  0A78  00F3               	movwf	___fladd@b+3
  9591  0A79  3000               	movlw	0
  9592  0A7A  00F2               	movwf	___fladd@b+2
  9593  0A7B  3000               	movlw	0
  9594  0A7C  00F1               	movwf	___fladd@b+1
  9595  0A7D  3000               	movlw	0
  9596  0A7E  00F0               	movwf	___fladd@b
  9597  0A7F                     l3159:
  9598  0A7F  087A               	movf	___fladd@bexp,w
  9599  0A80  1D03               	btfss	3,2
  9600  0A81  2A83               	goto	u3781
  9601  0A82  2A84               	goto	u3780
  9602  0A83                     u3781:
  9603  0A83  2A85               	goto	l3163
  9604  0A84                     u3780:
  9605  0A84                     l3161:
  9606  0A84  01F8               	clrf	___fladd@signs
  9607  0A85                     l3163:
  9608  0A85  1C7A               	btfss	___fladd@bexp,0
  9609  0A86  2A88               	goto	u3791
  9610  0A87  2A89               	goto	u3790
  9611  0A88                     u3791:
  9612  0A88  2A8B               	goto	l3167
  9613  0A89                     u3790:
  9614  0A89                     l3165:
  9615  0A89  17F2               	bsf	___fladd@b+2,7
  9616  0A8A  2A90               	goto	l753
  9617  0A8B                     l3167:
  9618  0A8B  307F               	movlw	127
  9619  0A8C  0020               	movlb	0	; select bank0
  9620  0A8D  00A0               	movwf	??___fladd
  9621  0A8E  0820               	movf	??___fladd,w
  9622  0A8F  05F2               	andwf	___fladd@b+2,f
  9623  0A90                     l753:
  9624  0A90  367A               	lsrf	___fladd@bexp,w
  9625  0A91  0020               	movlb	0	; select bank0
  9626  0A92  00A0               	movwf	??___fladd
  9627  0A93  0820               	movf	??___fladd,w
  9628  0A94  00F3               	movwf	___fladd@b+3
  9629  0A95                     l3169:
  9630  0A95  1FF8               	btfss	___fladd@signs,7
  9631  0A96  2A98               	goto	u3801
  9632  0A97  2A99               	goto	u3800
  9633  0A98                     u3801:
  9634  0A98  2A9A               	goto	l754
  9635  0A99                     u3800:
  9636  0A99                     l3171:
  9637  0A99  17F3               	bsf	___fladd@b+3,7
  9638  0A9A                     l754:
  9639  0A9A                     l724:
  9640  0A9A  0008               	return
  9641  0A9B                     __end_of___fladd:
  9642                           
  9643                           	psect	text14
  9644  1A87                     __ptext14:	
  9645 ;; *************** function ___flneg *****************
  9646 ;; Defined at:
  9647 ;;		line 15 in file "C:\Program Files\Microchip\xc8\v2.31\pic\sources\c99\common\flneg.c"
  9648 ;; Parameters:    Size  Location     Type
  9649 ;;  f1              4    0[COMMON] unsigned char 
  9650 ;; Auto vars:     Size  Location     Type
  9651 ;;		None
  9652 ;; Return value:  Size  Location     Type
  9653 ;;                  4    0[COMMON] unsigned char 
  9654 ;; Registers used:
  9655 ;;		wreg
  9656 ;; Tracked objects:
  9657 ;;		On entry : 0/0
  9658 ;;		On exit  : 0/0
  9659 ;;		Unchanged: 0/0
  9660 ;; Data sizes:     COMMON   BANK0   BANK1   BANK2   BANK3   BANK4   BANK5   BANK6   BANK7   BANK8   BANK9  BANK10  BANK1
      +1  BANK12  BANK13  BANK14  BANK15  BANK16  BANK17  BANK18  BANK19  BANK20  BANK21  BANK22  BANK23  BANK24  BANK25
  9661 ;;      Params:         4       0       0       0       0       0       0       0       0       0       0       0       
      +0       0       0       0       0       0       0       0       0       0       0       0       0       0       0
  9662 ;;      Locals:         0       0       0       0       0       0       0       0       0       0       0       0       
      +0       0       0       0       0       0       0       0       0       0       0       0       0       0       0
  9663 ;;      Temps:          0       0       0       0       0       0       0       0       0       0       0       0       
      +0       0       0       0       0       0       0       0       0       0       0       0       0       0       0
  9664 ;;      Totals:         4       0       0       0       0       0       0       0       0       0       0       0       
      +0       0       0       0       0       0       0       0       0       0       0       0       0       0       0
  9665 ;;Total ram usage:        4 bytes
  9666 ;; Hardware stack levels used:    1
  9667 ;; This function calls:
  9668 ;;		Nothing
  9669 ;; This function is called by:
  9670 ;;		_efgtoa
  9671 ;; This function uses a non-reentrant model
  9672 ;;
  9673                           
  9674                           
  9675                           ;psect for function ___flneg
  9676  1A87                     ___flneg:
  9677  1A87                     l3405:	
  9678                           ;incstack = 0
  9679                           ; Regs used in ___flneg: [wreg]
  9680                           
  9681  1A87  0873               	movf	___flneg@f1+3,w
  9682  1A88  0472               	iorwf	___flneg@f1+2,w
  9683  1A89  0471               	iorwf	___flneg@f1+1,w
  9684  1A8A  0470               	iorwf	___flneg@f1,w
  9685  1A8B  1903               	skipnz
  9686  1A8C  2A8E               	goto	u4401
  9687  1A8D  2A8F               	goto	u4400
  9688  1A8E                     u4401:
  9689  1A8E  2A91               	goto	l3409
  9690  1A8F                     u4400:
  9691  1A8F                     l3407:
  9692  1A8F  3080               	movlw	128
  9693  1A90  06F3               	xorwf	___flneg@f1+3,f
  9694  1A91                     l3409:
  9695  1A91                     l600:
  9696  1A91  0008               	return
  9697  1A92                     __end_of___flneg:
  9698                           
  9699                           	psect	text15
  9700  0A9B                     __ptext15:	
  9701 ;; *************** function ___flmul *****************
  9702 ;; Defined at:
  9703 ;;		line 8 in file "C:\Program Files\Microchip\xc8\v2.31\pic\sources\c99\common\sprcmul.c"
  9704 ;; Parameters:    Size  Location     Type
  9705 ;;  b               4    0[BANK0 ] unsigned char 
  9706 ;;  a               4    4[BANK0 ] unsigned char 
  9707 ;; Auto vars:     Size  Location     Type
  9708 ;;  prod            4   20[BANK0 ] struct .
  9709 ;;  grs             4   14[BANK0 ] unsigned long 
  9710 ;;  temp            2   24[BANK0 ] struct .
  9711 ;;  bexp            1   19[BANK0 ] unsigned char 
  9712 ;;  aexp            1   18[BANK0 ] unsigned char 
  9713 ;;  sign            1   13[BANK0 ] unsigned char 
  9714 ;; Return value:  Size  Location     Type
  9715 ;;                  4    0[BANK0 ] unsigned char 
  9716 ;; Registers used:
  9717 ;;		wreg, status,2, status,0, pclath, cstack
  9718 ;; Tracked objects:
  9719 ;;		On entry : 0/0
  9720 ;;		On exit  : 0/0
  9721 ;;		Unchanged: 0/0
  9722 ;; Data sizes:     COMMON   BANK0   BANK1   BANK2   BANK3   BANK4   BANK5   BANK6   BANK7   BANK8   BANK9  BANK10  BANK1
      +1  BANK12  BANK13  BANK14  BANK15  BANK16  BANK17  BANK18  BANK19  BANK20  BANK21  BANK22  BANK23  BANK24  BANK25
  9723 ;;      Params:         0       8       0       0       0       0       0       0       0       0       0       0       
      +0       0       0       0       0       0       0       0       0       0       0       0       0       0       0
  9724 ;;      Locals:         0      13       0       0       0       0       0       0       0       0       0       0       
      +0       0       0       0       0       0       0       0       0       0       0       0       0       0       0
  9725 ;;      Temps:          0       5       0       0       0       0       0       0       0       0       0       0       
      +0       0       0       0       0       0       0       0       0       0       0       0       0       0       0
  9726 ;;      Totals:         0      26       0       0       0       0       0       0       0       0       0       0       
      +0       0       0       0       0       0       0       0       0       0       0       0       0       0       0
  9727 ;;Total ram usage:       26 bytes
  9728 ;; Hardware stack levels used:    1
  9729 ;; Hardware stack levels required when called:    1
  9730 ;; This function calls:
  9731 ;;		__Umul8_16
  9732 ;; This function is called by:
  9733 ;;		_main
  9734 ;;		_efgtoa
  9735 ;; This function uses a non-reentrant model
  9736 ;;
  9737                           
  9738                           
  9739                           ;psect for function ___flmul
  9740  0A9B                     ___flmul:
  9741  0A9B                     l3595:	
  9742                           ;incstack = 0
  9743                           ; Regs used in ___flmul: [wreg+status,2+status,0+pclath+cstack]
  9744                           
  9745  0A9B  0020               	movlb	0	; select bank0
  9746  0A9C  0823               	movf	___flmul@b+3,w
  9747  0A9D  3980               	andlw	128
  9748  0A9E  00A8               	movwf	??___flmul
  9749  0A9F  0828               	movf	??___flmul,w
  9750  0AA0  00AD               	movwf	___flmul@sign
  9751  0AA1                     l3597:
  9752  0AA1  3523               	lslf	___flmul@b+3,w
  9753  0AA2  00A8               	movwf	??___flmul
  9754  0AA3  0828               	movf	??___flmul,w
  9755  0AA4  00B3               	movwf	___flmul@bexp
  9756  0AA5                     l3599:
  9757  0AA5  1FA2               	btfss	___flmul@b+2,7
  9758  0AA6  2AA8               	goto	u4801
  9759  0AA7  2AA9               	goto	u4800
  9760  0AA8                     u4801:
  9761  0AA8  2AAA               	goto	l3603
  9762  0AA9                     u4800:
  9763  0AA9                     l3601:
  9764  0AA9  1433               	bsf	___flmul@bexp,0
  9765  0AAA                     l3603:
  9766  0AAA  0833               	movf	___flmul@bexp,w
  9767  0AAB  1903               	btfsc	3,2
  9768  0AAC  2AAE               	goto	u4811
  9769  0AAD  2AAF               	goto	u4810
  9770  0AAE                     u4811:
  9771  0AAE  2ABE               	goto	l3611
  9772  0AAF                     u4810:
  9773  0AAF                     l3605:
  9774  0AAF  0A33               	incf	___flmul@bexp,w
  9775  0AB0  1D03               	btfss	3,2
  9776  0AB1  2AB3               	goto	u4821
  9777  0AB2  2AB4               	goto	u4820
  9778  0AB3                     u4821:
  9779  0AB3  2ABC               	goto	l3609
  9780  0AB4                     u4820:
  9781  0AB4                     l3607:
  9782  0AB4  3000               	movlw	0
  9783  0AB5  00A3               	movwf	___flmul@b+3
  9784  0AB6  3000               	movlw	0
  9785  0AB7  00A2               	movwf	___flmul@b+2
  9786  0AB8  3000               	movlw	0
  9787  0AB9  00A1               	movwf	___flmul@b+1
  9788  0ABA  3000               	movlw	0
  9789  0ABB  00A0               	movwf	___flmul@b
  9790  0ABC                     l3609:
  9791  0ABC  17A2               	bsf	___flmul@b+2,7
  9792  0ABD  2AC6               	goto	l3613
  9793  0ABE                     l3611:
  9794  0ABE  3000               	movlw	0
  9795  0ABF  00A3               	movwf	___flmul@b+3
  9796  0AC0  3000               	movlw	0
  9797  0AC1  00A2               	movwf	___flmul@b+2
  9798  0AC2  3000               	movlw	0
  9799  0AC3  00A1               	movwf	___flmul@b+1
  9800  0AC4  3000               	movlw	0
  9801  0AC5  00A0               	movwf	___flmul@b
  9802  0AC6                     l3613:
  9803  0AC6  0827               	movf	___flmul@a+3,w
  9804  0AC7  3980               	andlw	128
  9805  0AC8  00A8               	movwf	??___flmul
  9806  0AC9  0828               	movf	??___flmul,w
  9807  0ACA  06AD               	xorwf	___flmul@sign,f
  9808  0ACB                     l3615:
  9809  0ACB  3527               	lslf	___flmul@a+3,w
  9810  0ACC  00A8               	movwf	??___flmul
  9811  0ACD  0828               	movf	??___flmul,w
  9812  0ACE  00B2               	movwf	___flmul@aexp
  9813  0ACF                     l3617:
  9814  0ACF  1FA6               	btfss	___flmul@a+2,7
  9815  0AD0  2AD2               	goto	u4831
  9816  0AD1  2AD3               	goto	u4830
  9817  0AD2                     u4831:
  9818  0AD2  2AD4               	goto	l3621
  9819  0AD3                     u4830:
  9820  0AD3                     l3619:
  9821  0AD3  1432               	bsf	___flmul@aexp,0
  9822  0AD4                     l3621:
  9823  0AD4  0832               	movf	___flmul@aexp,w
  9824  0AD5  1903               	btfsc	3,2
  9825  0AD6  2AD8               	goto	u4841
  9826  0AD7  2AD9               	goto	u4840
  9827  0AD8                     u4841:
  9828  0AD8  2AE8               	goto	l3629
  9829  0AD9                     u4840:
  9830  0AD9                     l3623:
  9831  0AD9  0A32               	incf	___flmul@aexp,w
  9832  0ADA  1D03               	btfss	3,2
  9833  0ADB  2ADD               	goto	u4851
  9834  0ADC  2ADE               	goto	u4850
  9835  0ADD                     u4851:
  9836  0ADD  2AE6               	goto	l3627
  9837  0ADE                     u4850:
  9838  0ADE                     l3625:
  9839  0ADE  3000               	movlw	0
  9840  0ADF  00A7               	movwf	___flmul@a+3
  9841  0AE0  3000               	movlw	0
  9842  0AE1  00A6               	movwf	___flmul@a+2
  9843  0AE2  3000               	movlw	0
  9844  0AE3  00A5               	movwf	___flmul@a+1
  9845  0AE4  3000               	movlw	0
  9846  0AE5  00A4               	movwf	___flmul@a
  9847  0AE6                     l3627:
  9848  0AE6  17A6               	bsf	___flmul@a+2,7
  9849  0AE7  2AF0               	goto	l3631
  9850  0AE8                     l3629:
  9851  0AE8  3000               	movlw	0
  9852  0AE9  00A7               	movwf	___flmul@a+3
  9853  0AEA  3000               	movlw	0
  9854  0AEB  00A6               	movwf	___flmul@a+2
  9855  0AEC  3000               	movlw	0
  9856  0AED  00A5               	movwf	___flmul@a+1
  9857  0AEE  3000               	movlw	0
  9858  0AEF  00A4               	movwf	___flmul@a
  9859  0AF0                     l3631:
  9860  0AF0  0832               	movf	___flmul@aexp,w
  9861  0AF1  1903               	btfsc	3,2
  9862  0AF2  2AF4               	goto	u4861
  9863  0AF3  2AF5               	goto	u4860
  9864  0AF4                     u4861:
  9865  0AF4  2AFA               	goto	l3635
  9866  0AF5                     u4860:
  9867  0AF5                     l3633:
  9868  0AF5  0833               	movf	___flmul@bexp,w
  9869  0AF6  1D03               	btfss	3,2
  9870  0AF7  2AF9               	goto	u4871
  9871  0AF8  2AFA               	goto	u4870
  9872  0AF9                     u4871:
  9873  0AF9  2B03               	goto	l3639
  9874  0AFA                     u4870:
  9875  0AFA                     l3635:
  9876  0AFA  3000               	movlw	0
  9877  0AFB  00A3               	movwf	?___flmul+3
  9878  0AFC  3000               	movlw	0
  9879  0AFD  00A2               	movwf	?___flmul+2
  9880  0AFE  3000               	movlw	0
  9881  0AFF  00A1               	movwf	?___flmul+1
  9882  0B00  3000               	movlw	0
  9883  0B01  00A0               	movwf	?___flmul
  9884  0B02  2CF1               	goto	l807
  9885  0B03                     l3639:
  9886  0B03  0820               	movf	___flmul@b,w
  9887  0B04  00A8               	movwf	??___flmul
  9888  0B05  0828               	movf	??___flmul,w
  9889  0B06  00F0               	movwf	__Umul8_16@multiplicand
  9890  0B07  0826               	movf	___flmul@a+2,w
  9891  0B08  319B  23BB  318A   	fcall	__Umul8_16
  9892  0B0B  0871               	movf	?__Umul8_16+1,w
  9893  0B0C  0020               	movlb	0	; select bank0
  9894  0B0D  00B9               	movwf	___flmul@temp+1
  9895  0B0E  0870               	movf	?__Umul8_16,w
  9896  0B0F  00B8               	movwf	___flmul@temp
  9897  0B10                     l3641:
  9898  0B10  0838               	movf	___flmul@temp,w
  9899  0B11  00A8               	movwf	??___flmul
  9900  0B12  01A9               	clrf	??___flmul+1
  9901  0B13  01AA               	clrf	??___flmul+2
  9902  0B14  01AB               	clrf	??___flmul+3
  9903  0B15  082B               	movf	??___flmul+3,w
  9904  0B16  00B1               	movwf	___flmul@grs+3
  9905  0B17  082A               	movf	??___flmul+2,w
  9906  0B18  00B0               	movwf	___flmul@grs+2
  9907  0B19  0829               	movf	??___flmul+1,w
  9908  0B1A  00AF               	movwf	___flmul@grs+1
  9909  0B1B  0828               	movf	??___flmul,w
  9910  0B1C  00AE               	movwf	___flmul@grs
  9911  0B1D                     l3643:
  9912  0B1D  0839               	movf	___flmul@temp+1,w
  9913  0B1E  00A8               	movwf	??___flmul
  9914  0B1F  01A9               	clrf	??___flmul+1
  9915  0B20  01AA               	clrf	??___flmul+2
  9916  0B21  01AB               	clrf	??___flmul+3
  9917  0B22  082B               	movf	??___flmul+3,w
  9918  0B23  00B7               	movwf	___flmul@prod+3
  9919  0B24  082A               	movf	??___flmul+2,w
  9920  0B25  00B6               	movwf	___flmul@prod+2
  9921  0B26  0829               	movf	??___flmul+1,w
  9922  0B27  00B5               	movwf	___flmul@prod+1
  9923  0B28  0828               	movf	??___flmul,w
  9924  0B29  00B4               	movwf	___flmul@prod
  9925  0B2A  0821               	movf	___flmul@b+1,w
  9926  0B2B  00A8               	movwf	??___flmul
  9927  0B2C  0828               	movf	??___flmul,w
  9928  0B2D  00F0               	movwf	__Umul8_16@multiplicand
  9929  0B2E  0825               	movf	___flmul@a+1,w
  9930  0B2F  319B  23BB  318A   	fcall	__Umul8_16
  9931  0B32  0871               	movf	?__Umul8_16+1,w
  9932  0B33  0020               	movlb	0	; select bank0
  9933  0B34  00B9               	movwf	___flmul@temp+1
  9934  0B35  0870               	movf	?__Umul8_16,w
  9935  0B36  00B8               	movwf	___flmul@temp
  9936  0B37                     l3645:
  9937  0B37  0838               	movf	___flmul@temp,w
  9938  0B38  00A8               	movwf	??___flmul
  9939  0B39  01A9               	clrf	??___flmul+1
  9940  0B3A  01AA               	clrf	??___flmul+2
  9941  0B3B  01AB               	clrf	??___flmul+3
  9942  0B3C  0828               	movf	??___flmul,w
  9943  0B3D  07AE               	addwf	___flmul@grs,f
  9944  0B3E  0829               	movf	??___flmul+1,w
  9945  0B3F  3DAF               	addwfc	___flmul@grs+1,f
  9946  0B40  082A               	movf	??___flmul+2,w
  9947  0B41  3DB0               	addwfc	___flmul@grs+2,f
  9948  0B42  082B               	movf	??___flmul+3,w
  9949  0B43  3DB1               	addwfc	___flmul@grs+3,f
  9950  0B44                     l3647:
  9951  0B44  0839               	movf	___flmul@temp+1,w
  9952  0B45  00A8               	movwf	??___flmul
  9953  0B46  01A9               	clrf	??___flmul+1
  9954  0B47  01AA               	clrf	??___flmul+2
  9955  0B48  01AB               	clrf	??___flmul+3
  9956  0B49  0828               	movf	??___flmul,w
  9957  0B4A  07B4               	addwf	___flmul@prod,f
  9958  0B4B  0829               	movf	??___flmul+1,w
  9959  0B4C  3DB5               	addwfc	___flmul@prod+1,f
  9960  0B4D  082A               	movf	??___flmul+2,w
  9961  0B4E  3DB6               	addwfc	___flmul@prod+2,f
  9962  0B4F  082B               	movf	??___flmul+3,w
  9963  0B50  3DB7               	addwfc	___flmul@prod+3,f
  9964  0B51  0822               	movf	___flmul@b+2,w
  9965  0B52  00A8               	movwf	??___flmul
  9966  0B53  0828               	movf	??___flmul,w
  9967  0B54  00F0               	movwf	__Umul8_16@multiplicand
  9968  0B55  0824               	movf	___flmul@a,w
  9969  0B56  319B  23BB  318A   	fcall	__Umul8_16
  9970  0B59  0871               	movf	?__Umul8_16+1,w
  9971  0B5A  0020               	movlb	0	; select bank0
  9972  0B5B  00B9               	movwf	___flmul@temp+1
  9973  0B5C  0870               	movf	?__Umul8_16,w
  9974  0B5D  00B8               	movwf	___flmul@temp
  9975  0B5E                     l3649:
  9976  0B5E  0838               	movf	___flmul@temp,w
  9977  0B5F  00A8               	movwf	??___flmul
  9978  0B60  01A9               	clrf	??___flmul+1
  9979  0B61  01AA               	clrf	??___flmul+2
  9980  0B62  01AB               	clrf	??___flmul+3
  9981  0B63  0828               	movf	??___flmul,w
  9982  0B64  07AE               	addwf	___flmul@grs,f
  9983  0B65  0829               	movf	??___flmul+1,w
  9984  0B66  3DAF               	addwfc	___flmul@grs+1,f
  9985  0B67  082A               	movf	??___flmul+2,w
  9986  0B68  3DB0               	addwfc	___flmul@grs+2,f
  9987  0B69  082B               	movf	??___flmul+3,w
  9988  0B6A  3DB1               	addwfc	___flmul@grs+3,f
  9989  0B6B                     l3651:
  9990  0B6B  0839               	movf	___flmul@temp+1,w
  9991  0B6C  00A8               	movwf	??___flmul
  9992  0B6D  01A9               	clrf	??___flmul+1
  9993  0B6E  01AA               	clrf	??___flmul+2
  9994  0B6F  01AB               	clrf	??___flmul+3
  9995  0B70  0828               	movf	??___flmul,w
  9996  0B71  07B4               	addwf	___flmul@prod,f
  9997  0B72  0829               	movf	??___flmul+1,w
  9998  0B73  3DB5               	addwfc	___flmul@prod+1,f
  9999  0B74  082A               	movf	??___flmul+2,w
 10000  0B75  3DB6               	addwfc	___flmul@prod+2,f
 10001  0B76  082B               	movf	??___flmul+3,w
 10002  0B77  3DB7               	addwfc	___flmul@prod+3,f
 10003  0B78                     l3653:
 10004  0B78  3008               	movlw	8
 10005  0B79                     u4885:
 10006  0B79  35AE               	lslf	___flmul@grs,f
 10007  0B7A  0DAF               	rlf	___flmul@grs+1,f
 10008  0B7B  0DB0               	rlf	___flmul@grs+2,f
 10009  0B7C  0DB1               	rlf	___flmul@grs+3,f
 10010  0B7D  0B89               	decfsz	9,f
 10011  0B7E  2B79               	goto	u4885
 10012  0B7F                     l3655:
 10013  0B7F  0821               	movf	___flmul@b+1,w
 10014  0B80  00A8               	movwf	??___flmul
 10015  0B81  0828               	movf	??___flmul,w
 10016  0B82  00F0               	movwf	__Umul8_16@multiplicand
 10017  0B83  0824               	movf	___flmul@a,w
 10018  0B84  319B  23BB  318A   	fcall	__Umul8_16
 10019  0B87  0871               	movf	?__Umul8_16+1,w
 10020  0B88  0020               	movlb	0	; select bank0
 10021  0B89  00B9               	movwf	___flmul@temp+1
 10022  0B8A  0870               	movf	?__Umul8_16,w
 10023  0B8B  00B8               	movwf	___flmul@temp
 10024  0B8C                     l3657:
 10025  0B8C  0838               	movf	___flmul@temp,w
 10026  0B8D  07AE               	addwf	___flmul@grs,f
 10027  0B8E  0839               	movf	___flmul@temp+1,w
 10028  0B8F  3DAF               	addwfc	___flmul@grs+1,f
 10029  0B90  3000               	movlw	0
 10030  0B91  3DB0               	addwfc	___flmul@grs+2,f
 10031  0B92  3DB1               	addwfc	___flmul@grs+3,f
 10032  0B93                     l3659:
 10033  0B93  0820               	movf	___flmul@b,w
 10034  0B94  00A8               	movwf	??___flmul
 10035  0B95  0828               	movf	??___flmul,w
 10036  0B96  00F0               	movwf	__Umul8_16@multiplicand
 10037  0B97  0825               	movf	___flmul@a+1,w
 10038  0B98  319B  23BB  318A   	fcall	__Umul8_16
 10039  0B9B  0871               	movf	?__Umul8_16+1,w
 10040  0B9C  0020               	movlb	0	; select bank0
 10041  0B9D  00B9               	movwf	___flmul@temp+1
 10042  0B9E  0870               	movf	?__Umul8_16,w
 10043  0B9F  00B8               	movwf	___flmul@temp
 10044  0BA0                     l3661:
 10045  0BA0  0838               	movf	___flmul@temp,w
 10046  0BA1  07AE               	addwf	___flmul@grs,f
 10047  0BA2  0839               	movf	___flmul@temp+1,w
 10048  0BA3  3DAF               	addwfc	___flmul@grs+1,f
 10049  0BA4  3000               	movlw	0
 10050  0BA5  3DB0               	addwfc	___flmul@grs+2,f
 10051  0BA6  3DB1               	addwfc	___flmul@grs+3,f
 10052  0BA7                     l3663:
 10053  0BA7  3008               	movlw	8
 10054  0BA8                     u4895:
 10055  0BA8  35AE               	lslf	___flmul@grs,f
 10056  0BA9  0DAF               	rlf	___flmul@grs+1,f
 10057  0BAA  0DB0               	rlf	___flmul@grs+2,f
 10058  0BAB  0DB1               	rlf	___flmul@grs+3,f
 10059  0BAC  0B89               	decfsz	9,f
 10060  0BAD  2BA8               	goto	u4895
 10061  0BAE  0820               	movf	___flmul@b,w
 10062  0BAF  00A8               	movwf	??___flmul
 10063  0BB0  0828               	movf	??___flmul,w
 10064  0BB1  00F0               	movwf	__Umul8_16@multiplicand
 10065  0BB2  0824               	movf	___flmul@a,w
 10066  0BB3  319B  23BB  318A   	fcall	__Umul8_16
 10067  0BB6  0871               	movf	?__Umul8_16+1,w
 10068  0BB7  0020               	movlb	0	; select bank0
 10069  0BB8  00B9               	movwf	___flmul@temp+1
 10070  0BB9  0870               	movf	?__Umul8_16,w
 10071  0BBA  00B8               	movwf	___flmul@temp
 10072  0BBB                     l3665:
 10073  0BBB  0838               	movf	___flmul@temp,w
 10074  0BBC  07AE               	addwf	___flmul@grs,f
 10075  0BBD  0839               	movf	___flmul@temp+1,w
 10076  0BBE  3DAF               	addwfc	___flmul@grs+1,f
 10077  0BBF  3000               	movlw	0
 10078  0BC0  3DB0               	addwfc	___flmul@grs+2,f
 10079  0BC1  3DB1               	addwfc	___flmul@grs+3,f
 10080  0BC2                     l3667:
 10081  0BC2  0821               	movf	___flmul@b+1,w
 10082  0BC3  00A8               	movwf	??___flmul
 10083  0BC4  0828               	movf	??___flmul,w
 10084  0BC5  00F0               	movwf	__Umul8_16@multiplicand
 10085  0BC6  0826               	movf	___flmul@a+2,w
 10086  0BC7  319B  23BB  318A   	fcall	__Umul8_16
 10087  0BCA  0871               	movf	?__Umul8_16+1,w
 10088  0BCB  0020               	movlb	0	; select bank0
 10089  0BCC  00B9               	movwf	___flmul@temp+1
 10090  0BCD  0870               	movf	?__Umul8_16,w
 10091  0BCE  00B8               	movwf	___flmul@temp
 10092  0BCF  0838               	movf	___flmul@temp,w
 10093  0BD0  07B4               	addwf	___flmul@prod,f
 10094  0BD1  0839               	movf	___flmul@temp+1,w
 10095  0BD2  3DB5               	addwfc	___flmul@prod+1,f
 10096  0BD3  3000               	movlw	0
 10097  0BD4  3DB6               	addwfc	___flmul@prod+2,f
 10098  0BD5  3DB7               	addwfc	___flmul@prod+3,f
 10099  0BD6                     l3669:
 10100  0BD6  0822               	movf	___flmul@b+2,w
 10101  0BD7  00A8               	movwf	??___flmul
 10102  0BD8  0828               	movf	??___flmul,w
 10103  0BD9  00F0               	movwf	__Umul8_16@multiplicand
 10104  0BDA  0825               	movf	___flmul@a+1,w
 10105  0BDB  319B  23BB  318A   	fcall	__Umul8_16
 10106  0BDE  0871               	movf	?__Umul8_16+1,w
 10107  0BDF  0020               	movlb	0	; select bank0
 10108  0BE0  00B9               	movwf	___flmul@temp+1
 10109  0BE1  0870               	movf	?__Umul8_16,w
 10110  0BE2  00B8               	movwf	___flmul@temp
 10111  0BE3                     l3671:
 10112  0BE3  0838               	movf	___flmul@temp,w
 10113  0BE4  07B4               	addwf	___flmul@prod,f
 10114  0BE5  0839               	movf	___flmul@temp+1,w
 10115  0BE6  3DB5               	addwfc	___flmul@prod+1,f
 10116  0BE7  3000               	movlw	0
 10117  0BE8  3DB6               	addwfc	___flmul@prod+2,f
 10118  0BE9  3DB7               	addwfc	___flmul@prod+3,f
 10119  0BEA  0822               	movf	___flmul@b+2,w
 10120  0BEB  00A8               	movwf	??___flmul
 10121  0BEC  0828               	movf	??___flmul,w
 10122  0BED  00F0               	movwf	__Umul8_16@multiplicand
 10123  0BEE  0826               	movf	___flmul@a+2,w
 10124  0BEF  319B  23BB  318A   	fcall	__Umul8_16
 10125  0BF2  0871               	movf	?__Umul8_16+1,w
 10126  0BF3  0020               	movlb	0	; select bank0
 10127  0BF4  00B9               	movwf	___flmul@temp+1
 10128  0BF5  0870               	movf	?__Umul8_16,w
 10129  0BF6  00B8               	movwf	___flmul@temp
 10130  0BF7                     l3673:
 10131  0BF7  0838               	movf	___flmul@temp,w
 10132  0BF8  00A8               	movwf	??___flmul
 10133  0BF9  0839               	movf	___flmul@temp+1,w
 10134  0BFA  00A9               	movwf	??___flmul+1
 10135  0BFB  01AA               	clrf	??___flmul+2
 10136  0BFC  01AB               	clrf	??___flmul+3
 10137  0BFD  3008               	movlw	8
 10138  0BFE                     u4905:
 10139  0BFE  35A8               	lslf	??___flmul,f
 10140  0BFF  0DA9               	rlf	??___flmul+1,f
 10141  0C00  0DAA               	rlf	??___flmul+2,f
 10142  0C01  0DAB               	rlf	??___flmul+3,f
 10143  0C02                     u4900:
 10144  0C02  0B89               	decfsz	9,f
 10145  0C03  2BFE               	goto	u4905
 10146  0C04  0828               	movf	??___flmul,w
 10147  0C05  07B4               	addwf	___flmul@prod,f
 10148  0C06  0829               	movf	??___flmul+1,w
 10149  0C07  3DB5               	addwfc	___flmul@prod+1,f
 10150  0C08  082A               	movf	??___flmul+2,w
 10151  0C09  3DB6               	addwfc	___flmul@prod+2,f
 10152  0C0A  082B               	movf	??___flmul+3,w
 10153  0C0B  3DB7               	addwfc	___flmul@prod+3,f
 10154  0C0C                     l3675:
 10155  0C0C  082E               	movf	___flmul@grs,w
 10156  0C0D  00A8               	movwf	??___flmul
 10157  0C0E  082F               	movf	___flmul@grs+1,w
 10158  0C0F  00A9               	movwf	??___flmul+1
 10159  0C10  0830               	movf	___flmul@grs+2,w
 10160  0C11  00AA               	movwf	??___flmul+2
 10161  0C12  0831               	movf	___flmul@grs+3,w
 10162  0C13  00AB               	movwf	??___flmul+3
 10163  0C14  3018               	movlw	24
 10164  0C15                     u4915:
 10165  0C15  36AB               	lsrf	??___flmul+3,f
 10166  0C16  0CAA               	rrf	??___flmul+2,f
 10167  0C17  0CA9               	rrf	??___flmul+1,f
 10168  0C18  0CA8               	rrf	??___flmul,f
 10169  0C19                     u4910:
 10170  0C19  0B89               	decfsz	9,f
 10171  0C1A  2C15               	goto	u4915
 10172  0C1B  0828               	movf	??___flmul,w
 10173  0C1C  07B4               	addwf	___flmul@prod,f
 10174  0C1D  0829               	movf	??___flmul+1,w
 10175  0C1E  3DB5               	addwfc	___flmul@prod+1,f
 10176  0C1F  082A               	movf	??___flmul+2,w
 10177  0C20  3DB6               	addwfc	___flmul@prod+2,f
 10178  0C21  082B               	movf	??___flmul+3,w
 10179  0C22  3DB7               	addwfc	___flmul@prod+3,f
 10180  0C23                     l3677:
 10181  0C23  3008               	movlw	8
 10182  0C24                     u4925:
 10183  0C24  35AE               	lslf	___flmul@grs,f
 10184  0C25  0DAF               	rlf	___flmul@grs+1,f
 10185  0C26  0DB0               	rlf	___flmul@grs+2,f
 10186  0C27  0DB1               	rlf	___flmul@grs+3,f
 10187  0C28  0B89               	decfsz	9,f
 10188  0C29  2C24               	goto	u4925
 10189  0C2A                     l3679:
 10190  0C2A  0833               	movf	___flmul@bexp,w
 10191  0C2B  0732               	addwf	___flmul@aexp,w
 10192  0C2C  00A8               	movwf	??___flmul
 10193  0C2D  01A9               	clrf	??___flmul+1
 10194  0C2E  0DA9               	rlf	??___flmul+1,f
 10195  0C2F  0828               	movf	??___flmul,w
 10196  0C30  3E82               	addlw	130
 10197  0C31  00B8               	movwf	___flmul@temp
 10198  0C32  30FF               	movlw	255
 10199  0C33  3D29               	addwfc	??___flmul+1,w
 10200  0C34  00B9               	movwf	___flmul@temp+1
 10201  0C35  2C4D               	goto	l3691
 10202  0C36                     l3681:
 10203  0C36  3001               	movlw	1
 10204  0C37                     u4935:
 10205  0C37  35B4               	lslf	___flmul@prod,f
 10206  0C38  0DB5               	rlf	___flmul@prod+1,f
 10207  0C39  0DB6               	rlf	___flmul@prod+2,f
 10208  0C3A  0DB7               	rlf	___flmul@prod+3,f
 10209  0C3B  0B89               	decfsz	9,f
 10210  0C3C  2C37               	goto	u4935
 10211  0C3D                     l3683:
 10212  0C3D  1FB1               	btfss	___flmul@grs+3,7
 10213  0C3E  2C40               	goto	u4941
 10214  0C3F  2C41               	goto	u4940
 10215  0C40                     u4941:
 10216  0C40  2C42               	goto	l3687
 10217  0C41                     u4940:
 10218  0C41                     l3685:
 10219  0C41  1434               	bsf	___flmul@prod,0
 10220  0C42                     l3687:
 10221  0C42  3001               	movlw	1
 10222  0C43                     u4955:
 10223  0C43  35AE               	lslf	___flmul@grs,f
 10224  0C44  0DAF               	rlf	___flmul@grs+1,f
 10225  0C45  0DB0               	rlf	___flmul@grs+2,f
 10226  0C46  0DB1               	rlf	___flmul@grs+3,f
 10227  0C47  0B89               	decfsz	9,f
 10228  0C48  2C43               	goto	u4955
 10229  0C49                     l3689:
 10230  0C49  30FF               	movlw	255
 10231  0C4A  07B8               	addwf	___flmul@temp,f
 10232  0C4B  30FF               	movlw	255
 10233  0C4C  3DB9               	addwfc	___flmul@temp+1,f
 10234  0C4D                     l3691:
 10235  0C4D  1FB6               	btfss	___flmul@prod+2,7
 10236  0C4E  2C50               	goto	u4961
 10237  0C4F  2C51               	goto	u4960
 10238  0C50                     u4961:
 10239  0C50  2C36               	goto	l3681
 10240  0C51                     u4960:
 10241  0C51                     l3693:
 10242  0C51  01B2               	clrf	___flmul@aexp
 10243  0C52                     l3695:
 10244  0C52  1FB1               	btfss	___flmul@grs+3,7
 10245  0C53  2C55               	goto	u4971
 10246  0C54  2C56               	goto	u4970
 10247  0C55                     u4971:
 10248  0C55  2C72               	goto	l3703
 10249  0C56                     u4970:
 10250  0C56                     l3697:
 10251  0C56  30FF               	movlw	255
 10252  0C57  052E               	andwf	___flmul@grs,w
 10253  0C58  00A8               	movwf	??___flmul
 10254  0C59  30FF               	movlw	255
 10255  0C5A  052F               	andwf	___flmul@grs+1,w
 10256  0C5B  00A9               	movwf	??___flmul+1
 10257  0C5C  30FF               	movlw	255
 10258  0C5D  0530               	andwf	___flmul@grs+2,w
 10259  0C5E  00AA               	movwf	??___flmul+2
 10260  0C5F  307F               	movlw	127
 10261  0C60  0531               	andwf	___flmul@grs+3,w
 10262  0C61  00AB               	movwf	??___flmul+3
 10263  0C62  082B               	movf	??___flmul+3,w
 10264  0C63  042A               	iorwf	??___flmul+2,w
 10265  0C64  0429               	iorwf	??___flmul+1,w
 10266  0C65  0428               	iorwf	??___flmul,w
 10267  0C66  1903               	skipnz
 10268  0C67  2C69               	goto	u4981
 10269  0C68  2C6A               	goto	u4980
 10270  0C69                     u4981:
 10271  0C69  2C6D               	goto	l813
 10272  0C6A                     u4980:
 10273  0C6A                     l3699:
 10274  0C6A  01B2               	clrf	___flmul@aexp
 10275  0C6B  0AB2               	incf	___flmul@aexp,f
 10276  0C6C  2C72               	goto	l3703
 10277  0C6D                     l813:
 10278  0C6D  1C34               	btfss	___flmul@prod,0
 10279  0C6E  2C70               	goto	u4991
 10280  0C6F  2C71               	goto	u4990
 10281  0C70                     u4991:
 10282  0C70  2C72               	goto	l3703
 10283  0C71                     u4990:
 10284  0C71  2C6A               	goto	l3699
 10285  0C72                     l3703:
 10286  0C72  0832               	movf	___flmul@aexp,w
 10287  0C73  1903               	btfsc	3,2
 10288  0C74  2C76               	goto	u5001
 10289  0C75  2C77               	goto	u5000
 10290  0C76                     u5001:
 10291  0C76  2C9F               	goto	l3713
 10292  0C77                     u5000:
 10293  0C77                     l3705:
 10294  0C77  3001               	movlw	1
 10295  0C78  07B4               	addwf	___flmul@prod,f
 10296  0C79  3000               	movlw	0
 10297  0C7A  3DB5               	addwfc	___flmul@prod+1,f
 10298  0C7B  3000               	movlw	0
 10299  0C7C  3DB6               	addwfc	___flmul@prod+2,f
 10300  0C7D  3000               	movlw	0
 10301  0C7E  3DB7               	addwfc	___flmul@prod+3,f
 10302  0C7F                     l3707:
 10303  0C7F  1C37               	btfss	___flmul@prod+3,0
 10304  0C80  2C82               	goto	u5011
 10305  0C81  2C83               	goto	u5010
 10306  0C82                     u5011:
 10307  0C82  2C9F               	goto	l3713
 10308  0C83                     u5010:
 10309  0C83                     l3709:
 10310  0C83  0834               	movf	___flmul@prod,w
 10311  0C84  00A8               	movwf	??___flmul
 10312  0C85  0835               	movf	___flmul@prod+1,w
 10313  0C86  00A9               	movwf	??___flmul+1
 10314  0C87  0836               	movf	___flmul@prod+2,w
 10315  0C88  00AA               	movwf	??___flmul+2
 10316  0C89  0837               	movf	___flmul@prod+3,w
 10317  0C8A  00AB               	movwf	??___flmul+3
 10318  0C8B  3001               	movlw	1
 10319  0C8C  00AC               	movwf	??___flmul+4
 10320  0C8D                     u5025:
 10321  0C8D  37AB               	asrf	??___flmul+3,f
 10322  0C8E  0CAA               	rrf	??___flmul+2,f
 10323  0C8F  0CA9               	rrf	??___flmul+1,f
 10324  0C90  0CA8               	rrf	??___flmul,f
 10325  0C91                     u5020:
 10326  0C91  0BAC               	decfsz	??___flmul+4,f
 10327  0C92  2C8D               	goto	u5025
 10328  0C93  082B               	movf	??___flmul+3,w
 10329  0C94  00B7               	movwf	___flmul@prod+3
 10330  0C95  082A               	movf	??___flmul+2,w
 10331  0C96  00B6               	movwf	___flmul@prod+2
 10332  0C97  0829               	movf	??___flmul+1,w
 10333  0C98  00B5               	movwf	___flmul@prod+1
 10334  0C99  0828               	movf	??___flmul,w
 10335  0C9A  00B4               	movwf	___flmul@prod
 10336  0C9B                     l3711:
 10337  0C9B  3001               	movlw	1
 10338  0C9C  07B8               	addwf	___flmul@temp,f
 10339  0C9D  3000               	movlw	0
 10340  0C9E  3DB9               	addwfc	___flmul@temp+1,f
 10341  0C9F                     l3713:
 10342  0C9F  0839               	movf	___flmul@temp+1,w
 10343  0CA0  3A80               	xorlw	128
 10344  0CA1  00A8               	movwf	??___flmul
 10345  0CA2  3080               	movlw	128
 10346  0CA3  0228               	subwf	??___flmul,w
 10347  0CA4  1D03               	skipz
 10348  0CA5  2CA8               	goto	u5035
 10349  0CA6  30FF               	movlw	255
 10350  0CA7  0238               	subwf	___flmul@temp,w
 10351  0CA8                     u5035:
 10352  0CA8  1C03               	skipc
 10353  0CA9  2CAB               	goto	u5031
 10354  0CAA  2CAC               	goto	u5030
 10355  0CAB                     u5031:
 10356  0CAB  2CB6               	goto	l3717
 10357  0CAC                     u5030:
 10358  0CAC                     l3715:
 10359  0CAC  307F               	movlw	127
 10360  0CAD  0020               	movlb	0	; select bank0
 10361  0CAE  00B7               	movwf	___flmul@prod+3
 10362  0CAF  3080               	movlw	128
 10363  0CB0  00B6               	movwf	___flmul@prod+2
 10364  0CB1  3000               	movlw	0
 10365  0CB2  00B5               	movwf	___flmul@prod+1
 10366  0CB3  3000               	movlw	0
 10367  0CB4  00B4               	movwf	___flmul@prod
 10368  0CB5  2CE5               	goto	l819
 10369  0CB6                     l3717:
 10370  0CB6  0020               	movlb	0	; select bank0
 10371  0CB7  0839               	movf	___flmul@temp+1,w
 10372  0CB8  3A80               	xorlw	128
 10373  0CB9  00A8               	movwf	??___flmul
 10374  0CBA  3080               	movlw	128
 10375  0CBB  0228               	subwf	??___flmul,w
 10376  0CBC  1D03               	skipz
 10377  0CBD  2CC0               	goto	u5045
 10378  0CBE  3001               	movlw	1
 10379  0CBF  0238               	subwf	___flmul@temp,w
 10380  0CC0                     u5045:
 10381  0CC0  1803               	skipnc
 10382  0CC1  2CC3               	goto	u5041
 10383  0CC2  2CC4               	goto	u5040
 10384  0CC3                     u5041:
 10385  0CC3  2CCF               	goto	l3723
 10386  0CC4                     u5040:
 10387  0CC4                     l3719:
 10388  0CC4  3000               	movlw	0
 10389  0CC5  0020               	movlb	0	; select bank0
 10390  0CC6  00B7               	movwf	___flmul@prod+3
 10391  0CC7  3000               	movlw	0
 10392  0CC8  00B6               	movwf	___flmul@prod+2
 10393  0CC9  3000               	movlw	0
 10394  0CCA  00B5               	movwf	___flmul@prod+1
 10395  0CCB  3000               	movlw	0
 10396  0CCC  00B4               	movwf	___flmul@prod
 10397  0CCD                     l3721:
 10398  0CCD  01AD               	clrf	___flmul@sign
 10399  0CCE  2CE5               	goto	l819
 10400  0CCF                     l3723:
 10401  0CCF  0020               	movlb	0	; select bank0
 10402  0CD0  0838               	movf	___flmul@temp,w
 10403  0CD1  00A8               	movwf	??___flmul
 10404  0CD2  0828               	movf	??___flmul,w
 10405  0CD3  00B3               	movwf	___flmul@bexp
 10406  0CD4  30FF               	movlw	255
 10407  0CD5  05B4               	andwf	___flmul@prod,f
 10408  0CD6  30FF               	movlw	255
 10409  0CD7  05B5               	andwf	___flmul@prod+1,f
 10410  0CD8  307F               	movlw	127
 10411  0CD9  05B6               	andwf	___flmul@prod+2,f
 10412  0CDA  3000               	movlw	0
 10413  0CDB  05B7               	andwf	___flmul@prod+3,f
 10414  0CDC                     l3725:
 10415  0CDC  1C33               	btfss	___flmul@bexp,0
 10416  0CDD  2CDF               	goto	u5051
 10417  0CDE  2CE0               	goto	u5050
 10418  0CDF                     u5051:
 10419  0CDF  2CE1               	goto	l3729
 10420  0CE0                     u5050:
 10421  0CE0                     l3727:
 10422  0CE0  17B6               	bsf	___flmul@prod+2,7
 10423  0CE1                     l3729:
 10424  0CE1  3633               	lsrf	___flmul@bexp,w
 10425  0CE2  00A8               	movwf	??___flmul
 10426  0CE3  0828               	movf	??___flmul,w
 10427  0CE4  00B7               	movwf	___flmul@prod+3
 10428  0CE5                     l819:
 10429  0CE5  082D               	movf	___flmul@sign,w
 10430  0CE6  00A8               	movwf	??___flmul
 10431  0CE7  0828               	movf	??___flmul,w
 10432  0CE8  04B7               	iorwf	___flmul@prod+3,f
 10433  0CE9                     l3731:
 10434  0CE9  0837               	movf	___flmul@prod+3,w
 10435  0CEA  00A3               	movwf	?___flmul+3
 10436  0CEB  0836               	movf	___flmul@prod+2,w
 10437  0CEC  00A2               	movwf	?___flmul+2
 10438  0CED  0835               	movf	___flmul@prod+1,w
 10439  0CEE  00A1               	movwf	?___flmul+1
 10440  0CEF  0834               	movf	___flmul@prod,w
 10441  0CF0  00A0               	movwf	?___flmul
 10442  0CF1                     l807:
 10443  0CF1  0008               	return
 10444  0CF2                     __end_of___flmul:
 10445                           
 10446                           	psect	text16
 10447  1BBB                     __ptext16:	
 10448 ;; *************** function __Umul8_16 *****************
 10449 ;; Defined at:
 10450 ;;		line 4 in file "C:\Program Files\Microchip\xc8\v2.31\pic\sources\c99\common\Umul8_16.c"
 10451 ;; Parameters:    Size  Location     Type
 10452 ;;  multiplier      1    wreg     unsigned char 
 10453 ;;  multiplicand    1    0[COMMON] unsigned char 
 10454 ;; Auto vars:     Size  Location     Type
 10455 ;;  multiplier      1    8[COMMON] unsigned char 
 10456 ;;  word_mpld       2    6[COMMON] unsigned int 
 10457 ;;  product         2    4[COMMON] unsigned int 
 10458 ;; Return value:  Size  Location     Type
 10459 ;;                  2    0[COMMON] unsigned int 
 10460 ;; Registers used:
 10461 ;;		wreg, status,2, status,0
 10462 ;; Tracked objects:
 10463 ;;		On entry : 0/0
 10464 ;;		On exit  : 0/0
 10465 ;;		Unchanged: 0/0
 10466 ;; Data sizes:     COMMON   BANK0   BANK1   BANK2   BANK3   BANK4   BANK5   BANK6   BANK7   BANK8   BANK9  BANK10  BANK1
      +1  BANK12  BANK13  BANK14  BANK15  BANK16  BANK17  BANK18  BANK19  BANK20  BANK21  BANK22  BANK23  BANK24  BANK25
 10467 ;;      Params:         2       0       0       0       0       0       0       0       0       0       0       0       
      +0       0       0       0       0       0       0       0       0       0       0       0       0       0       0
 10468 ;;      Locals:         5       0       0       0       0       0       0       0       0       0       0       0       
      +0       0       0       0       0       0       0       0       0       0       0       0       0       0       0
 10469 ;;      Temps:          2       0       0       0       0       0       0       0       0       0       0       0       
      +0       0       0       0       0       0       0       0       0       0       0       0       0       0       0
 10470 ;;      Totals:         9       0       0       0       0       0       0       0       0       0       0       0       
      +0       0       0       0       0       0       0       0       0       0       0       0       0       0       0
 10471 ;;Total ram usage:        9 bytes
 10472 ;; Hardware stack levels used:    1
 10473 ;; This function calls:
 10474 ;;		Nothing
 10475 ;; This function is called by:
 10476 ;;		___flmul
 10477 ;; This function uses a non-reentrant model
 10478 ;;
 10479                           
 10480                           
 10481                           ;psect for function __Umul8_16
 10482  1BBB                     __Umul8_16:
 10483                           
 10484                           ;incstack = 0
 10485                           ; Regs used in __Umul8_16: [wreg+status,2+status,0]
 10486                           ;__Umul8_16@multiplier stored from wreg
 10487  1BBB  00F8               	movwf	__Umul8_16@multiplier
 10488  1BBC                     l3173:
 10489  1BBC  01F4               	clrf	__Umul8_16@product
 10490  1BBD  01F5               	clrf	__Umul8_16@product+1
 10491  1BBE                     l3175:
 10492  1BBE  0870               	movf	__Umul8_16@multiplicand,w
 10493  1BBF  00F2               	movwf	??__Umul8_16
 10494  1BC0  01F3               	clrf	??__Umul8_16+1
 10495  1BC1  0872               	movf	??__Umul8_16,w
 10496  1BC2  00F6               	movwf	__Umul8_16@word_mpld
 10497  1BC3  0873               	movf	??__Umul8_16+1,w
 10498  1BC4  00F7               	movwf	__Umul8_16@word_mpld+1
 10499  1BC5                     l3177:
 10500  1BC5  1C78               	btfss	__Umul8_16@multiplier,0
 10501  1BC6  2BC8               	goto	u3811
 10502  1BC7  2BC9               	goto	u3810
 10503  1BC8                     u3811:
 10504  1BC8  2BCD               	goto	l826
 10505  1BC9                     u3810:
 10506  1BC9                     l3179:
 10507  1BC9  0876               	movf	__Umul8_16@word_mpld,w
 10508  1BCA  07F4               	addwf	__Umul8_16@product,f
 10509  1BCB  0877               	movf	__Umul8_16@word_mpld+1,w
 10510  1BCC  3DF5               	addwfc	__Umul8_16@product+1,f
 10511  1BCD                     l826:
 10512  1BCD  3001               	movlw	1
 10513  1BCE                     u3825:
 10514  1BCE  35F6               	lslf	__Umul8_16@word_mpld,f
 10515  1BCF  0DF7               	rlf	__Umul8_16@word_mpld+1,f
 10516  1BD0  0B89               	decfsz	9,f
 10517  1BD1  2BCE               	goto	u3825
 10518  1BD2  1003               	clrc
 10519  1BD3  0CF8               	rrf	__Umul8_16@multiplier,f
 10520  1BD4                     l3181:
 10521  1BD4  0878               	movf	__Umul8_16@multiplier,w
 10522  1BD5  1D03               	btfss	3,2
 10523  1BD6  2BD8               	goto	u3831
 10524  1BD7  2BD9               	goto	u3830
 10525  1BD8                     u3831:
 10526  1BD8  2BC5               	goto	l3177
 10527  1BD9                     u3830:
 10528  1BD9                     l3183:
 10529  1BD9  0875               	movf	__Umul8_16@product+1,w
 10530  1BDA  00F1               	movwf	?__Umul8_16+1
 10531  1BDB  0874               	movf	__Umul8_16@product,w
 10532  1BDC  00F0               	movwf	?__Umul8_16
 10533  1BDD                     l828:
 10534  1BDD  0008               	return
 10535  1BDE                     __end_of__Umul8_16:
 10536                           
 10537                           	psect	text17
 10538  1022                     __ptext17:	
 10539 ;; *************** function ___flge *****************
 10540 ;; Defined at:
 10541 ;;		line 4 in file "C:\Program Files\Microchip\xc8\v2.31\pic\sources\c99\common\flge.c"
 10542 ;; Parameters:    Size  Location     Type
 10543 ;;  ff1             4   26[BANK0 ] unsigned int 
 10544 ;;  ff2             4   30[BANK0 ] unsigned int 
 10545 ;; Auto vars:     Size  Location     Type
 10546 ;;		None
 10547 ;; Return value:  Size  Location     Type
 10548 ;;		None               void
 10549 ;; Registers used:
 10550 ;;		wreg, status,2, status,0
 10551 ;; Tracked objects:
 10552 ;;		On entry : 0/0
 10553 ;;		On exit  : 0/0
 10554 ;;		Unchanged: 0/0
 10555 ;; Data sizes:     COMMON   BANK0   BANK1   BANK2   BANK3   BANK4   BANK5   BANK6   BANK7   BANK8   BANK9  BANK10  BANK1
      +1  BANK12  BANK13  BANK14  BANK15  BANK16  BANK17  BANK18  BANK19  BANK20  BANK21  BANK22  BANK23  BANK24  BANK25
 10556 ;;      Params:         0       8       0       0       0       0       0       0       0       0       0       0       
      +0       0       0       0       0       0       0       0       0       0       0       0       0       0       0
 10557 ;;      Locals:         0       0       0       0       0       0       0       0       0       0       0       0       
      +0       0       0       0       0       0       0       0       0       0       0       0       0       0       0
 10558 ;;      Temps:          0       4       0       0       0       0       0       0       0       0       0       0       
      +0       0       0       0       0       0       0       0       0       0       0       0       0       0       0
 10559 ;;      Totals:         0      12       0       0       0       0       0       0       0       0       0       0       
      +0       0       0       0       0       0       0       0       0       0       0       0       0       0       0
 10560 ;;Total ram usage:       12 bytes
 10561 ;; Hardware stack levels used:    1
 10562 ;; This function calls:
 10563 ;;		Nothing
 10564 ;; This function is called by:
 10565 ;;		_main
 10566 ;;		_efgtoa
 10567 ;; This function uses a non-reentrant model
 10568 ;;
 10569                           
 10570                           
 10571                           ;psect for function ___flge
 10572  1022                     ___flge:
 10573  1022                     l3385:	
 10574                           ;incstack = 0
 10575                           ; Regs used in ___flge: [wreg+status,2+status,0]
 10576                           
 10577  1022  3000               	movlw	0
 10578  1023  0020               	movlb	0	; select bank0
 10579  1024  053A               	andwf	___flge@ff1,w
 10580  1025  00C2               	movwf	??___flge
 10581  1026  3000               	movlw	0
 10582  1027  053B               	andwf	___flge@ff1+1,w
 10583  1028  00C3               	movwf	??___flge+1
 10584  1029  3080               	movlw	128
 10585  102A  053C               	andwf	___flge@ff1+2,w
 10586  102B  00C4               	movwf	??___flge+2
 10587  102C  307F               	movlw	127
 10588  102D  053D               	andwf	___flge@ff1+3,w
 10589  102E  00C5               	movwf	??___flge+3
 10590  102F  0845               	movf	??___flge+3,w
 10591  1030  0444               	iorwf	??___flge+2,w
 10592  1031  0443               	iorwf	??___flge+1,w
 10593  1032  0442               	iorwf	??___flge,w
 10594  1033  1D03               	skipz
 10595  1034  2836               	goto	u4351
 10596  1035  2837               	goto	u4350
 10597  1036                     u4351:
 10598  1036  283F               	goto	l588
 10599  1037                     u4350:
 10600  1037                     l3387:
 10601  1037  3000               	movlw	0
 10602  1038  00BD               	movwf	___flge@ff1+3
 10603  1039  3000               	movlw	0
 10604  103A  00BC               	movwf	___flge@ff1+2
 10605  103B  3000               	movlw	0
 10606  103C  00BB               	movwf	___flge@ff1+1
 10607  103D  3000               	movlw	0
 10608  103E  00BA               	movwf	___flge@ff1
 10609  103F                     l588:
 10610  103F  3000               	movlw	0
 10611  1040  053E               	andwf	___flge@ff2,w
 10612  1041  00C2               	movwf	??___flge
 10613  1042  3000               	movlw	0
 10614  1043  053F               	andwf	___flge@ff2+1,w
 10615  1044  00C3               	movwf	??___flge+1
 10616  1045  3080               	movlw	128
 10617  1046  0540               	andwf	___flge@ff2+2,w
 10618  1047  00C4               	movwf	??___flge+2
 10619  1048  307F               	movlw	127
 10620  1049  0541               	andwf	___flge@ff2+3,w
 10621  104A  00C5               	movwf	??___flge+3
 10622  104B  0845               	movf	??___flge+3,w
 10623  104C  0444               	iorwf	??___flge+2,w
 10624  104D  0443               	iorwf	??___flge+1,w
 10625  104E  0442               	iorwf	??___flge,w
 10626  104F  1D03               	skipz
 10627  1050  2852               	goto	u4361
 10628  1051  2853               	goto	u4360
 10629  1052                     u4361:
 10630  1052  285B               	goto	l3391
 10631  1053                     u4360:
 10632  1053                     l3389:
 10633  1053  3000               	movlw	0
 10634  1054  00C1               	movwf	___flge@ff2+3
 10635  1055  3000               	movlw	0
 10636  1056  00C0               	movwf	___flge@ff2+2
 10637  1057  3000               	movlw	0
 10638  1058  00BF               	movwf	___flge@ff2+1
 10639  1059  3000               	movlw	0
 10640  105A  00BE               	movwf	___flge@ff2
 10641  105B                     l3391:
 10642  105B  1FBD               	btfss	___flge@ff1+3,7
 10643  105C  285E               	goto	u4371
 10644  105D  285F               	goto	u4370
 10645  105E                     u4371:
 10646  105E  2877               	goto	l3395
 10647  105F                     u4370:
 10648  105F                     l3393:
 10649  105F  3000               	movlw	0
 10650  1060  00C2               	movwf	??___flge
 10651  1061  3000               	movlw	0
 10652  1062  00C3               	movwf	??___flge+1
 10653  1063  3000               	movlw	0
 10654  1064  00C4               	movwf	??___flge+2
 10655  1065  3080               	movlw	128
 10656  1066  00C5               	movwf	??___flge+3
 10657  1067  083A               	movf	___flge@ff1,w
 10658  1068  02C2               	subwf	??___flge,f
 10659  1069  083B               	movf	___flge@ff1+1,w
 10660  106A  3BC3               	subwfb	??___flge+1,f
 10661  106B  083C               	movf	___flge@ff1+2,w
 10662  106C  3BC4               	subwfb	??___flge+2,f
 10663  106D  083D               	movf	___flge@ff1+3,w
 10664  106E  3BC5               	subwfb	??___flge+3,f
 10665  106F  0845               	movf	??___flge+3,w
 10666  1070  00BD               	movwf	___flge@ff1+3
 10667  1071  0844               	movf	??___flge+2,w
 10668  1072  00BC               	movwf	___flge@ff1+2
 10669  1073  0843               	movf	??___flge+1,w
 10670  1074  00BB               	movwf	___flge@ff1+1
 10671  1075  0842               	movf	??___flge,w
 10672  1076  00BA               	movwf	___flge@ff1
 10673  1077                     l3395:
 10674  1077  1FC1               	btfss	___flge@ff2+3,7
 10675  1078  287A               	goto	u4381
 10676  1079  287B               	goto	u4380
 10677  107A                     u4381:
 10678  107A  2893               	goto	l591
 10679  107B                     u4380:
 10680  107B                     l3397:
 10681  107B  3000               	movlw	0
 10682  107C  00C2               	movwf	??___flge
 10683  107D  3000               	movlw	0
 10684  107E  00C3               	movwf	??___flge+1
 10685  107F  3000               	movlw	0
 10686  1080  00C4               	movwf	??___flge+2
 10687  1081  3080               	movlw	128
 10688  1082  00C5               	movwf	??___flge+3
 10689  1083  083E               	movf	___flge@ff2,w
 10690  1084  02C2               	subwf	??___flge,f
 10691  1085  083F               	movf	___flge@ff2+1,w
 10692  1086  3BC3               	subwfb	??___flge+1,f
 10693  1087  0840               	movf	___flge@ff2+2,w
 10694  1088  3BC4               	subwfb	??___flge+2,f
 10695  1089  0841               	movf	___flge@ff2+3,w
 10696  108A  3BC5               	subwfb	??___flge+3,f
 10697  108B  0845               	movf	??___flge+3,w
 10698  108C  00C1               	movwf	___flge@ff2+3
 10699  108D  0844               	movf	??___flge+2,w
 10700  108E  00C0               	movwf	___flge@ff2+2
 10701  108F  0843               	movf	??___flge+1,w
 10702  1090  00BF               	movwf	___flge@ff2+1
 10703  1091  0842               	movf	??___flge,w
 10704  1092  00BE               	movwf	___flge@ff2
 10705  1093                     l591:
 10706  1093  3080               	movlw	128
 10707  1094  06BD               	xorwf	___flge@ff1+3,f
 10708  1095  3080               	movlw	128
 10709  1096  06C1               	xorwf	___flge@ff2+3,f
 10710  1097  0841               	movf	___flge@ff2+3,w
 10711  1098  023D               	subwf	___flge@ff1+3,w
 10712  1099  1D03               	skipz
 10713  109A  28A5               	goto	u4395
 10714  109B  0840               	movf	___flge@ff2+2,w
 10715  109C  023C               	subwf	___flge@ff1+2,w
 10716  109D  1D03               	skipz
 10717  109E  28A5               	goto	u4395
 10718  109F  083F               	movf	___flge@ff2+1,w
 10719  10A0  023B               	subwf	___flge@ff1+1,w
 10720  10A1  1D03               	skipz
 10721  10A2  28A5               	goto	u4395
 10722  10A3  083E               	movf	___flge@ff2,w
 10723  10A4  023A               	subwf	___flge@ff1,w
 10724  10A5                     u4395:
 10725  10A5  1803               	skipnc
 10726  10A6  28A8               	goto	u4391
 10727  10A7  28A9               	goto	u4390
 10728  10A8                     u4391:
 10729  10A8  28AB               	goto	l3401
 10730  10A9                     u4390:
 10731  10A9                     l3399:
 10732  10A9  1003               	clrc
 10733  10AA  28AC               	goto	l596
 10734  10AB                     l3401:
 10735  10AB  1403               	setc
 10736  10AC                     l596:
 10737  10AC  0008               	return
 10738  10AD                     __end_of___flge:
 10739                           
 10740                           	psect	text18
 10741  1CB0                     __ptext18:	
 10742 ;; *************** function ___fleq *****************
 10743 ;; Defined at:
 10744 ;;		line 4 in file "C:\Program Files\Microchip\xc8\v2.31\pic\sources\c99\common\fleq.c"
 10745 ;; Parameters:    Size  Location     Type
 10746 ;;  ff1             4    0[COMMON] unsigned int 
 10747 ;;  ff2             4    4[COMMON] unsigned int 
 10748 ;; Auto vars:     Size  Location     Type
 10749 ;;		None
 10750 ;; Return value:  Size  Location     Type
 10751 ;;		None               void
 10752 ;; Registers used:
 10753 ;;		wreg, status,2, status,0
 10754 ;; Tracked objects:
 10755 ;;		On entry : 0/0
 10756 ;;		On exit  : 0/0
 10757 ;;		Unchanged: 0/0
 10758 ;; Data sizes:     COMMON   BANK0   BANK1   BANK2   BANK3   BANK4   BANK5   BANK6   BANK7   BANK8   BANK9  BANK10  BANK1
      +1  BANK12  BANK13  BANK14  BANK15  BANK16  BANK17  BANK18  BANK19  BANK20  BANK21  BANK22  BANK23  BANK24  BANK25
 10759 ;;      Params:         8       0       0       0       0       0       0       0       0       0       0       0       
      +0       0       0       0       0       0       0       0       0       0       0       0       0       0       0
 10760 ;;      Locals:         0       0       0       0       0       0       0       0       0       0       0       0       
      +0       0       0       0       0       0       0       0       0       0       0       0       0       0       0
 10761 ;;      Temps:          4       0       0       0       0       0       0       0       0       0       0       0       
      +0       0       0       0       0       0       0       0       0       0       0       0       0       0       0
 10762 ;;      Totals:        12       0       0       0       0       0       0       0       0       0       0       0       
      +0       0       0       0       0       0       0       0       0       0       0       0       0       0       0
 10763 ;;Total ram usage:       12 bytes
 10764 ;; Hardware stack levels used:    1
 10765 ;; This function calls:
 10766 ;;		Nothing
 10767 ;; This function is called by:
 10768 ;;		_efgtoa
 10769 ;; This function uses a non-reentrant model
 10770 ;;
 10771                           
 10772                           
 10773                           ;psect for function ___fleq
 10774  1CB0                     ___fleq:
 10775  1CB0                     l3373:	
 10776                           ;incstack = 0
 10777                           ; Regs used in ___fleq: [wreg+status,2+status,0]
 10778                           
 10779  1CB0  3000               	movlw	0
 10780  1CB1  0570               	andwf	___fleq@ff1,w
 10781  1CB2  00F8               	movwf	??___fleq
 10782  1CB3  3000               	movlw	0
 10783  1CB4  0571               	andwf	___fleq@ff1+1,w
 10784  1CB5  00F9               	movwf	??___fleq+1
 10785  1CB6  3080               	movlw	128
 10786  1CB7  0572               	andwf	___fleq@ff1+2,w
 10787  1CB8  00FA               	movwf	??___fleq+2
 10788  1CB9  307F               	movlw	127
 10789  1CBA  0573               	andwf	___fleq@ff1+3,w
 10790  1CBB  00FB               	movwf	??___fleq+3
 10791  1CBC  087B               	movf	??___fleq+3,w
 10792  1CBD  047A               	iorwf	??___fleq+2,w
 10793  1CBE  0479               	iorwf	??___fleq+1,w
 10794  1CBF  0478               	iorwf	??___fleq,w
 10795  1CC0  1D03               	skipz
 10796  1CC1  2CC3               	goto	u4321
 10797  1CC2  2CC4               	goto	u4320
 10798  1CC3                     u4321:
 10799  1CC3  2CCC               	goto	l579
 10800  1CC4                     u4320:
 10801  1CC4                     l3375:
 10802  1CC4  3000               	movlw	0
 10803  1CC5  00F3               	movwf	___fleq@ff1+3
 10804  1CC6  3000               	movlw	0
 10805  1CC7  00F2               	movwf	___fleq@ff1+2
 10806  1CC8  3000               	movlw	0
 10807  1CC9  00F1               	movwf	___fleq@ff1+1
 10808  1CCA  3000               	movlw	0
 10809  1CCB  00F0               	movwf	___fleq@ff1
 10810  1CCC                     l579:
 10811  1CCC  3000               	movlw	0
 10812  1CCD  0574               	andwf	___fleq@ff2,w
 10813  1CCE  00F8               	movwf	??___fleq
 10814  1CCF  3000               	movlw	0
 10815  1CD0  0575               	andwf	___fleq@ff2+1,w
 10816  1CD1  00F9               	movwf	??___fleq+1
 10817  1CD2  3080               	movlw	128
 10818  1CD3  0576               	andwf	___fleq@ff2+2,w
 10819  1CD4  00FA               	movwf	??___fleq+2
 10820  1CD5  307F               	movlw	127
 10821  1CD6  0577               	andwf	___fleq@ff2+3,w
 10822  1CD7  00FB               	movwf	??___fleq+3
 10823  1CD8  087B               	movf	??___fleq+3,w
 10824  1CD9  047A               	iorwf	??___fleq+2,w
 10825  1CDA  0479               	iorwf	??___fleq+1,w
 10826  1CDB  0478               	iorwf	??___fleq,w
 10827  1CDC  1D03               	skipz
 10828  1CDD  2CDF               	goto	u4331
 10829  1CDE  2CE0               	goto	u4330
 10830  1CDF                     u4331:
 10831  1CDF  2CE8               	goto	l580
 10832  1CE0                     u4330:
 10833  1CE0                     l3377:
 10834  1CE0  3000               	movlw	0
 10835  1CE1  00F7               	movwf	___fleq@ff2+3
 10836  1CE2  3000               	movlw	0
 10837  1CE3  00F6               	movwf	___fleq@ff2+2
 10838  1CE4  3000               	movlw	0
 10839  1CE5  00F5               	movwf	___fleq@ff2+1
 10840  1CE6  3000               	movlw	0
 10841  1CE7  00F4               	movwf	___fleq@ff2
 10842  1CE8                     l580:
 10843  1CE8  0877               	movf	___fleq@ff2+3,w
 10844  1CE9  0673               	xorwf	___fleq@ff1+3,w
 10845  1CEA  1D03               	skipz
 10846  1CEB  2CF6               	goto	u4345
 10847  1CEC  0876               	movf	___fleq@ff2+2,w
 10848  1CED  0672               	xorwf	___fleq@ff1+2,w
 10849  1CEE  1D03               	skipz
 10850  1CEF  2CF6               	goto	u4345
 10851  1CF0  0875               	movf	___fleq@ff2+1,w
 10852  1CF1  0671               	xorwf	___fleq@ff1+1,w
 10853  1CF2  1D03               	skipz
 10854  1CF3  2CF6               	goto	u4345
 10855  1CF4  0874               	movf	___fleq@ff2,w
 10856  1CF5  0670               	xorwf	___fleq@ff1,w
 10857  1CF6                     u4345:
 10858  1CF6  1903               	skipnz
 10859  1CF7  2CF9               	goto	u4341
 10860  1CF8  2CFA               	goto	u4340
 10861  1CF9                     u4341:
 10862  1CF9  2CFC               	goto	l3381
 10863  1CFA                     u4340:
 10864  1CFA                     l3379:
 10865  1CFA  1003               	clrc
 10866  1CFB  2CFD               	goto	l585
 10867  1CFC                     l3381:
 10868  1CFC  1403               	setc
 10869  1CFD                     l585:
 10870  1CFD  0008               	return
 10871  1CFE                     __end_of___fleq:
 10872                           
 10873                           	psect	text19
 10874  164C                     __ptext19:	
 10875 ;; *************** function ___fldiv *****************
 10876 ;; Defined at:
 10877 ;;		line 8 in file "C:\Program Files\Microchip\xc8\v2.31\pic\sources\c99\common\sprcdiv.c"
 10878 ;; Parameters:    Size  Location     Type
 10879 ;;  a               4    0[COMMON] unsigned int 
 10880 ;;  b               4    4[COMMON] unsigned int 
 10881 ;; Auto vars:     Size  Location     Type
 10882 ;;  grs             4    7[BANK0 ] unsigned long 
 10883 ;;  rem             4    0[BANK0 ] unsigned long 
 10884 ;;  new_exp         2    5[BANK0 ] int 
 10885 ;;  aexp            1   12[BANK0 ] unsigned char 
 10886 ;;  bexp            1   11[BANK0 ] unsigned char 
 10887 ;;  sign            1    4[BANK0 ] unsigned char 
 10888 ;; Return value:  Size  Location     Type
 10889 ;;                  4    0[COMMON] unsigned char 
 10890 ;; Registers used:
 10891 ;;		wreg, status,2, status,0
 10892 ;; Tracked objects:
 10893 ;;		On entry : 0/0
 10894 ;;		On exit  : 0/0
 10895 ;;		Unchanged: 0/0
 10896 ;; Data sizes:     COMMON   BANK0   BANK1   BANK2   BANK3   BANK4   BANK5   BANK6   BANK7   BANK8   BANK9  BANK10  BANK1
      +1  BANK12  BANK13  BANK14  BANK15  BANK16  BANK17  BANK18  BANK19  BANK20  BANK21  BANK22  BANK23  BANK24  BANK25
 10897 ;;      Params:         8       0       0       0       0       0       0       0       0       0       0       0       
      +0       0       0       0       0       0       0       0       0       0       0       0       0       0       0
 10898 ;;      Locals:         0      13       0       0       0       0       0       0       0       0       0       0       
      +0       0       0       0       0       0       0       0       0       0       0       0       0       0       0
 10899 ;;      Temps:          5       0       0       0       0       0       0       0       0       0       0       0       
      +0       0       0       0       0       0       0       0       0       0       0       0       0       0       0
 10900 ;;      Totals:        13      13       0       0       0       0       0       0       0       0       0       0       
      +0       0       0       0       0       0       0       0       0       0       0       0       0       0       0
 10901 ;;Total ram usage:       26 bytes
 10902 ;; Hardware stack levels used:    1
 10903 ;; This function calls:
 10904 ;;		Nothing
 10905 ;; This function is called by:
 10906 ;;		_main
 10907 ;;		_efgtoa
 10908 ;; This function uses a non-reentrant model
 10909 ;;
 10910                           
 10911                           
 10912                           ;psect for function ___fldiv
 10913  164C                     ___fldiv:
 10914  164C                     l3455:	
 10915                           ;incstack = 0
 10916                           ; Regs used in ___fldiv: [wreg+status,2+status,0]
 10917                           
 10918  164C  0877               	movf	___fldiv@b+3,w
 10919  164D  3980               	andlw	128
 10920  164E  00F8               	movwf	??___fldiv
 10921  164F  0878               	movf	??___fldiv,w
 10922  1650  0020               	movlb	0	; select bank0
 10923  1651  00A4               	movwf	___fldiv@sign
 10924  1652                     l3457:
 10925  1652  3577               	lslf	___fldiv@b+3,w
 10926  1653  00F8               	movwf	??___fldiv
 10927  1654  0878               	movf	??___fldiv,w
 10928  1655  00AB               	movwf	___fldiv@bexp
 10929  1656                     l3459:
 10930  1656  1FF6               	btfss	___fldiv@b+2,7
 10931  1657  2E59               	goto	u4511
 10932  1658  2E5A               	goto	u4510
 10933  1659                     u4511:
 10934  1659  2E5B               	goto	l3463
 10935  165A                     u4510:
 10936  165A                     l3461:
 10937  165A  142B               	bsf	___fldiv@bexp,0
 10938  165B                     l3463:
 10939  165B  082B               	movf	___fldiv@bexp,w
 10940  165C  1903               	btfsc	3,2
 10941  165D  2E5F               	goto	u4521
 10942  165E  2E60               	goto	u4520
 10943  165F                     u4521:
 10944  165F  2E70               	goto	l3473
 10945  1660                     u4520:
 10946  1660                     l3465:
 10947  1660  0A2B               	incf	___fldiv@bexp,w
 10948  1661  1D03               	btfss	3,2
 10949  1662  2E64               	goto	u4531
 10950  1663  2E65               	goto	u4530
 10951  1664                     u4531:
 10952  1664  2E6D               	goto	l3469
 10953  1665                     u4530:
 10954  1665                     l3467:
 10955  1665  3000               	movlw	0
 10956  1666  00F7               	movwf	___fldiv@b+3
 10957  1667  3000               	movlw	0
 10958  1668  00F6               	movwf	___fldiv@b+2
 10959  1669  3000               	movlw	0
 10960  166A  00F5               	movwf	___fldiv@b+1
 10961  166B  3000               	movlw	0
 10962  166C  00F4               	movwf	___fldiv@b
 10963  166D                     l3469:
 10964  166D  17F6               	bsf	___fldiv@b+2,7
 10965  166E                     l3471:
 10966  166E  01F7               	clrf	___fldiv@b+3
 10967  166F  2E78               	goto	l3475
 10968  1670                     l3473:
 10969  1670  3000               	movlw	0
 10970  1671  00F7               	movwf	___fldiv@b+3
 10971  1672  3000               	movlw	0
 10972  1673  00F6               	movwf	___fldiv@b+2
 10973  1674  3000               	movlw	0
 10974  1675  00F5               	movwf	___fldiv@b+1
 10975  1676  3000               	movlw	0
 10976  1677  00F4               	movwf	___fldiv@b
 10977  1678                     l3475:
 10978  1678  0873               	movf	___fldiv@a+3,w
 10979  1679  3980               	andlw	128
 10980  167A  00F8               	movwf	??___fldiv
 10981  167B  0878               	movf	??___fldiv,w
 10982  167C  06A4               	xorwf	___fldiv@sign,f
 10983  167D                     l3477:
 10984  167D  3573               	lslf	___fldiv@a+3,w
 10985  167E  00F8               	movwf	??___fldiv
 10986  167F  0878               	movf	??___fldiv,w
 10987  1680  00AC               	movwf	___fldiv@aexp
 10988  1681                     l3479:
 10989  1681  1FF2               	btfss	___fldiv@a+2,7
 10990  1682  2E84               	goto	u4541
 10991  1683  2E85               	goto	u4540
 10992  1684                     u4541:
 10993  1684  2E86               	goto	l3483
 10994  1685                     u4540:
 10995  1685                     l3481:
 10996  1685  142C               	bsf	___fldiv@aexp,0
 10997  1686                     l3483:
 10998  1686  082C               	movf	___fldiv@aexp,w
 10999  1687  1903               	btfsc	3,2
 11000  1688  2E8A               	goto	u4551
 11001  1689  2E8B               	goto	u4550
 11002  168A                     u4551:
 11003  168A  2E9B               	goto	l3493
 11004  168B                     u4550:
 11005  168B                     l3485:
 11006  168B  0A2C               	incf	___fldiv@aexp,w
 11007  168C  1D03               	btfss	3,2
 11008  168D  2E8F               	goto	u4561
 11009  168E  2E90               	goto	u4560
 11010  168F                     u4561:
 11011  168F  2E98               	goto	l3489
 11012  1690                     u4560:
 11013  1690                     l3487:
 11014  1690  3000               	movlw	0
 11015  1691  00F3               	movwf	___fldiv@a+3
 11016  1692  3000               	movlw	0
 11017  1693  00F2               	movwf	___fldiv@a+2
 11018  1694  3000               	movlw	0
 11019  1695  00F1               	movwf	___fldiv@a+1
 11020  1696  3000               	movlw	0
 11021  1697  00F0               	movwf	___fldiv@a
 11022  1698                     l3489:
 11023  1698  17F2               	bsf	___fldiv@a+2,7
 11024  1699                     l3491:
 11025  1699  01F3               	clrf	___fldiv@a+3
 11026  169A  2EA3               	goto	l767
 11027  169B                     l3493:
 11028  169B  3000               	movlw	0
 11029  169C  00F3               	movwf	___fldiv@a+3
 11030  169D  3000               	movlw	0
 11031  169E  00F2               	movwf	___fldiv@a+2
 11032  169F  3000               	movlw	0
 11033  16A0  00F1               	movwf	___fldiv@a+1
 11034  16A1  3000               	movlw	0
 11035  16A2  00F0               	movwf	___fldiv@a
 11036  16A3                     l767:
 11037  16A3  0873               	movf	___fldiv@a+3,w
 11038  16A4  0472               	iorwf	___fldiv@a+2,w
 11039  16A5  0471               	iorwf	___fldiv@a+1,w
 11040  16A6  0470               	iorwf	___fldiv@a,w
 11041  16A7  1D03               	skipz
 11042  16A8  2EAA               	goto	u4571
 11043  16A9  2EAB               	goto	u4570
 11044  16AA                     u4571:
 11045  16AA  2EC4               	goto	l3503
 11046  16AB                     u4570:
 11047  16AB                     l3495:
 11048  16AB  3000               	movlw	0
 11049  16AC  00F7               	movwf	___fldiv@b+3
 11050  16AD  3000               	movlw	0
 11051  16AE  00F6               	movwf	___fldiv@b+2
 11052  16AF  3000               	movlw	0
 11053  16B0  00F5               	movwf	___fldiv@b+1
 11054  16B1  3000               	movlw	0
 11055  16B2  00F4               	movwf	___fldiv@b
 11056  16B3  3080               	movlw	128
 11057  16B4  04F6               	iorwf	___fldiv@b+2,f
 11058  16B5  307F               	movlw	127
 11059  16B6  04F7               	iorwf	___fldiv@b+3,f
 11060  16B7                     l3497:
 11061  16B7  0824               	movf	___fldiv@sign,w
 11062  16B8  00F8               	movwf	??___fldiv
 11063  16B9  0878               	movf	??___fldiv,w
 11064  16BA  04F7               	iorwf	___fldiv@b+3,f
 11065  16BB                     l3499:
 11066  16BB  0877               	movf	___fldiv@b+3,w
 11067  16BC  00F3               	movwf	?___fldiv+3
 11068  16BD  0876               	movf	___fldiv@b+2,w
 11069  16BE  00F2               	movwf	?___fldiv+2
 11070  16BF  0875               	movf	___fldiv@b+1,w
 11071  16C0  00F1               	movwf	?___fldiv+1
 11072  16C1  0874               	movf	___fldiv@b,w
 11073  16C2  00F0               	movwf	?___fldiv
 11074  16C3  2FFF               	goto	l769
 11075  16C4                     l3503:
 11076  16C4  082B               	movf	___fldiv@bexp,w
 11077  16C5  1D03               	btfss	3,2
 11078  16C6  2EC8               	goto	u4581
 11079  16C7  2EC9               	goto	u4580
 11080  16C8                     u4581:
 11081  16C8  2ED2               	goto	l3509
 11082  16C9                     u4580:
 11083  16C9                     l3505:
 11084  16C9  3000               	movlw	0
 11085  16CA  00F3               	movwf	?___fldiv+3
 11086  16CB  3000               	movlw	0
 11087  16CC  00F2               	movwf	?___fldiv+2
 11088  16CD  3000               	movlw	0
 11089  16CE  00F1               	movwf	?___fldiv+1
 11090  16CF  3000               	movlw	0
 11091  16D0  00F0               	movwf	?___fldiv
 11092  16D1  2FFF               	goto	l769
 11093  16D2                     l3509:
 11094  16D2  082B               	movf	___fldiv@bexp,w
 11095  16D3  00F8               	movwf	??___fldiv
 11096  16D4  01F9               	clrf	??___fldiv+1
 11097  16D5  0879               	movf	??___fldiv+1,w
 11098  16D6  00FB               	movwf	??___fldiv+3
 11099  16D7  082C               	movf	___fldiv@aexp,w
 11100  16D8  0278               	subwf	??___fldiv,w
 11101  16D9  00FA               	movwf	??___fldiv+2
 11102  16DA  1C03               	skipc
 11103  16DB  03FB               	decf	??___fldiv+3,f
 11104  16DC  087A               	movf	??___fldiv+2,w
 11105  16DD  3E7F               	addlw	127
 11106  16DE  00A5               	movwf	___fldiv@new_exp
 11107  16DF  3000               	movlw	0
 11108  16E0  3D7B               	addwfc	??___fldiv+3,w
 11109  16E1  00A6               	movwf	___fldiv@new_exp+1
 11110  16E2                     l3511:
 11111  16E2  0877               	movf	___fldiv@b+3,w
 11112  16E3  00A3               	movwf	___fldiv@rem+3
 11113  16E4  0876               	movf	___fldiv@b+2,w
 11114  16E5  00A2               	movwf	___fldiv@rem+2
 11115  16E6  0875               	movf	___fldiv@b+1,w
 11116  16E7  00A1               	movwf	___fldiv@rem+1
 11117  16E8  0874               	movf	___fldiv@b,w
 11118  16E9  00A0               	movwf	___fldiv@rem
 11119  16EA                     l3513:
 11120  16EA  3000               	movlw	0
 11121  16EB  00F7               	movwf	___fldiv@b+3
 11122  16EC  3000               	movlw	0
 11123  16ED  00F6               	movwf	___fldiv@b+2
 11124  16EE  3000               	movlw	0
 11125  16EF  00F5               	movwf	___fldiv@b+1
 11126  16F0  3000               	movlw	0
 11127  16F1  00F4               	movwf	___fldiv@b
 11128  16F2                     l3515:
 11129  16F2  3000               	movlw	0
 11130  16F3  00AA               	movwf	___fldiv@grs+3
 11131  16F4  3000               	movlw	0
 11132  16F5  00A9               	movwf	___fldiv@grs+2
 11133  16F6  3000               	movlw	0
 11134  16F7  00A8               	movwf	___fldiv@grs+1
 11135  16F8  3000               	movlw	0
 11136  16F9  00A7               	movwf	___fldiv@grs
 11137  16FA                     l3517:
 11138  16FA  01AC               	clrf	___fldiv@aexp
 11139  16FB  2F3A               	goto	l3537
 11140  16FC                     l3519:
 11141  16FC  082C               	movf	___fldiv@aexp,w
 11142  16FD  1903               	btfsc	3,2
 11143  16FE  2F00               	goto	u4591
 11144  16FF  2F01               	goto	u4590
 11145  1700                     u4591:
 11146  1700  2F1B               	goto	l3529
 11147  1701                     u4590:
 11148  1701                     l3521:
 11149  1701  3001               	movlw	1
 11150  1702                     u4605:
 11151  1702  35A0               	lslf	___fldiv@rem,f
 11152  1703  0DA1               	rlf	___fldiv@rem+1,f
 11153  1704  0DA2               	rlf	___fldiv@rem+2,f
 11154  1705  0DA3               	rlf	___fldiv@rem+3,f
 11155  1706  0B89               	decfsz	9,f
 11156  1707  2F02               	goto	u4605
 11157  1708  3001               	movlw	1
 11158  1709                     u4615:
 11159  1709  35F4               	lslf	___fldiv@b,f
 11160  170A  0DF5               	rlf	___fldiv@b+1,f
 11161  170B  0DF6               	rlf	___fldiv@b+2,f
 11162  170C  0DF7               	rlf	___fldiv@b+3,f
 11163  170D  0B89               	decfsz	9,f
 11164  170E  2F09               	goto	u4615
 11165  170F                     l3523:
 11166  170F  1FAA               	btfss	___fldiv@grs+3,7
 11167  1710  2F12               	goto	u4621
 11168  1711  2F13               	goto	u4620
 11169  1712                     u4621:
 11170  1712  2F14               	goto	l3527
 11171  1713                     u4620:
 11172  1713                     l3525:
 11173  1713  1474               	bsf	___fldiv@b,0
 11174  1714                     l3527:
 11175  1714  3001               	movlw	1
 11176  1715                     u4635:
 11177  1715  35A7               	lslf	___fldiv@grs,f
 11178  1716  0DA8               	rlf	___fldiv@grs+1,f
 11179  1717  0DA9               	rlf	___fldiv@grs+2,f
 11180  1718  0DAA               	rlf	___fldiv@grs+3,f
 11181  1719  0B89               	decfsz	9,f
 11182  171A  2F15               	goto	u4635
 11183  171B                     l3529:
 11184  171B  0873               	movf	___fldiv@a+3,w
 11185  171C  0223               	subwf	___fldiv@rem+3,w
 11186  171D  1D03               	skipz
 11187  171E  2F29               	goto	u4645
 11188  171F  0872               	movf	___fldiv@a+2,w
 11189  1720  0222               	subwf	___fldiv@rem+2,w
 11190  1721  1D03               	skipz
 11191  1722  2F29               	goto	u4645
 11192  1723  0871               	movf	___fldiv@a+1,w
 11193  1724  0221               	subwf	___fldiv@rem+1,w
 11194  1725  1D03               	skipz
 11195  1726  2F29               	goto	u4645
 11196  1727  0870               	movf	___fldiv@a,w
 11197  1728  0220               	subwf	___fldiv@rem,w
 11198  1729                     u4645:
 11199  1729  1C03               	skipc
 11200  172A  2F2C               	goto	u4641
 11201  172B  2F2D               	goto	u4640
 11202  172C                     u4641:
 11203  172C  2F36               	goto	l3535
 11204  172D                     u4640:
 11205  172D                     l3531:
 11206  172D  172A               	bsf	___fldiv@grs+3,6
 11207  172E                     l3533:
 11208  172E  0870               	movf	___fldiv@a,w
 11209  172F  02A0               	subwf	___fldiv@rem,f
 11210  1730  0871               	movf	___fldiv@a+1,w
 11211  1731  3BA1               	subwfb	___fldiv@rem+1,f
 11212  1732  0872               	movf	___fldiv@a+2,w
 11213  1733  3BA2               	subwfb	___fldiv@rem+2,f
 11214  1734  0873               	movf	___fldiv@a+3,w
 11215  1735  3BA3               	subwfb	___fldiv@rem+3,f
 11216  1736                     l3535:
 11217  1736  3001               	movlw	1
 11218  1737  00F8               	movwf	??___fldiv
 11219  1738  0878               	movf	??___fldiv,w
 11220  1739  07AC               	addwf	___fldiv@aexp,f
 11221  173A                     l3537:
 11222  173A  301A               	movlw	26
 11223  173B  022C               	subwf	___fldiv@aexp,w
 11224  173C  1C03               	skipc
 11225  173D  2F3F               	goto	u4651
 11226  173E  2F40               	goto	u4650
 11227  173F                     u4651:
 11228  173F  2EFC               	goto	l3519
 11229  1740                     u4650:
 11230  1740                     l3539:
 11231  1740  0823               	movf	___fldiv@rem+3,w
 11232  1741  0422               	iorwf	___fldiv@rem+2,w
 11233  1742  0421               	iorwf	___fldiv@rem+1,w
 11234  1743  0420               	iorwf	___fldiv@rem,w
 11235  1744  1903               	skipnz
 11236  1745  2F47               	goto	u4661
 11237  1746  2F48               	goto	u4660
 11238  1747                     u4661:
 11239  1747  2F61               	goto	l3553
 11240  1748                     u4660:
 11241  1748                     l3541:
 11242  1748  1427               	bsf	___fldiv@grs,0
 11243  1749  2F61               	goto	l3553
 11244  174A                     l3543:
 11245  174A  3001               	movlw	1
 11246  174B                     u4675:
 11247  174B  35F4               	lslf	___fldiv@b,f
 11248  174C  0DF5               	rlf	___fldiv@b+1,f
 11249  174D  0DF6               	rlf	___fldiv@b+2,f
 11250  174E  0DF7               	rlf	___fldiv@b+3,f
 11251  174F  0B89               	decfsz	9,f
 11252  1750  2F4B               	goto	u4675
 11253  1751                     l3545:
 11254  1751  1FAA               	btfss	___fldiv@grs+3,7
 11255  1752  2F54               	goto	u4681
 11256  1753  2F55               	goto	u4680
 11257  1754                     u4681:
 11258  1754  2F56               	goto	l3549
 11259  1755                     u4680:
 11260  1755                     l3547:
 11261  1755  1474               	bsf	___fldiv@b,0
 11262  1756                     l3549:
 11263  1756  3001               	movlw	1
 11264  1757                     u4695:
 11265  1757  35A7               	lslf	___fldiv@grs,f
 11266  1758  0DA8               	rlf	___fldiv@grs+1,f
 11267  1759  0DA9               	rlf	___fldiv@grs+2,f
 11268  175A  0DAA               	rlf	___fldiv@grs+3,f
 11269  175B  0B89               	decfsz	9,f
 11270  175C  2F57               	goto	u4695
 11271  175D                     l3551:
 11272  175D  30FF               	movlw	255
 11273  175E  07A5               	addwf	___fldiv@new_exp,f
 11274  175F  30FF               	movlw	255
 11275  1760  3DA6               	addwfc	___fldiv@new_exp+1,f
 11276  1761                     l3553:
 11277  1761  1FF6               	btfss	___fldiv@b+2,7
 11278  1762  2F64               	goto	u4701
 11279  1763  2F65               	goto	u4700
 11280  1764                     u4701:
 11281  1764  2F4A               	goto	l3543
 11282  1765                     u4700:
 11283  1765                     l3555:
 11284  1765  01AC               	clrf	___fldiv@aexp
 11285  1766                     l3557:
 11286  1766  1FAA               	btfss	___fldiv@grs+3,7
 11287  1767  2F69               	goto	u4711
 11288  1768  2F6A               	goto	u4710
 11289  1769                     u4711:
 11290  1769  2F86               	goto	l3565
 11291  176A                     u4710:
 11292  176A                     l3559:
 11293  176A  30FF               	movlw	255
 11294  176B  0527               	andwf	___fldiv@grs,w
 11295  176C  00F8               	movwf	??___fldiv
 11296  176D  30FF               	movlw	255
 11297  176E  0528               	andwf	___fldiv@grs+1,w
 11298  176F  00F9               	movwf	??___fldiv+1
 11299  1770  30FF               	movlw	255
 11300  1771  0529               	andwf	___fldiv@grs+2,w
 11301  1772  00FA               	movwf	??___fldiv+2
 11302  1773  307F               	movlw	127
 11303  1774  052A               	andwf	___fldiv@grs+3,w
 11304  1775  00FB               	movwf	??___fldiv+3
 11305  1776  087B               	movf	??___fldiv+3,w
 11306  1777  047A               	iorwf	??___fldiv+2,w
 11307  1778  0479               	iorwf	??___fldiv+1,w
 11308  1779  0478               	iorwf	??___fldiv,w
 11309  177A  1903               	skipnz
 11310  177B  2F7D               	goto	u4721
 11311  177C  2F7E               	goto	u4720
 11312  177D                     u4721:
 11313  177D  2F81               	goto	l783
 11314  177E                     u4720:
 11315  177E                     l3561:
 11316  177E  01AC               	clrf	___fldiv@aexp
 11317  177F  0AAC               	incf	___fldiv@aexp,f
 11318  1780  2F86               	goto	l3565
 11319  1781                     l783:
 11320  1781  1C74               	btfss	___fldiv@b,0
 11321  1782  2F84               	goto	u4731
 11322  1783  2F85               	goto	u4730
 11323  1784                     u4731:
 11324  1784  2F86               	goto	l3565
 11325  1785                     u4730:
 11326  1785  2F7E               	goto	l3561
 11327  1786                     l3565:
 11328  1786  082C               	movf	___fldiv@aexp,w
 11329  1787  1903               	btfsc	3,2
 11330  1788  2F8A               	goto	u4741
 11331  1789  2F8B               	goto	u4740
 11332  178A                     u4741:
 11333  178A  2FB3               	goto	l3575
 11334  178B                     u4740:
 11335  178B                     l3567:
 11336  178B  3001               	movlw	1
 11337  178C  07F4               	addwf	___fldiv@b,f
 11338  178D  3000               	movlw	0
 11339  178E  3DF5               	addwfc	___fldiv@b+1,f
 11340  178F  3000               	movlw	0
 11341  1790  3DF6               	addwfc	___fldiv@b+2,f
 11342  1791  3000               	movlw	0
 11343  1792  3DF7               	addwfc	___fldiv@b+3,f
 11344  1793                     l3569:
 11345  1793  1C77               	btfss	___fldiv@b+3,0
 11346  1794  2F96               	goto	u4751
 11347  1795  2F97               	goto	u4750
 11348  1796                     u4751:
 11349  1796  2FB3               	goto	l3575
 11350  1797                     u4750:
 11351  1797                     l3571:
 11352  1797  0874               	movf	___fldiv@b,w
 11353  1798  00F8               	movwf	??___fldiv
 11354  1799  0875               	movf	___fldiv@b+1,w
 11355  179A  00F9               	movwf	??___fldiv+1
 11356  179B  0876               	movf	___fldiv@b+2,w
 11357  179C  00FA               	movwf	??___fldiv+2
 11358  179D  0877               	movf	___fldiv@b+3,w
 11359  179E  00FB               	movwf	??___fldiv+3
 11360  179F  3001               	movlw	1
 11361  17A0  00FC               	movwf	??___fldiv+4
 11362  17A1                     u4765:
 11363  17A1  37FB               	asrf	??___fldiv+3,f
 11364  17A2  0CFA               	rrf	??___fldiv+2,f
 11365  17A3  0CF9               	rrf	??___fldiv+1,f
 11366  17A4  0CF8               	rrf	??___fldiv,f
 11367  17A5                     u4760:
 11368  17A5  0BFC               	decfsz	??___fldiv+4,f
 11369  17A6  2FA1               	goto	u4765
 11370  17A7  087B               	movf	??___fldiv+3,w
 11371  17A8  00F7               	movwf	___fldiv@b+3
 11372  17A9  087A               	movf	??___fldiv+2,w
 11373  17AA  00F6               	movwf	___fldiv@b+2
 11374  17AB  0879               	movf	??___fldiv+1,w
 11375  17AC  00F5               	movwf	___fldiv@b+1
 11376  17AD  0878               	movf	??___fldiv,w
 11377  17AE  00F4               	movwf	___fldiv@b
 11378  17AF                     l3573:
 11379  17AF  3001               	movlw	1
 11380  17B0  07A5               	addwf	___fldiv@new_exp,f
 11381  17B1  3000               	movlw	0
 11382  17B2  3DA6               	addwfc	___fldiv@new_exp+1,f
 11383  17B3                     l3575:
 11384  17B3  0826               	movf	___fldiv@new_exp+1,w
 11385  17B4  3A80               	xorlw	128
 11386  17B5  00F8               	movwf	??___fldiv
 11387  17B6  3080               	movlw	128
 11388  17B7  0278               	subwf	??___fldiv,w
 11389  17B8  1D03               	skipz
 11390  17B9  2FBC               	goto	u4775
 11391  17BA  30FF               	movlw	255
 11392  17BB  0225               	subwf	___fldiv@new_exp,w
 11393  17BC                     u4775:
 11394  17BC  1C03               	skipc
 11395  17BD  2FBF               	goto	u4771
 11396  17BE  2FC0               	goto	u4770
 11397  17BF                     u4771:
 11398  17BF  2FCD               	goto	l788
 11399  17C0                     u4770:
 11400  17C0                     l3577:
 11401  17C0  30FF               	movlw	255
 11402  17C1  0020               	movlb	0	; select bank0
 11403  17C2  00A5               	movwf	___fldiv@new_exp
 11404  17C3  3000               	movlw	0
 11405  17C4  00A6               	movwf	___fldiv@new_exp+1
 11406  17C5  3000               	movlw	0
 11407  17C6  00F7               	movwf	___fldiv@b+3
 11408  17C7  3000               	movlw	0
 11409  17C8  00F6               	movwf	___fldiv@b+2
 11410  17C9  3000               	movlw	0
 11411  17CA  00F5               	movwf	___fldiv@b+1
 11412  17CB  3000               	movlw	0
 11413  17CC  00F4               	movwf	___fldiv@b
 11414  17CD                     l788:
 11415  17CD  0020               	movlb	0	; select bank0
 11416  17CE  0826               	movf	___fldiv@new_exp+1,w
 11417  17CF  3A80               	xorlw	128
 11418  17D0  00F8               	movwf	??___fldiv
 11419  17D1  3080               	movlw	128
 11420  17D2  0278               	subwf	??___fldiv,w
 11421  17D3  1D03               	skipz
 11422  17D4  2FD7               	goto	u4785
 11423  17D5  3001               	movlw	1
 11424  17D6  0225               	subwf	___fldiv@new_exp,w
 11425  17D7                     u4785:
 11426  17D7  1803               	skipnc
 11427  17D8  2FDA               	goto	u4781
 11428  17D9  2FDB               	goto	u4780
 11429  17DA                     u4781:
 11430  17DA  2FE7               	goto	l789
 11431  17DB                     u4780:
 11432  17DB                     l3579:
 11433  17DB  0020               	movlb	0	; select bank0
 11434  17DC  01A5               	clrf	___fldiv@new_exp
 11435  17DD  01A6               	clrf	___fldiv@new_exp+1
 11436  17DE                     l3581:
 11437  17DE  3000               	movlw	0
 11438  17DF  00F7               	movwf	___fldiv@b+3
 11439  17E0  3000               	movlw	0
 11440  17E1  00F6               	movwf	___fldiv@b+2
 11441  17E2  3000               	movlw	0
 11442  17E3  00F5               	movwf	___fldiv@b+1
 11443  17E4  3000               	movlw	0
 11444  17E5  00F4               	movwf	___fldiv@b
 11445  17E6                     l3583:
 11446  17E6  01A4               	clrf	___fldiv@sign
 11447  17E7                     l789:
 11448  17E7  0020               	movlb	0	; select bank0
 11449  17E8  0825               	movf	___fldiv@new_exp,w
 11450  17E9  00F8               	movwf	??___fldiv
 11451  17EA  0878               	movf	??___fldiv,w
 11452  17EB  00AB               	movwf	___fldiv@bexp
 11453  17EC                     l3585:
 11454  17EC  1C2B               	btfss	___fldiv@bexp,0
 11455  17ED  2FEF               	goto	u4791
 11456  17EE  2FF0               	goto	u4790
 11457  17EF                     u4791:
 11458  17EF  2FF2               	goto	l3589
 11459  17F0                     u4790:
 11460  17F0                     l3587:
 11461  17F0  17F6               	bsf	___fldiv@b+2,7
 11462  17F1  2FF6               	goto	l791
 11463  17F2                     l3589:
 11464  17F2  307F               	movlw	127
 11465  17F3  00F8               	movwf	??___fldiv
 11466  17F4  0878               	movf	??___fldiv,w
 11467  17F5  05F6               	andwf	___fldiv@b+2,f
 11468  17F6                     l791:
 11469  17F6  362B               	lsrf	___fldiv@bexp,w
 11470  17F7  00F8               	movwf	??___fldiv
 11471  17F8  0878               	movf	??___fldiv,w
 11472  17F9  00F7               	movwf	___fldiv@b+3
 11473  17FA  0824               	movf	___fldiv@sign,w
 11474  17FB  00F8               	movwf	??___fldiv
 11475  17FC  0878               	movf	??___fldiv,w
 11476  17FD  04F7               	iorwf	___fldiv@b+3,f
 11477  17FE  2EBB               	goto	l3499
 11478  17FF                     l769:
 11479  17FF  0008               	return
 11480  1800                     __end_of___fldiv:
 11481                           
 11482                           	psect	text20
 11483  1CFE                     __ptext20:	
 11484 ;; *************** function ___awmod *****************
 11485 ;; Defined at:
 11486 ;;		line 5 in file "C:\Program Files\Microchip\xc8\v2.31\pic\sources\c99\common\awmod.c"
 11487 ;; Parameters:    Size  Location     Type
 11488 ;;  divisor         2    0[COMMON] int 
 11489 ;;  dividend        2    2[COMMON] int 
 11490 ;; Auto vars:     Size  Location     Type
 11491 ;;  sign            1    6[COMMON] unsigned char 
 11492 ;;  counter         1    5[COMMON] unsigned char 
 11493 ;; Return value:  Size  Location     Type
 11494 ;;                  2    0[COMMON] int 
 11495 ;; Registers used:
 11496 ;;		wreg, status,2, status,0
 11497 ;; Tracked objects:
 11498 ;;		On entry : 0/0
 11499 ;;		On exit  : 0/0
 11500 ;;		Unchanged: 0/0
 11501 ;; Data sizes:     COMMON   BANK0   BANK1   BANK2   BANK3   BANK4   BANK5   BANK6   BANK7   BANK8   BANK9  BANK10  BANK1
      +1  BANK12  BANK13  BANK14  BANK15  BANK16  BANK17  BANK18  BANK19  BANK20  BANK21  BANK22  BANK23  BANK24  BANK25
 11502 ;;      Params:         4       0       0       0       0       0       0       0       0       0       0       0       
      +0       0       0       0       0       0       0       0       0       0       0       0       0       0       0
 11503 ;;      Locals:         2       0       0       0       0       0       0       0       0       0       0       0       
      +0       0       0       0       0       0       0       0       0       0       0       0       0       0       0
 11504 ;;      Temps:          1       0       0       0       0       0       0       0       0       0       0       0       
      +0       0       0       0       0       0       0       0       0       0       0       0       0       0       0
 11505 ;;      Totals:         7       0       0       0       0       0       0       0       0       0       0       0       
      +0       0       0       0       0       0       0       0       0       0       0       0       0       0       0
 11506 ;;Total ram usage:        7 bytes
 11507 ;; Hardware stack levels used:    1
 11508 ;; This function calls:
 11509 ;;		Nothing
 11510 ;; This function is called by:
 11511 ;;		_efgtoa
 11512 ;; This function uses a non-reentrant model
 11513 ;;
 11514                           
 11515                           
 11516                           ;psect for function ___awmod
 11517  1CFE                     ___awmod:
 11518  1CFE                     l3335:	
 11519                           ;incstack = 0
 11520                           ; Regs used in ___awmod: [wreg+status,2+status,0]
 11521                           
 11522  1CFE  01F6               	clrf	___awmod@sign
 11523  1CFF                     l3337:
 11524  1CFF  1FF3               	btfss	___awmod@dividend+1,7
 11525  1D00  2D02               	goto	u4231
 11526  1D01  2D03               	goto	u4230
 11527  1D02                     u4231:
 11528  1D02  2D0A               	goto	l3343
 11529  1D03                     u4230:
 11530  1D03                     l3339:
 11531  1D03  09F2               	comf	___awmod@dividend,f
 11532  1D04  09F3               	comf	___awmod@dividend+1,f
 11533  1D05  0AF2               	incf	___awmod@dividend,f
 11534  1D06  1903               	skipnz
 11535  1D07  0AF3               	incf	___awmod@dividend+1,f
 11536  1D08                     l3341:
 11537  1D08  01F6               	clrf	___awmod@sign
 11538  1D09  0AF6               	incf	___awmod@sign,f
 11539  1D0A                     l3343:
 11540  1D0A  1FF1               	btfss	___awmod@divisor+1,7
 11541  1D0B  2D0D               	goto	u4241
 11542  1D0C  2D0E               	goto	u4240
 11543  1D0D                     u4241:
 11544  1D0D  2D13               	goto	l3347
 11545  1D0E                     u4240:
 11546  1D0E                     l3345:
 11547  1D0E  09F0               	comf	___awmod@divisor,f
 11548  1D0F  09F1               	comf	___awmod@divisor+1,f
 11549  1D10  0AF0               	incf	___awmod@divisor,f
 11550  1D11  1903               	skipnz
 11551  1D12  0AF1               	incf	___awmod@divisor+1,f
 11552  1D13                     l3347:
 11553  1D13  0870               	movf	___awmod@divisor,w
 11554  1D14  0471               	iorwf	___awmod@divisor+1,w
 11555  1D15  1903               	btfsc	3,2
 11556  1D16  2D18               	goto	u4251
 11557  1D17  2D19               	goto	u4250
 11558  1D18                     u4251:
 11559  1D18  2D42               	goto	l3365
 11560  1D19                     u4250:
 11561  1D19                     l3349:
 11562  1D19  01F5               	clrf	___awmod@counter
 11563  1D1A  0AF5               	incf	___awmod@counter,f
 11564  1D1B  2D25               	goto	l3355
 11565  1D1C                     l3351:
 11566  1D1C  3001               	movlw	1
 11567  1D1D                     u4265:
 11568  1D1D  35F0               	lslf	___awmod@divisor,f
 11569  1D1E  0DF1               	rlf	___awmod@divisor+1,f
 11570  1D1F  0B89               	decfsz	9,f
 11571  1D20  2D1D               	goto	u4265
 11572  1D21                     l3353:
 11573  1D21  3001               	movlw	1
 11574  1D22  00F4               	movwf	??___awmod
 11575  1D23  0874               	movf	??___awmod,w
 11576  1D24  07F5               	addwf	___awmod@counter,f
 11577  1D25                     l3355:
 11578  1D25  1FF1               	btfss	___awmod@divisor+1,7
 11579  1D26  2D28               	goto	u4271
 11580  1D27  2D29               	goto	u4270
 11581  1D28                     u4271:
 11582  1D28  2D1C               	goto	l3351
 11583  1D29                     u4270:
 11584  1D29                     l3357:
 11585  1D29  0871               	movf	___awmod@divisor+1,w
 11586  1D2A  0273               	subwf	___awmod@dividend+1,w
 11587  1D2B  1D03               	skipz
 11588  1D2C  2D2F               	goto	u4285
 11589  1D2D  0870               	movf	___awmod@divisor,w
 11590  1D2E  0272               	subwf	___awmod@dividend,w
 11591  1D2F                     u4285:
 11592  1D2F  1C03               	skipc
 11593  1D30  2D32               	goto	u4281
 11594  1D31  2D33               	goto	u4280
 11595  1D32                     u4281:
 11596  1D32  2D37               	goto	l3361
 11597  1D33                     u4280:
 11598  1D33                     l3359:
 11599  1D33  0870               	movf	___awmod@divisor,w
 11600  1D34  02F2               	subwf	___awmod@dividend,f
 11601  1D35  0871               	movf	___awmod@divisor+1,w
 11602  1D36  3BF3               	subwfb	___awmod@dividend+1,f
 11603  1D37                     l3361:
 11604  1D37  3001               	movlw	1
 11605  1D38                     u4295:
 11606  1D38  36F1               	lsrf	___awmod@divisor+1,f
 11607  1D39  0CF0               	rrf	___awmod@divisor,f
 11608  1D3A  0B89               	decfsz	9,f
 11609  1D3B  2D38               	goto	u4295
 11610  1D3C                     l3363:
 11611  1D3C  3001               	movlw	1
 11612  1D3D  02F5               	subwf	___awmod@counter,f
 11613  1D3E  1D03               	btfss	3,2
 11614  1D3F  2D41               	goto	u4301
 11615  1D40  2D42               	goto	u4300
 11616  1D41                     u4301:
 11617  1D41  2D29               	goto	l3357
 11618  1D42                     u4300:
 11619  1D42                     l3365:
 11620  1D42  0876               	movf	___awmod@sign,w
 11621  1D43  1903               	btfsc	3,2
 11622  1D44  2D46               	goto	u4311
 11623  1D45  2D47               	goto	u4310
 11624  1D46                     u4311:
 11625  1D46  2D4C               	goto	l3369
 11626  1D47                     u4310:
 11627  1D47                     l3367:
 11628  1D47  09F2               	comf	___awmod@dividend,f
 11629  1D48  09F3               	comf	___awmod@dividend+1,f
 11630  1D49  0AF2               	incf	___awmod@dividend,f
 11631  1D4A  1903               	skipnz
 11632  1D4B  0AF3               	incf	___awmod@dividend+1,f
 11633  1D4C                     l3369:
 11634  1D4C  0873               	movf	___awmod@dividend+1,w
 11635  1D4D  00F1               	movwf	?___awmod+1
 11636  1D4E  0872               	movf	___awmod@dividend,w
 11637  1D4F  00F0               	movwf	?___awmod
 11638  1D50                     l576:
 11639  1D50  0008               	return
 11640  1D51                     __end_of___awmod:
 11641                           
 11642                           	psect	text21
 11643  1DFF                     __ptext21:	
 11644 ;; *************** function ___awdiv *****************
 11645 ;; Defined at:
 11646 ;;		line 5 in file "C:\Program Files\Microchip\xc8\v2.31\pic\sources\c99\common\awdiv.c"
 11647 ;; Parameters:    Size  Location     Type
 11648 ;;  divisor         2    0[COMMON] int 
 11649 ;;  dividend        2    2[COMMON] int 
 11650 ;; Auto vars:     Size  Location     Type
 11651 ;;  quotient        2    7[COMMON] int 
 11652 ;;  sign            1    6[COMMON] unsigned char 
 11653 ;;  counter         1    5[COMMON] unsigned char 
 11654 ;; Return value:  Size  Location     Type
 11655 ;;                  2    0[COMMON] int 
 11656 ;; Registers used:
 11657 ;;		wreg, status,2, status,0
 11658 ;; Tracked objects:
 11659 ;;		On entry : 0/0
 11660 ;;		On exit  : 0/0
 11661 ;;		Unchanged: 0/0
 11662 ;; Data sizes:     COMMON   BANK0   BANK1   BANK2   BANK3   BANK4   BANK5   BANK6   BANK7   BANK8   BANK9  BANK10  BANK1
      +1  BANK12  BANK13  BANK14  BANK15  BANK16  BANK17  BANK18  BANK19  BANK20  BANK21  BANK22  BANK23  BANK24  BANK25
 11663 ;;      Params:         4       0       0       0       0       0       0       0       0       0       0       0       
      +0       0       0       0       0       0       0       0       0       0       0       0       0       0       0
 11664 ;;      Locals:         4       0       0       0       0       0       0       0       0       0       0       0       
      +0       0       0       0       0       0       0       0       0       0       0       0       0       0       0
 11665 ;;      Temps:          1       0       0       0       0       0       0       0       0       0       0       0       
      +0       0       0       0       0       0       0       0       0       0       0       0       0       0       0
 11666 ;;      Totals:         9       0       0       0       0       0       0       0       0       0       0       0       
      +0       0       0       0       0       0       0       0       0       0       0       0       0       0       0
 11667 ;;Total ram usage:        9 bytes
 11668 ;; Hardware stack levels used:    1
 11669 ;; This function calls:
 11670 ;;		Nothing
 11671 ;; This function is called by:
 11672 ;;		_efgtoa
 11673 ;; This function uses a non-reentrant model
 11674 ;;
 11675                           
 11676                           
 11677                           ;psect for function ___awdiv
 11678  1DFF                     ___awdiv:
 11679  1DFF                     l3291:	
 11680                           ;incstack = 0
 11681                           ; Regs used in ___awdiv: [wreg+status,2+status,0]
 11682                           
 11683  1DFF  01F6               	clrf	___awdiv@sign
 11684  1E00                     l3293:
 11685  1E00  1FF1               	btfss	___awdiv@divisor+1,7
 11686  1E01  2E03               	goto	u4131
 11687  1E02  2E04               	goto	u4130
 11688  1E03                     u4131:
 11689  1E03  2E0B               	goto	l3299
 11690  1E04                     u4130:
 11691  1E04                     l3295:
 11692  1E04  09F0               	comf	___awdiv@divisor,f
 11693  1E05  09F1               	comf	___awdiv@divisor+1,f
 11694  1E06  0AF0               	incf	___awdiv@divisor,f
 11695  1E07  1903               	skipnz
 11696  1E08  0AF1               	incf	___awdiv@divisor+1,f
 11697  1E09                     l3297:
 11698  1E09  01F6               	clrf	___awdiv@sign
 11699  1E0A  0AF6               	incf	___awdiv@sign,f
 11700  1E0B                     l3299:
 11701  1E0B  1FF3               	btfss	___awdiv@dividend+1,7
 11702  1E0C  2E0E               	goto	u4141
 11703  1E0D  2E0F               	goto	u4140
 11704  1E0E                     u4141:
 11705  1E0E  2E18               	goto	l3305
 11706  1E0F                     u4140:
 11707  1E0F                     l3301:
 11708  1E0F  09F2               	comf	___awdiv@dividend,f
 11709  1E10  09F3               	comf	___awdiv@dividend+1,f
 11710  1E11  0AF2               	incf	___awdiv@dividend,f
 11711  1E12  1903               	skipnz
 11712  1E13  0AF3               	incf	___awdiv@dividend+1,f
 11713  1E14                     l3303:
 11714  1E14  3001               	movlw	1
 11715  1E15  00F4               	movwf	??___awdiv
 11716  1E16  0874               	movf	??___awdiv,w
 11717  1E17  06F6               	xorwf	___awdiv@sign,f
 11718  1E18                     l3305:
 11719  1E18  01F7               	clrf	___awdiv@quotient
 11720  1E19  01F8               	clrf	___awdiv@quotient+1
 11721  1E1A                     l3307:
 11722  1E1A  0870               	movf	___awdiv@divisor,w
 11723  1E1B  0471               	iorwf	___awdiv@divisor+1,w
 11724  1E1C  1903               	btfsc	3,2
 11725  1E1D  2E1F               	goto	u4151
 11726  1E1E  2E20               	goto	u4150
 11727  1E1F                     u4151:
 11728  1E1F  2E4F               	goto	l3327
 11729  1E20                     u4150:
 11730  1E20                     l3309:
 11731  1E20  01F5               	clrf	___awdiv@counter
 11732  1E21  0AF5               	incf	___awdiv@counter,f
 11733  1E22  2E2C               	goto	l3315
 11734  1E23                     l3311:
 11735  1E23  3001               	movlw	1
 11736  1E24                     u4165:
 11737  1E24  35F0               	lslf	___awdiv@divisor,f
 11738  1E25  0DF1               	rlf	___awdiv@divisor+1,f
 11739  1E26  0B89               	decfsz	9,f
 11740  1E27  2E24               	goto	u4165
 11741  1E28                     l3313:
 11742  1E28  3001               	movlw	1
 11743  1E29  00F4               	movwf	??___awdiv
 11744  1E2A  0874               	movf	??___awdiv,w
 11745  1E2B  07F5               	addwf	___awdiv@counter,f
 11746  1E2C                     l3315:
 11747  1E2C  1FF1               	btfss	___awdiv@divisor+1,7
 11748  1E2D  2E2F               	goto	u4171
 11749  1E2E  2E30               	goto	u4170
 11750  1E2F                     u4171:
 11751  1E2F  2E23               	goto	l3311
 11752  1E30                     u4170:
 11753  1E30                     l3317:
 11754  1E30  3001               	movlw	1
 11755  1E31                     u4185:
 11756  1E31  35F7               	lslf	___awdiv@quotient,f
 11757  1E32  0DF8               	rlf	___awdiv@quotient+1,f
 11758  1E33  0B89               	decfsz	9,f
 11759  1E34  2E31               	goto	u4185
 11760  1E35  0871               	movf	___awdiv@divisor+1,w
 11761  1E36  0273               	subwf	___awdiv@dividend+1,w
 11762  1E37  1D03               	skipz
 11763  1E38  2E3B               	goto	u4195
 11764  1E39  0870               	movf	___awdiv@divisor,w
 11765  1E3A  0272               	subwf	___awdiv@dividend,w
 11766  1E3B                     u4195:
 11767  1E3B  1C03               	skipc
 11768  1E3C  2E3E               	goto	u4191
 11769  1E3D  2E3F               	goto	u4190
 11770  1E3E                     u4191:
 11771  1E3E  2E44               	goto	l3323
 11772  1E3F                     u4190:
 11773  1E3F                     l3319:
 11774  1E3F  0870               	movf	___awdiv@divisor,w
 11775  1E40  02F2               	subwf	___awdiv@dividend,f
 11776  1E41  0871               	movf	___awdiv@divisor+1,w
 11777  1E42  3BF3               	subwfb	___awdiv@dividend+1,f
 11778  1E43                     l3321:
 11779  1E43  1477               	bsf	___awdiv@quotient,0
 11780  1E44                     l3323:
 11781  1E44  3001               	movlw	1
 11782  1E45                     u4205:
 11783  1E45  36F1               	lsrf	___awdiv@divisor+1,f
 11784  1E46  0CF0               	rrf	___awdiv@divisor,f
 11785  1E47  0B89               	decfsz	9,f
 11786  1E48  2E45               	goto	u4205
 11787  1E49                     l3325:
 11788  1E49  3001               	movlw	1
 11789  1E4A  02F5               	subwf	___awdiv@counter,f
 11790  1E4B  1D03               	btfss	3,2
 11791  1E4C  2E4E               	goto	u4211
 11792  1E4D  2E4F               	goto	u4210
 11793  1E4E                     u4211:
 11794  1E4E  2E30               	goto	l3317
 11795  1E4F                     u4210:
 11796  1E4F                     l3327:
 11797  1E4F  0876               	movf	___awdiv@sign,w
 11798  1E50  1903               	btfsc	3,2
 11799  1E51  2E53               	goto	u4221
 11800  1E52  2E54               	goto	u4220
 11801  1E53                     u4221:
 11802  1E53  2E59               	goto	l3331
 11803  1E54                     u4220:
 11804  1E54                     l3329:
 11805  1E54  09F7               	comf	___awdiv@quotient,f
 11806  1E55  09F8               	comf	___awdiv@quotient+1,f
 11807  1E56  0AF7               	incf	___awdiv@quotient,f
 11808  1E57  1903               	skipnz
 11809  1E58  0AF8               	incf	___awdiv@quotient+1,f
 11810  1E59                     l3331:
 11811  1E59  0878               	movf	___awdiv@quotient+1,w
 11812  1E5A  00F1               	movwf	?___awdiv+1
 11813  1E5B  0877               	movf	___awdiv@quotient,w
 11814  1E5C  00F0               	movwf	?___awdiv
 11815  1E5D                     l563:
 11816  1E5D  0008               	return
 11817  1E5E                     __end_of___awdiv:
 11818                           
 11819                           	psect	text22
 11820  14DC                     __ptext22:	
 11821 ;; *************** function _dtoa *****************
 11822 ;; Defined at:
 11823 ;;		line 287 in file "C:\Program Files\Microchip\xc8\v2.31\pic\sources\c99\common\doprnt.c"
 11824 ;; Parameters:    Size  Location     Type
 11825 ;;  fp              1    wreg     PTR struct _IO_FILE
 11826 ;;		 -> sprintf@f(5), 
 11827 ;;  d               8   16[BANK0 ] long long 
 11828 ;; Auto vars:     Size  Location     Type
 11829 ;;  fp              1   29[BANK0 ] PTR struct _IO_FILE
 11830 ;;		 -> sprintf@f(5), 
 11831 ;;  n               8   36[BANK0 ] long long 
 11832 ;;  i               2   44[BANK0 ] int 
 11833 ;;  s               2   34[BANK0 ] int 
 11834 ;;  w               2   32[BANK0 ] int 
 11835 ;;  p               2   30[BANK0 ] int 
 11836 ;; Return value:  Size  Location     Type
 11837 ;;                  2   16[BANK0 ] int 
 11838 ;; Registers used:
 11839 ;;		wreg, fsr0l, fsr0h, fsr1l, fsr1h, status,2, status,0, pclath, cstack
 11840 ;; Tracked objects:
 11841 ;;		On entry : 0/0
 11842 ;;		On exit  : 0/0
 11843 ;;		Unchanged: 0/0
 11844 ;; Data sizes:     COMMON   BANK0   BANK1   BANK2   BANK3   BANK4   BANK5   BANK6   BANK7   BANK8   BANK9  BANK10  BANK1
      +1  BANK12  BANK13  BANK14  BANK15  BANK16  BANK17  BANK18  BANK19  BANK20  BANK21  BANK22  BANK23  BANK24  BANK25
 11845 ;;      Params:         0       8       0       0       0       0       0       0       0       0       0       0       
      +0       0       0       0       0       0       0       0       0       0       0       0       0       0       0
 11846 ;;      Locals:         0      19       0       0       0       0       0       0       0       0       0       0       
      +0       0       0       0       0       0       0       0       0       0       0       0       0       0       0
 11847 ;;      Temps:          0       3       0       0       0       0       0       0       0       0       0       0       
      +0       0       0       0       0       0       0       0       0       0       0       0       0       0       0
 11848 ;;      Totals:         0      30       0       0       0       0       0       0       0       0       0       0       
      +0       0       0       0       0       0       0       0       0       0       0       0       0       0       0
 11849 ;;Total ram usage:       30 bytes
 11850 ;; Hardware stack levels used:    1
 11851 ;; Hardware stack levels required when called:    4
 11852 ;; This function calls:
 11853 ;;		___aodiv
 11854 ;;		___aomod
 11855 ;;		_abs
 11856 ;;		_pad
 11857 ;; This function is called by:
 11858 ;;		_vfpfcnvrt
 11859 ;; This function uses a non-reentrant model
 11860 ;;
 11861                           
 11862                           
 11863                           ;psect for function _dtoa
 11864  14DC                     _dtoa:
 11865                           
 11866                           ;incstack = 0
 11867                           ; Regs used in _dtoa: [wreg-fsr1h+status,2+status,0+pclath+cstack]
 11868                           ;dtoa@fp stored from wreg
 11869  14DC  0020               	movlb	0	; select bank0
 11870  14DD  00BD               	movwf	dtoa@fp
 11871  14DE                     l3845:
 11872                           
 11873                           ;C:\Program Files\Microchip\xc8\v2.31\pic\sources\c99\common\doprnt.c: 287: static int d
      +                          toa(FILE *fp, long long d);C:\Program Files\Microchip\xc8\v2.31\pic\sources\c99\common\d
      +                          oprnt.c: 288: {;C:\Program Files\Microchip\xc8\v2.31\pic\sources\c99\common\doprnt.c: 28
      +                          9:     int i, p, s, w;;C:\Program Files\Microchip\xc8\v2.31\pic\sources\c99\common\doprn
      +                          t.c: 290:     long long n;;C:\Program Files\Microchip\xc8\v2.31\pic\sources\c99\common\d
      +                          oprnt.c: 293:     n = d;
 11874  14DE  0830               	movf	dtoa@d,w
 11875  14DF  00C4               	movwf	dtoa@n
 11876  14E0  0831               	movf	dtoa@d+1,w
 11877  14E1  00C5               	movwf	dtoa@n+1
 11878  14E2  0832               	movf	dtoa@d+2,w
 11879  14E3  00C6               	movwf	dtoa@n+2
 11880  14E4  0833               	movf	dtoa@d+3,w
 11881  14E5  00C7               	movwf	dtoa@n+3
 11882  14E6  0834               	movf	dtoa@d+4,w
 11883  14E7  00C8               	movwf	dtoa@n+4
 11884  14E8  0835               	movf	dtoa@d+5,w
 11885  14E9  00C9               	movwf	dtoa@n+5
 11886  14EA  0836               	movf	dtoa@d+6,w
 11887  14EB  00CA               	movwf	dtoa@n+6
 11888  14EC  0837               	movf	dtoa@d+7,w
 11889  14ED  00CB               	movwf	dtoa@n+7
 11890  14EE                     l3847:
 11891                           
 11892                           ;C:\Program Files\Microchip\xc8\v2.31\pic\sources\c99\common\doprnt.c: 294:     s = n < 
      +                          0 ? 1 : 0;
 11893  14EE  3044               	movlw	low dtoa@n
 11894  14EF  0086               	movwf	6
 11895  14F0  3000               	movlw	high dtoa@n
 11896  14F1  0087               	movwf	7
 11897  14F2  3F47               	moviw [7]fsr1
 11898  14F3  00B8               	movwf	??_dtoa
 11899  14F4  1BB8               	btfsc	??_dtoa,7
 11900  14F5  2CF7               	goto	u5381
 11901  14F6  2CF9               	goto	u5380
 11902  14F7                     u5381:
 11903  14F7  3001               	movlw	1
 11904  14F8  2CFA               	goto	u5390
 11905  14F9                     u5380:
 11906  14F9  3000               	movlw	0
 11907  14FA                     u5390:
 11908  14FA  0020               	movlb	0	; select bank0
 11909  14FB  00B9               	movwf	??_dtoa+1
 11910  14FC  01BA               	clrf	??_dtoa+2
 11911  14FD  0839               	movf	??_dtoa+1,w
 11912  14FE  00C2               	movwf	dtoa@s
 11913  14FF  083A               	movf	??_dtoa+2,w
 11914  1500  00C3               	movwf	dtoa@s+1
 11915  1501                     l3849:
 11916                           
 11917                           ;C:\Program Files\Microchip\xc8\v2.31\pic\sources\c99\common\doprnt.c: 295:     if (s) {
 11918  1501  0842               	movf	dtoa@s,w
 11919  1502  0443               	iorwf	dtoa@s+1,w
 11920  1503  1903               	btfsc	3,2
 11921  1504  2D06               	goto	u5401
 11922  1505  2D07               	goto	u5400
 11923  1506                     u5401:
 11924  1506  2D25               	goto	l924
 11925  1507                     u5400:
 11926  1507                     l3851:
 11927                           
 11928                           ;C:\Program Files\Microchip\xc8\v2.31\pic\sources\c99\common\doprnt.c: 296:         n = 
      +                          -n;
 11929  1507  09C4               	comf	dtoa@n,f
 11930  1508  09C5               	comf	dtoa@n+1,f
 11931  1509  09C6               	comf	dtoa@n+2,f
 11932  150A  09C7               	comf	dtoa@n+3,f
 11933  150B  09C8               	comf	dtoa@n+4,f
 11934  150C  09C9               	comf	dtoa@n+5,f
 11935  150D  09CA               	comf	dtoa@n+6,f
 11936  150E  09CB               	comf	dtoa@n+7,f
 11937  150F  0AC4               	incf	dtoa@n,f
 11938  1510  1D03               	skipz
 11939  1511  2D25               	goto	u541lld
 11940  1512  0AC5               	incf	dtoa@n+1,f
 11941  1513  1D03               	skipz
 11942  1514  2D25               	goto	u541lld
 11943  1515  0AC6               	incf	dtoa@n+2,f
 11944  1516  1D03               	skipz
 11945  1517  2D25               	goto	u541lld
 11946  1518  0AC7               	incf	dtoa@n+3,f
 11947  1519  1D03               	skipz
 11948  151A  2D25               	goto	u541lld
 11949  151B  0AC8               	incf	dtoa@n+4,f
 11950  151C  1D03               	skipz
 11951  151D  2D25               	goto	u541lld
 11952  151E  0AC9               	incf	dtoa@n+5,f
 11953  151F  1D03               	skipz
 11954  1520  2D25               	goto	u541lld
 11955  1521  0ACA               	incf	dtoa@n+6,f
 11956  1522  1D03               	skipz
 11957  1523  2D25               	goto	u541lld
 11958  1524  0ACB               	incf	dtoa@n+7,f
 11959  1525                     u541lld:
 11960  1525                     l924:	
 11961                           ;C:\Program Files\Microchip\xc8\v2.31\pic\sources\c99\common\doprnt.c: 297:     }
 11962                           
 11963                           
 11964                           ;C:\Program Files\Microchip\xc8\v2.31\pic\sources\c99\common\doprnt.c: 300:     if (!(pr
      +                          ec < 0)) {
 11965  1525  0021               	movlb	1	; select bank1
 11966  1526  1BED               	btfsc	(_prec+1)^(0+128),7
 11967  1527  2D29               	goto	u5421
 11968  1528  2D2A               	goto	u5420
 11969  1529                     u5421:
 11970  1529  2D2E               	goto	l925
 11971  152A                     u5420:
 11972  152A                     l3853:
 11973                           
 11974                           ;C:\Program Files\Microchip\xc8\v2.31\pic\sources\c99\common\doprnt.c: 301:         flag
      +                          s &= ~(1 << 1);
 11975  152A  30FD               	movlw	253
 11976  152B  05EE               	andwf	_flags^(0+128),f
 11977  152C  30FF               	movlw	255
 11978  152D  05EF               	andwf	(_flags+1)^(0+128),f
 11979  152E                     l925:	
 11980                           ;C:\Program Files\Microchip\xc8\v2.31\pic\sources\c99\common\doprnt.c: 302:     }
 11981                           
 11982                           
 11983                           ;C:\Program Files\Microchip\xc8\v2.31\pic\sources\c99\common\doprnt.c: 303:     p = (0 <
      +                           prec) ? prec : 1;
 11984  152E  086D               	movf	(_prec+1)^(0+128),w
 11985  152F  3A80               	xorlw	128
 11986  1530  0020               	movlb	0	; select bank0
 11987  1531  00B8               	movwf	??_dtoa
 11988  1532  3080               	movlw	128
 11989  1533  0238               	subwf	??_dtoa,w
 11990  1534  1D03               	skipz
 11991  1535  2D39               	goto	u5435
 11992  1536  3001               	movlw	1
 11993  1537  0021               	movlb	1	; select bank1
 11994  1538  026C               	subwf	_prec^(0+128),w
 11995  1539                     u5435:
 11996  1539  1803               	skipnc
 11997  153A  2D3C               	goto	u5431
 11998  153B  2D3D               	goto	u5430
 11999  153C                     u5431:
 12000  153C  2D43               	goto	l3857
 12001  153D                     u5430:
 12002  153D                     l3855:
 12003  153D  3001               	movlw	1
 12004  153E  0020               	movlb	0	; select bank0
 12005  153F  00BE               	movwf	dtoa@p
 12006  1540  3000               	movlw	0
 12007  1541  00BF               	movwf	dtoa@p+1
 12008  1542  2D4B               	goto	l929
 12009  1543                     l3857:
 12010  1543  0021               	movlb	1	; select bank1
 12011  1544  086D               	movf	(_prec+1)^(0+128),w
 12012  1545  0020               	movlb	0	; select bank0
 12013  1546  00BF               	movwf	dtoa@p+1
 12014  1547  0021               	movlb	1	; select bank1
 12015  1548  086C               	movf	_prec^(0+128),w
 12016  1549  0020               	movlb	0	; select bank0
 12017  154A  00BE               	movwf	dtoa@p
 12018  154B                     l929:
 12019                           
 12020                           ;C:\Program Files\Microchip\xc8\v2.31\pic\sources\c99\common\doprnt.c: 304:     w = widt
      +                          h;
 12021  154B  0022               	movlb	2	; select bank2
 12022  154C  085C               	movf	(_width+1)^(0+256),w
 12023  154D  0020               	movlb	0	; select bank0
 12024  154E  00C1               	movwf	dtoa@w+1
 12025  154F  0022               	movlb	2	; select bank2
 12026  1550  085B               	movf	_width^(0+256),w
 12027  1551  0020               	movlb	0	; select bank0
 12028  1552  00C0               	movwf	dtoa@w
 12029  1553                     l3859:
 12030                           
 12031                           ;C:\Program Files\Microchip\xc8\v2.31\pic\sources\c99\common\doprnt.c: 305:     if (s ||
      +                           (flags & (1 << 2))) {
 12032  1553  0842               	movf	dtoa@s,w
 12033  1554  0443               	iorwf	dtoa@s+1,w
 12034  1555  1D03               	btfss	3,2
 12035  1556  2D58               	goto	u5441
 12036  1557  2D59               	goto	u5440
 12037  1558                     u5441:
 12038  1558  2D5E               	goto	l3863
 12039  1559                     u5440:
 12040  1559                     l3861:
 12041  1559  0021               	movlb	1	; select bank1
 12042  155A  1D6E               	btfss	_flags^(0+128),2
 12043  155B  2D5D               	goto	u5451
 12044  155C  2D5E               	goto	u5450
 12045  155D                     u5451:
 12046  155D  2D63               	goto	l930
 12047  155E                     u5450:
 12048  155E                     l3863:
 12049                           
 12050                           ;C:\Program Files\Microchip\xc8\v2.31\pic\sources\c99\common\doprnt.c: 306:         --w;
 12051  155E  30FF               	movlw	255
 12052  155F  0020               	movlb	0	; select bank0
 12053  1560  07C0               	addwf	dtoa@w,f
 12054  1561  30FF               	movlw	255
 12055  1562  3DC1               	addwfc	dtoa@w+1,f
 12056  1563                     l930:	
 12057                           ;C:\Program Files\Microchip\xc8\v2.31\pic\sources\c99\common\doprnt.c: 307:     }
 12058                           
 12059                           
 12060                           ;C:\Program Files\Microchip\xc8\v2.31\pic\sources\c99\common\doprnt.c: 310:     i = size
      +                          of(dbuf) - 1;
 12061  1563  304F               	movlw	79
 12062  1564  0020               	movlb	0	; select bank0
 12063  1565  00CC               	movwf	dtoa@i
 12064  1566  3000               	movlw	0
 12065  1567  00CD               	movwf	dtoa@i+1
 12066  1568                     l3865:
 12067                           
 12068                           ;C:\Program Files\Microchip\xc8\v2.31\pic\sources\c99\common\doprnt.c: 311:     dbuf[i] 
      +                          = '\0';
 12069  1568  0023               	movlb	3	; select bank3
 12070  1569  01EF               	clrf	(_dbuf^(0+384)+79)
 12071                           
 12072                           ;C:\Program Files\Microchip\xc8\v2.31\pic\sources\c99\common\doprnt.c: 312:     while (!
      +                          (i < 1) && (n || (0 < p) || ((0 < w) && (flags & (1 << 1))))) {
 12073  156A  2DD4               	goto	l933
 12074  156B                     l3867:
 12075                           
 12076                           ;C:\Program Files\Microchip\xc8\v2.31\pic\sources\c99\common\doprnt.c: 313:         --i;
 12077  156B  30FF               	movlw	255
 12078  156C  0020               	movlb	0	; select bank0
 12079  156D  07CC               	addwf	dtoa@i,f
 12080  156E  30FF               	movlw	255
 12081  156F  3DCD               	addwfc	dtoa@i+1,f
 12082  1570                     l3869:
 12083                           
 12084                           ;C:\Program Files\Microchip\xc8\v2.31\pic\sources\c99\common\doprnt.c: 314:         dbuf
      +                          [i] = (char)((int)'0' + abs(n % 10));
 12085  1570  300A               	movlw	10
 12086  1571  00A0               	movwf	___aomod@divisor
 12087  1572  01A1               	clrf	___aomod@divisor+1
 12088  1573  01A2               	clrf	___aomod@divisor+2
 12089  1574  01A3               	clrf	___aomod@divisor+3
 12090  1575  01A4               	clrf	___aomod@divisor+4
 12091  1576  01A5               	clrf	___aomod@divisor+5
 12092  1577  01A6               	clrf	___aomod@divisor+6
 12093  1578  01A7               	clrf	___aomod@divisor+7
 12094  1579  0844               	movf	dtoa@n,w
 12095  157A  00A8               	movwf	___aomod@dividend
 12096  157B  0845               	movf	dtoa@n+1,w
 12097  157C  00A9               	movwf	___aomod@dividend+1
 12098  157D  0846               	movf	dtoa@n+2,w
 12099  157E  00AA               	movwf	___aomod@dividend+2
 12100  157F  0847               	movf	dtoa@n+3,w
 12101  1580  00AB               	movwf	___aomod@dividend+3
 12102  1581  0848               	movf	dtoa@n+4,w
 12103  1582  00AC               	movwf	___aomod@dividend+4
 12104  1583  0849               	movf	dtoa@n+5,w
 12105  1584  00AD               	movwf	___aomod@dividend+5
 12106  1585  084A               	movf	dtoa@n+6,w
 12107  1586  00AE               	movwf	___aomod@dividend+6
 12108  1587  084B               	movf	dtoa@n+7,w
 12109  1588  00AF               	movwf	___aomod@dividend+7
 12110  1589  3190  20AD  3194   	fcall	___aomod
 12111  158C  0020               	movlb	0	; select bank0
 12112  158D  0821               	movf	?___aomod+1,w
 12113  158E  00F4               	movwf	abs@a+1
 12114  158F  0820               	movf	?___aomod,w
 12115  1590  00F3               	movwf	abs@a
 12116  1591  319B  2306  3194   	fcall	_abs
 12117  1594  0873               	movf	?_abs,w
 12118  1595  3E30               	addlw	48
 12119  1596  0020               	movlb	0	; select bank0
 12120  1597  00B8               	movwf	??_dtoa
 12121  1598  084C               	movf	dtoa@i,w
 12122  1599  3EA0               	addlw	(low (_dbuf| (0+256)))& (0+255)
 12123  159A  0086               	movwf	6
 12124  159B  3001               	movlw	1	; select bank3/4
 12125  159C  0087               	movwf	7
 12126  159D  0838               	movf	??_dtoa,w
 12127  159E  0081               	movwf	1
 12128  159F                     l3871:
 12129                           
 12130                           ;C:\Program Files\Microchip\xc8\v2.31\pic\sources\c99\common\doprnt.c: 315:         --p;
 12131  159F  30FF               	movlw	255
 12132  15A0  07BE               	addwf	dtoa@p,f
 12133  15A1  30FF               	movlw	255
 12134  15A2  3DBF               	addwfc	dtoa@p+1,f
 12135  15A3                     l3873:
 12136                           
 12137                           ;C:\Program Files\Microchip\xc8\v2.31\pic\sources\c99\common\doprnt.c: 316:         --w;
 12138  15A3  30FF               	movlw	255
 12139  15A4  07C0               	addwf	dtoa@w,f
 12140  15A5  30FF               	movlw	255
 12141  15A6  3DC1               	addwfc	dtoa@w+1,f
 12142  15A7                     l3875:
 12143                           
 12144                           ;C:\Program Files\Microchip\xc8\v2.31\pic\sources\c99\common\doprnt.c: 317:         n = 
      +                          n / 10;
 12145  15A7  300A               	movlw	10
 12146  15A8  00A0               	movwf	___aodiv@divisor
 12147  15A9  01A1               	clrf	___aodiv@divisor+1
 12148  15AA  01A2               	clrf	___aodiv@divisor+2
 12149  15AB  01A3               	clrf	___aodiv@divisor+3
 12150  15AC  01A4               	clrf	___aodiv@divisor+4
 12151  15AD  01A5               	clrf	___aodiv@divisor+5
 12152  15AE  01A6               	clrf	___aodiv@divisor+6
 12153  15AF  01A7               	clrf	___aodiv@divisor+7
 12154  15B0  0844               	movf	dtoa@n,w
 12155  15B1  00A8               	movwf	___aodiv@dividend
 12156  15B2  0845               	movf	dtoa@n+1,w
 12157  15B3  00A9               	movwf	___aodiv@dividend+1
 12158  15B4  0846               	movf	dtoa@n+2,w
 12159  15B5  00AA               	movwf	___aodiv@dividend+2
 12160  15B6  0847               	movf	dtoa@n+3,w
 12161  15B7  00AB               	movwf	___aodiv@dividend+3
 12162  15B8  0848               	movf	dtoa@n+4,w
 12163  15B9  00AC               	movwf	___aodiv@dividend+4
 12164  15BA  0849               	movf	dtoa@n+5,w
 12165  15BB  00AD               	movwf	___aodiv@dividend+5
 12166  15BC  084A               	movf	dtoa@n+6,w
 12167  15BD  00AE               	movwf	___aodiv@dividend+6
 12168  15BE  084B               	movf	dtoa@n+7,w
 12169  15BF  00AF               	movwf	___aodiv@dividend+7
 12170  15C0  3192  2282  3194   	fcall	___aodiv
 12171  15C3  0020               	movlb	0	; select bank0
 12172  15C4  0820               	movf	?___aodiv,w
 12173  15C5  00C4               	movwf	dtoa@n
 12174  15C6  0821               	movf	?___aodiv+1,w
 12175  15C7  00C5               	movwf	dtoa@n+1
 12176  15C8  0822               	movf	?___aodiv+2,w
 12177  15C9  00C6               	movwf	dtoa@n+2
 12178  15CA  0823               	movf	?___aodiv+3,w
 12179  15CB  00C7               	movwf	dtoa@n+3
 12180  15CC  0824               	movf	?___aodiv+4,w
 12181  15CD  00C8               	movwf	dtoa@n+4
 12182  15CE  0825               	movf	?___aodiv+5,w
 12183  15CF  00C9               	movwf	dtoa@n+5
 12184  15D0  0826               	movf	?___aodiv+6,w
 12185  15D1  00CA               	movwf	dtoa@n+6
 12186  15D2  0827               	movf	?___aodiv+7,w
 12187  15D3  00CB               	movwf	dtoa@n+7
 12188  15D4                     l933:	
 12189                           ;C:\Program Files\Microchip\xc8\v2.31\pic\sources\c99\common\doprnt.c: 318:     }
 12190                           
 12191                           
 12192                           ;C:\Program Files\Microchip\xc8\v2.31\pic\sources\c99\common\doprnt.c: 312:     while (!
      +                          (i < 1) && (n || (0 < p) || ((0 < w) && (flags & (1 << 1))))) {
 12193  15D4  0020               	movlb	0	; select bank0
 12194  15D5  084D               	movf	dtoa@i+1,w
 12195  15D6  3A80               	xorlw	128
 12196  15D7  00B8               	movwf	??_dtoa
 12197  15D8  3080               	movlw	128
 12198  15D9  0238               	subwf	??_dtoa,w
 12199  15DA  1D03               	skipz
 12200  15DB  2DDE               	goto	u5465
 12201  15DC  3001               	movlw	1
 12202  15DD  024C               	subwf	dtoa@i,w
 12203  15DE                     u5465:
 12204  15DE  1C03               	skipc
 12205  15DF  2DE1               	goto	u5461
 12206  15E0  2DE2               	goto	u5460
 12207  15E1                     u5461:
 12208  15E1  2E0F               	goto	l3885
 12209  15E2                     u5460:
 12210  15E2                     l3877:
 12211  15E2  0020               	movlb	0	; select bank0
 12212  15E3  0844               	movf	dtoa@n,w
 12213  15E4  0445               	iorwf	dtoa@n+1,w
 12214  15E5  0446               	iorwf	dtoa@n+2,w
 12215  15E6  0447               	iorwf	dtoa@n+3,w
 12216  15E7  0448               	iorwf	dtoa@n+4,w
 12217  15E8  0449               	iorwf	dtoa@n+5,w
 12218  15E9  044A               	iorwf	dtoa@n+6,w
 12219  15EA  044B               	iorwf	dtoa@n+7,w
 12220  15EB  1D03               	skipz
 12221  15EC  2DEE               	goto	u5471
 12222  15ED  2DEF               	goto	u5470
 12223  15EE                     u5471:
 12224  15EE  2D6B               	goto	l3867
 12225  15EF                     u5470:
 12226  15EF                     l3879:
 12227  15EF  083F               	movf	dtoa@p+1,w
 12228  15F0  3A80               	xorlw	128
 12229  15F1  00B8               	movwf	??_dtoa
 12230  15F2  3080               	movlw	128
 12231  15F3  0238               	subwf	??_dtoa,w
 12232  15F4  1D03               	skipz
 12233  15F5  2DF8               	goto	u5485
 12234  15F6  3001               	movlw	1
 12235  15F7  023E               	subwf	dtoa@p,w
 12236  15F8                     u5485:
 12237  15F8  1803               	skipnc
 12238  15F9  2DFB               	goto	u5481
 12239  15FA  2DFC               	goto	u5480
 12240  15FB                     u5481:
 12241  15FB  2D6B               	goto	l3867
 12242  15FC                     u5480:
 12243  15FC                     l3881:
 12244  15FC  0020               	movlb	0	; select bank0
 12245  15FD  0841               	movf	dtoa@w+1,w
 12246  15FE  3A80               	xorlw	128
 12247  15FF  00B8               	movwf	??_dtoa
 12248  1600  3080               	movlw	128
 12249  1601  0238               	subwf	??_dtoa,w
 12250  1602  1D03               	skipz
 12251  1603  2E06               	goto	u5495
 12252  1604  3001               	movlw	1
 12253  1605  0240               	subwf	dtoa@w,w
 12254  1606                     u5495:
 12255  1606  1C03               	skipc
 12256  1607  2E09               	goto	u5491
 12257  1608  2E0A               	goto	u5490
 12258  1609                     u5491:
 12259  1609  2E0F               	goto	l3885
 12260  160A                     u5490:
 12261  160A                     l3883:
 12262  160A  0021               	movlb	1	; select bank1
 12263  160B  18EE               	btfsc	_flags^(0+128),1
 12264  160C  2E0E               	goto	u5501
 12265  160D  2E0F               	goto	u5500
 12266  160E                     u5501:
 12267  160E  2D6B               	goto	l3867
 12268  160F                     u5500:
 12269  160F                     l3885:
 12270                           
 12271                           ;C:\Program Files\Microchip\xc8\v2.31\pic\sources\c99\common\doprnt.c: 321:     if (s ||
      +                           (flags & (1 << 2))) {
 12272  160F  0020               	movlb	0	; select bank0
 12273  1610  0842               	movf	dtoa@s,w
 12274  1611  0443               	iorwf	dtoa@s+1,w
 12275  1612  1D03               	btfss	3,2
 12276  1613  2E15               	goto	u5511
 12277  1614  2E16               	goto	u5510
 12278  1615                     u5511:
 12279  1615  2E1B               	goto	l3889
 12280  1616                     u5510:
 12281  1616                     l3887:
 12282  1616  0021               	movlb	1	; select bank1
 12283  1617  1D6E               	btfss	_flags^(0+128),2
 12284  1618  2E1A               	goto	u5521
 12285  1619  2E1B               	goto	u5520
 12286  161A                     u5521:
 12287  161A  2E38               	goto	l3899
 12288  161B                     u5520:
 12289  161B                     l3889:
 12290                           
 12291                           ;C:\Program Files\Microchip\xc8\v2.31\pic\sources\c99\common\doprnt.c: 322:         --i;
 12292  161B  30FF               	movlw	255
 12293  161C  0020               	movlb	0	; select bank0
 12294  161D  07CC               	addwf	dtoa@i,f
 12295  161E  30FF               	movlw	255
 12296  161F  3DCD               	addwfc	dtoa@i+1,f
 12297  1620                     l3891:
 12298                           
 12299                           ;C:\Program Files\Microchip\xc8\v2.31\pic\sources\c99\common\doprnt.c: 323:         dbuf
      +                          [i] = s ? '-' : '+';
 12300  1620  0842               	movf	dtoa@s,w
 12301  1621  0443               	iorwf	dtoa@s+1,w
 12302  1622  1D03               	btfss	3,2
 12303  1623  2E25               	goto	u5531
 12304  1624  2E26               	goto	u5530
 12305  1625                     u5531:
 12306  1625  2E2B               	goto	l3895
 12307  1626                     u5530:
 12308  1626                     l3893:
 12309  1626  302B               	movlw	43
 12310  1627  00BB               	movwf	_dtoa$955
 12311  1628  3000               	movlw	0
 12312  1629  00BC               	movwf	_dtoa$955+1
 12313  162A  2E2F               	goto	l3897
 12314  162B                     l3895:
 12315  162B  302D               	movlw	45
 12316  162C  00BB               	movwf	_dtoa$955
 12317  162D  3000               	movlw	0
 12318  162E  00BC               	movwf	_dtoa$955+1
 12319  162F                     l3897:
 12320  162F  083B               	movf	_dtoa$955,w
 12321  1630  00B8               	movwf	??_dtoa
 12322  1631  084C               	movf	dtoa@i,w
 12323  1632  3EA0               	addlw	(low (_dbuf| (0+256)))& (0+255)
 12324  1633  0086               	movwf	6
 12325  1634  3001               	movlw	1	; select bank3/4
 12326  1635  0087               	movwf	7
 12327  1636  0838               	movf	??_dtoa,w
 12328  1637  0081               	movwf	1
 12329  1638                     l3899:
 12330                           
 12331                           ;C:\Program Files\Microchip\xc8\v2.31\pic\sources\c99\common\doprnt.c: 327:     return p
      +                          ad(fp, &dbuf[i], w);
 12332  1638  0020               	movlb	0	; select bank0
 12333  1639  084C               	movf	dtoa@i,w
 12334  163A  3EA0               	addlw	(low (_dbuf| (0+256)))& (0+255)
 12335  163B  00B8               	movwf	??_dtoa
 12336  163C  0838               	movf	??_dtoa,w
 12337  163D  00A4               	movwf	pad@buf
 12338  163E  0841               	movf	dtoa@w+1,w
 12339  163F  00A6               	movwf	pad@p+1
 12340  1640  0840               	movf	dtoa@w,w
 12341  1641  00A5               	movwf	pad@p
 12342  1642  083D               	movf	dtoa@fp,w
 12343  1643  3188  2003  3194   	fcall	_pad
 12344  1646  0020               	movlb	0	; select bank0
 12345  1647  0825               	movf	?_pad+1,w
 12346  1648  00B1               	movwf	?_dtoa+1
 12347  1649  0824               	movf	?_pad,w
 12348  164A  00B0               	movwf	?_dtoa
 12349  164B                     l947:
 12350  164B  0008               	return
 12351  164C                     __end_of_dtoa:
 12352                           
 12353                           	psect	text23
 12354  0803                     __ptext23:	
 12355 ;; *************** function _pad *****************
 12356 ;; Defined at:
 12357 ;;		line 72 in file "C:\Program Files\Microchip\xc8\v2.31\pic\sources\c99\common\doprnt.c"
 12358 ;; Parameters:    Size  Location     Type
 12359 ;;  fp              1    wreg     PTR struct _IO_FILE
 12360 ;;		 -> sprintf@f(5), 
 12361 ;;  buf             1    4[BANK0 ] PTR unsigned char 
 12362 ;;		 -> dbuf(80), 
 12363 ;;  p               2    5[BANK0 ] int 
 12364 ;; Auto vars:     Size  Location     Type
 12365 ;;  fp              1   11[BANK0 ] PTR struct _IO_FILE
 12366 ;;		 -> sprintf@f(5), 
 12367 ;;  w               2    9[BANK0 ] int 
 12368 ;;  i               2    7[BANK0 ] int 
 12369 ;; Return value:  Size  Location     Type
 12370 ;;                  2    4[BANK0 ] int 
 12371 ;; Registers used:
 12372 ;;		wreg, fsr0l, fsr0h, fsr1l, fsr1h, status,2, status,0, pclath, cstack
 12373 ;; Tracked objects:
 12374 ;;		On entry : 0/0
 12375 ;;		On exit  : 0/0
 12376 ;;		Unchanged: 0/0
 12377 ;; Data sizes:     COMMON   BANK0   BANK1   BANK2   BANK3   BANK4   BANK5   BANK6   BANK7   BANK8   BANK9  BANK10  BANK1
      +1  BANK12  BANK13  BANK14  BANK15  BANK16  BANK17  BANK18  BANK19  BANK20  BANK21  BANK22  BANK23  BANK24  BANK25
 12378 ;;      Params:         0       3       0       0       0       0       0       0       0       0       0       0       
      +0       0       0       0       0       0       0       0       0       0       0       0       0       0       0
 12379 ;;      Locals:         0       5       0       0       0       0       0       0       0       0       0       0       
      +0       0       0       0       0       0       0       0       0       0       0       0       0       0       0
 12380 ;;      Temps:          1       0       0       0       0       0       0       0       0       0       0       0       
      +0       0       0       0       0       0       0       0       0       0       0       0       0       0       0
 12381 ;;      Totals:         1       8       0       0       0       0       0       0       0       0       0       0       
      +0       0       0       0       0       0       0       0       0       0       0       0       0       0       0
 12382 ;;Total ram usage:        9 bytes
 12383 ;; Hardware stack levels used:    1
 12384 ;; Hardware stack levels required when called:    3
 12385 ;; This function calls:
 12386 ;;		_fputc
 12387 ;;		_fputs
 12388 ;;		_strlen
 12389 ;; This function is called by:
 12390 ;;		_dtoa
 12391 ;;		_efgtoa
 12392 ;; This function uses a non-reentrant model
 12393 ;;
 12394                           
 12395                           
 12396                           ;psect for function _pad
 12397  0803                     _pad:
 12398                           
 12399                           ;incstack = 0
 12400                           ; Regs used in _pad: [wreg-fsr1h+status,2+status,0+pclath+cstack]
 12401                           ;pad@fp stored from wreg
 12402  0803  0020               	movlb	0	; select bank0
 12403  0804  00AB               	movwf	pad@fp
 12404  0805                     l3735:
 12405                           
 12406                           ;C:\Program Files\Microchip\xc8\v2.31\pic\sources\c99\common\doprnt.c: 72: static int pa
      +                          d(FILE *fp, char *buf, int p);C:\Program Files\Microchip\xc8\v2.31\pic\sources\c99\commo
      +                          n\doprnt.c: 73: {;C:\Program Files\Microchip\xc8\v2.31\pic\sources\c99\common\doprnt.c: 
      +                          74:     int i, w;;C:\Program Files\Microchip\xc8\v2.31\pic\sources\c99\common\doprnt.c: 
      +                          77:     if (flags & (1 << 0)) {
 12407  0805  0021               	movlb	1	; select bank1
 12408  0806  1C6E               	btfss	_flags^(0+128),0
 12409  0807  2809               	goto	u5061
 12410  0808  280A               	goto	u5060
 12411  0809                     u5061:
 12412  0809  2813               	goto	l3739
 12413  080A                     u5060:
 12414  080A                     l3737:
 12415                           
 12416                           ;C:\Program Files\Microchip\xc8\v2.31\pic\sources\c99\common\doprnt.c: 78:         fputs
      +                          ((const char *)buf, fp);
 12417  080A  0020               	movlb	0	; select bank0
 12418  080B  082B               	movf	pad@fp,w
 12419  080C  00FC               	movwf	??_pad
 12420  080D  087C               	movf	??_pad,w
 12421  080E  00F8               	movwf	fputs@fp
 12422  080F  0824               	movf	pad@buf,w
 12423  0810  319C  2428  3188   	fcall	_fputs
 12424  0813                     l3739:
 12425                           
 12426                           ;C:\Program Files\Microchip\xc8\v2.31\pic\sources\c99\common\doprnt.c: 82:     w = (p < 
      +                          0) ? 0 : p;
 12427  0813  0020               	movlb	0	; select bank0
 12428  0814  1BA6               	btfsc	pad@p+1,7
 12429  0815  2817               	goto	u5071
 12430  0816  2818               	goto	u5070
 12431  0817                     u5071:
 12432  0817  281D               	goto	l3743
 12433  0818                     u5070:
 12434  0818                     l3741:
 12435  0818  0826               	movf	pad@p+1,w
 12436  0819  00AA               	movwf	pad@w+1
 12437  081A  0825               	movf	pad@p,w
 12438  081B  00A9               	movwf	pad@w
 12439  081C  281F               	goto	l916
 12440  081D                     l3743:
 12441  081D  01A9               	clrf	pad@w
 12442  081E  01AA               	clrf	pad@w+1
 12443  081F                     l916:
 12444                           
 12445                           ;C:\Program Files\Microchip\xc8\v2.31\pic\sources\c99\common\doprnt.c: 83:     i = 0;
 12446  081F  01A7               	clrf	pad@i
 12447  0820  01A8               	clrf	pad@i+1
 12448                           
 12449                           ;C:\Program Files\Microchip\xc8\v2.31\pic\sources\c99\common\doprnt.c: 84:     while (i 
      +                          < w) {
 12450  0821  2833               	goto	l3749
 12451  0822                     l3745:
 12452                           
 12453                           ;C:\Program Files\Microchip\xc8\v2.31\pic\sources\c99\common\doprnt.c: 85:         fputc
      +                          (' ', fp);
 12454  0822  3020               	movlw	32
 12455  0823  00F0               	movwf	fputc@c
 12456  0824  3000               	movlw	0
 12457  0825  00F1               	movwf	fputc@c+1
 12458  0826  0020               	movlb	0	; select bank0
 12459  0827  082B               	movf	pad@fp,w
 12460  0828  00FC               	movwf	??_pad
 12461  0829  087C               	movf	??_pad,w
 12462  082A  00F2               	movwf	fputc@fp
 12463  082B  319D  2551  3188   	fcall	_fputc
 12464  082E                     l3747:
 12465                           
 12466                           ;C:\Program Files\Microchip\xc8\v2.31\pic\sources\c99\common\doprnt.c: 86:         ++i;
 12467  082E  3001               	movlw	1
 12468  082F  0020               	movlb	0	; select bank0
 12469  0830  07A7               	addwf	pad@i,f
 12470  0831  3000               	movlw	0
 12471  0832  3DA8               	addwfc	pad@i+1,f
 12472  0833                     l3749:
 12473                           
 12474                           ;C:\Program Files\Microchip\xc8\v2.31\pic\sources\c99\common\doprnt.c: 84:     while (i 
      +                          < w) {
 12475  0833  0828               	movf	pad@i+1,w
 12476  0834  3A80               	xorlw	128
 12477  0835  00FC               	movwf	??_pad
 12478  0836  082A               	movf	pad@w+1,w
 12479  0837  3A80               	xorlw	128
 12480  0838  027C               	subwf	??_pad,w
 12481  0839  1D03               	skipz
 12482  083A  283D               	goto	u5085
 12483  083B  0829               	movf	pad@w,w
 12484  083C  0227               	subwf	pad@i,w
 12485  083D                     u5085:
 12486  083D  1C03               	skipc
 12487  083E  2840               	goto	u5081
 12488  083F  2841               	goto	u5080
 12489  0840                     u5081:
 12490  0840  2822               	goto	l3745
 12491  0841                     u5080:
 12492  0841                     l919:
 12493                           
 12494                           ;C:\Program Files\Microchip\xc8\v2.31\pic\sources\c99\common\doprnt.c: 90:     if (!(fla
      +                          gs & (1 << 0))) {
 12495  0841  0021               	movlb	1	; select bank1
 12496  0842  186E               	btfsc	_flags^(0+128),0
 12497  0843  2845               	goto	u5091
 12498  0844  2846               	goto	u5090
 12499  0845                     u5091:
 12500  0845  284F               	goto	l3753
 12501  0846                     u5090:
 12502  0846                     l3751:
 12503                           
 12504                           ;C:\Program Files\Microchip\xc8\v2.31\pic\sources\c99\common\doprnt.c: 91:         fputs
      +                          ((const char *)buf, fp);
 12505  0846  0020               	movlb	0	; select bank0
 12506  0847  082B               	movf	pad@fp,w
 12507  0848  00FC               	movwf	??_pad
 12508  0849  087C               	movf	??_pad,w
 12509  084A  00F8               	movwf	fputs@fp
 12510  084B  0824               	movf	pad@buf,w
 12511  084C  319C  2428  3188   	fcall	_fputs
 12512  084F                     l3753:
 12513                           
 12514                           ;C:\Program Files\Microchip\xc8\v2.31\pic\sources\c99\common\doprnt.c: 94:     return (i
      +                          nt)(strlen(buf) + (size_t)w);
 12515  084F  0020               	movlb	0	; select bank0
 12516  0850  0824               	movf	pad@buf,w
 12517  0851  319B  2320  3188   	fcall	_strlen
 12518  0854  0020               	movlb	0	; select bank0
 12519  0855  0829               	movf	pad@w,w
 12520  0856  0770               	addwf	?_strlen,w
 12521  0857  00A4               	movwf	?_pad
 12522  0858  082A               	movf	pad@w+1,w
 12523  0859  3D71               	addwfc	?_strlen+1,w
 12524  085A  00A5               	movwf	?_pad+1
 12525  085B                     l921:
 12526  085B  0008               	return
 12527  085C                     __end_of_pad:
 12528                           
 12529                           	psect	text24
 12530  1B20                     __ptext24:	
 12531 ;; *************** function _strlen *****************
 12532 ;; Defined at:
 12533 ;;		line 5 in file "C:\Program Files\Microchip\xc8\v2.31\pic\sources\c99\common\strlen.c"
 12534 ;; Parameters:    Size  Location     Type
 12535 ;;  s               1    wreg     PTR const unsigned char 
 12536 ;;		 -> dbuf(80), 
 12537 ;; Auto vars:     Size  Location     Type
 12538 ;;  s               1    4[COMMON] PTR const unsigned char 
 12539 ;;		 -> dbuf(80), 
 12540 ;;  a               1    3[COMMON] PTR const unsigned char 
 12541 ;;		 -> dbuf(80), 
 12542 ;; Return value:  Size  Location     Type
 12543 ;;                  2    0[COMMON] unsigned int 
 12544 ;; Registers used:
 12545 ;;		wreg, fsr1l, fsr1h, status,2, status,0
 12546 ;; Tracked objects:
 12547 ;;		On entry : 0/0
 12548 ;;		On exit  : 0/0
 12549 ;;		Unchanged: 0/0
 12550 ;; Data sizes:     COMMON   BANK0   BANK1   BANK2   BANK3   BANK4   BANK5   BANK6   BANK7   BANK8   BANK9  BANK10  BANK1
      +1  BANK12  BANK13  BANK14  BANK15  BANK16  BANK17  BANK18  BANK19  BANK20  BANK21  BANK22  BANK23  BANK24  BANK25
 12551 ;;      Params:         2       0       0       0       0       0       0       0       0       0       0       0       
      +0       0       0       0       0       0       0       0       0       0       0       0       0       0       0
 12552 ;;      Locals:         2       0       0       0       0       0       0       0       0       0       0       0       
      +0       0       0       0       0       0       0       0       0       0       0       0       0       0       0
 12553 ;;      Temps:          1       0       0       0       0       0       0       0       0       0       0       0       
      +0       0       0       0       0       0       0       0       0       0       0       0       0       0       0
 12554 ;;      Totals:         5       0       0       0       0       0       0       0       0       0       0       0       
      +0       0       0       0       0       0       0       0       0       0       0       0       0       0       0
 12555 ;;Total ram usage:        5 bytes
 12556 ;; Hardware stack levels used:    1
 12557 ;; This function calls:
 12558 ;;		Nothing
 12559 ;; This function is called by:
 12560 ;;		_pad
 12561 ;; This function uses a non-reentrant model
 12562 ;;
 12563                           
 12564                           
 12565                           ;psect for function _strlen
 12566  1B20                     _strlen:
 12567                           
 12568                           ;incstack = 0
 12569                           ; Regs used in _strlen: [wreg+fsr1l+fsr1h+status,2+status,0]
 12570                           ;strlen@s stored from wreg
 12571  1B20  00F4               	movwf	strlen@s
 12572  1B21                     l3195:
 12573  1B21  0874               	movf	strlen@s,w
 12574  1B22  00F2               	movwf	??_strlen
 12575  1B23  0872               	movf	??_strlen,w
 12576  1B24  00F3               	movwf	strlen@a
 12577  1B25  2B2A               	goto	l3199
 12578  1B26                     l3197:
 12579  1B26  3001               	movlw	1
 12580  1B27  00F2               	movwf	??_strlen
 12581  1B28  0872               	movf	??_strlen,w
 12582  1B29  07F4               	addwf	strlen@s,f
 12583  1B2A                     l3199:
 12584  1B2A  0874               	movf	strlen@s,w
 12585  1B2B  0086               	movwf	6
 12586  1B2C  3001               	movlw	1	; select bank2/3
 12587  1B2D  0087               	movwf	7
 12588  1B2E  0801               	movf	1,w
 12589  1B2F  1D03               	btfss	3,2
 12590  1B30  2B32               	goto	u3851
 12591  1B31  2B33               	goto	u3850
 12592  1B32                     u3851:
 12593  1B32  2B26               	goto	l3197
 12594  1B33                     u3850:
 12595  1B33                     l3201:
 12596  1B33  0873               	movf	strlen@a,w
 12597  1B34  0274               	subwf	strlen@s,w
 12598  1B35  00F0               	movwf	?_strlen
 12599  1B36  01F1               	clrf	?_strlen+1
 12600  1B37  1BF0               	btfsc	?_strlen,7
 12601  1B38  03F1               	decf	?_strlen+1,f
 12602  1B39                     l1201:
 12603  1B39  0008               	return
 12604  1B3A                     __end_of_strlen:
 12605                           
 12606                           	psect	text25
 12607  1C28                     __ptext25:	
 12608 ;; *************** function _fputs *****************
 12609 ;; Defined at:
 12610 ;;		line 8 in file "C:\Program Files\Microchip\xc8\v2.31\pic\sources\c99\common\nf_fputs.c"
 12611 ;; Parameters:    Size  Location     Type
 12612 ;;  s               1    wreg     PTR const unsigned char 
 12613 ;;		 -> dbuf(80), 
 12614 ;;  fp              1    8[COMMON] PTR struct _IO_FILE
 12615 ;;		 -> sprintf@f(5), 
 12616 ;; Auto vars:     Size  Location     Type
 12617 ;;  s               1    3[BANK0 ] PTR const unsigned char 
 12618 ;;		 -> dbuf(80), 
 12619 ;;  i               2    1[BANK0 ] int 
 12620 ;;  c               1    0[BANK0 ] unsigned char 
 12621 ;; Return value:  Size  Location     Type
 12622 ;;                  2    8[COMMON] int 
 12623 ;; Registers used:
 12624 ;;		wreg, fsr0l, fsr0h, fsr1l, fsr1h, status,2, status,0, pclath, cstack
 12625 ;; Tracked objects:
 12626 ;;		On entry : 0/0
 12627 ;;		On exit  : 0/0
 12628 ;;		Unchanged: 0/0
 12629 ;; Data sizes:     COMMON   BANK0   BANK1   BANK2   BANK3   BANK4   BANK5   BANK6   BANK7   BANK8   BANK9  BANK10  BANK1
      +1  BANK12  BANK13  BANK14  BANK15  BANK16  BANK17  BANK18  BANK19  BANK20  BANK21  BANK22  BANK23  BANK24  BANK25
 12630 ;;      Params:         1       0       0       0       0       0       0       0       0       0       0       0       
      +0       0       0       0       0       0       0       0       0       0       0       0       0       0       0
 12631 ;;      Locals:         0       4       0       0       0       0       0       0       0       0       0       0       
      +0       0       0       0       0       0       0       0       0       0       0       0       0       0       0
 12632 ;;      Temps:          3       0       0       0       0       0       0       0       0       0       0       0       
      +0       0       0       0       0       0       0       0       0       0       0       0       0       0       0
 12633 ;;      Totals:         4       4       0       0       0       0       0       0       0       0       0       0       
      +0       0       0       0       0       0       0       0       0       0       0       0       0       0       0
 12634 ;;Total ram usage:        8 bytes
 12635 ;; Hardware stack levels used:    1
 12636 ;; Hardware stack levels required when called:    2
 12637 ;; This function calls:
 12638 ;;		_fputc
 12639 ;; This function is called by:
 12640 ;;		_pad
 12641 ;; This function uses a non-reentrant model
 12642 ;;
 12643                           
 12644                           
 12645                           ;psect for function _fputs
 12646  1C28                     _fputs:
 12647                           
 12648                           ;incstack = 0
 12649                           ; Regs used in _fputs: [wreg-fsr1h+status,2+status,0+pclath+cstack]
 12650                           ;fputs@s stored from wreg
 12651  1C28  0020               	movlb	0	; select bank0
 12652  1C29  00A3               	movwf	fputs@s
 12653  1C2A                     l3187:
 12654  1C2A  01A1               	clrf	fputs@i
 12655  1C2B  01A2               	clrf	fputs@i+1
 12656  1C2C  2C40               	goto	l3193
 12657  1C2D                     l3189:
 12658  1C2D  0820               	movf	fputs@c,w
 12659  1C2E  00F9               	movwf	??_fputs
 12660  1C2F  01FA               	clrf	??_fputs+1
 12661  1C30  0879               	movf	??_fputs,w
 12662  1C31  00F0               	movwf	fputc@c
 12663  1C32  087A               	movf	??_fputs+1,w
 12664  1C33  00F1               	movwf	fputc@c+1
 12665  1C34  0878               	movf	fputs@fp,w
 12666  1C35  00FB               	movwf	??_fputs+2
 12667  1C36  087B               	movf	??_fputs+2,w
 12668  1C37  00F2               	movwf	fputc@fp
 12669  1C38  319D  2551  319C   	fcall	_fputc
 12670  1C3B                     l3191:
 12671  1C3B  3001               	movlw	1
 12672  1C3C  0020               	movlb	0	; select bank0
 12673  1C3D  07A1               	addwf	fputs@i,f
 12674  1C3E  3000               	movlw	0
 12675  1C3F  3DA2               	addwfc	fputs@i+1,f
 12676  1C40                     l3193:
 12677  1C40  0821               	movf	fputs@i,w
 12678  1C41  0723               	addwf	fputs@s,w
 12679  1C42  00F9               	movwf	??_fputs
 12680  1C43  0879               	movf	??_fputs,w
 12681  1C44  0086               	movwf	6
 12682  1C45  3001               	movlw	1	; select bank2/3
 12683  1C46  0087               	movwf	7
 12684  1C47  0801               	movf	1,w
 12685  1C48  00FA               	movwf	??_fputs+1
 12686  1C49  087A               	movf	??_fputs+1,w
 12687  1C4A  00A0               	movwf	fputs@c
 12688  1C4B  0820               	movf	fputs@c,w
 12689  1C4C  1D03               	btfss	3,2
 12690  1C4D  2C4F               	goto	u3841
 12691  1C4E  2C50               	goto	u3840
 12692  1C4F                     u3841:
 12693  1C4F  2C2D               	goto	l3189
 12694  1C50                     u3840:
 12695  1C50                     l1186:
 12696  1C50  0008               	return
 12697  1C51                     __end_of_fputs:
 12698                           
 12699                           	psect	text26
 12700  1D51                     __ptext26:	
 12701 ;; *************** function _fputc *****************
 12702 ;; Defined at:
 12703 ;;		line 8 in file "C:\Program Files\Microchip\xc8\v2.31\pic\sources\c99\common\nf_fputc.c"
 12704 ;; Parameters:    Size  Location     Type
 12705 ;;  c               2    0[COMMON] int 
 12706 ;;  fp              1    2[COMMON] PTR struct _IO_FILE
 12707 ;;		 -> sprintf@f(5), 
 12708 ;; Auto vars:     Size  Location     Type
 12709 ;;		None
 12710 ;; Return value:  Size  Location     Type
 12711 ;;                  2    0[COMMON] int 
 12712 ;; Registers used:
 12713 ;;		wreg, fsr0l, fsr0h, fsr1l, fsr1h, status,2, status,0, pclath, cstack
 12714 ;; Tracked objects:
 12715 ;;		On entry : 0/0
 12716 ;;		On exit  : 0/0
 12717 ;;		Unchanged: 0/0
 12718 ;; Data sizes:     COMMON   BANK0   BANK1   BANK2   BANK3   BANK4   BANK5   BANK6   BANK7   BANK8   BANK9  BANK10  BANK1
      +1  BANK12  BANK13  BANK14  BANK15  BANK16  BANK17  BANK18  BANK19  BANK20  BANK21  BANK22  BANK23  BANK24  BANK25
 12719 ;;      Params:         3       0       0       0       0       0       0       0       0       0       0       0       
      +0       0       0       0       0       0       0       0       0       0       0       0       0       0       0
 12720 ;;      Locals:         0       0       0       0       0       0       0       0       0       0       0       0       
      +0       0       0       0       0       0       0       0       0       0       0       0       0       0       0
 12721 ;;      Temps:          5       0       0       0       0       0       0       0       0       0       0       0       
      +0       0       0       0       0       0       0       0       0       0       0       0       0       0       0
 12722 ;;      Totals:         8       0       0       0       0       0       0       0       0       0       0       0       
      +0       0       0       0       0       0       0       0       0       0       0       0       0       0       0
 12723 ;;Total ram usage:        8 bytes
 12724 ;; Hardware stack levels used:    1
 12725 ;; Hardware stack levels required when called:    1
 12726 ;; This function calls:
 12727 ;;		_putch
 12728 ;; This function is called by:
 12729 ;;		_pad
 12730 ;;		_vfpfcnvrt
 12731 ;;		_fputs
 12732 ;; This function uses a non-reentrant model
 12733 ;;
 12734                           
 12735                           
 12736                           ;psect for function _fputc
 12737  1D51                     _fputc:
 12738  1D51                     l2963:	
 12739                           ;incstack = 0
 12740                           ; Regs used in _fputc: [wreg-fsr1h+status,2+status,0+pclath+cstack]
 12741                           
 12742  1D51  0872               	movf	fputc@fp,w
 12743  1D52  1903               	btfsc	3,2
 12744  1D53  2D55               	goto	u3341
 12745  1D54  2D56               	goto	u3340
 12746  1D55                     u3341:
 12747  1D55  2D5B               	goto	l2967
 12748  1D56                     u3340:
 12749  1D56                     l2965:
 12750  1D56  0872               	movf	fputc@fp,w
 12751  1D57  1D03               	btfss	3,2
 12752  1D58  2D5A               	goto	u3351
 12753  1D59  2D5B               	goto	u3350
 12754  1D5A                     u3351:
 12755  1D5A  2D60               	goto	l2969
 12756  1D5B                     u3350:
 12757  1D5B                     l2967:
 12758  1D5B  0870               	movf	fputc@c,w
 12759  1D5C  3188  2002  319D   	fcall	_putch
 12760  1D5F  2DA6               	goto	l1178
 12761  1D60                     l2969:
 12762  1D60  0872               	movf	fputc@fp,w
 12763  1D61  3E03               	addlw	3
 12764  1D62  0086               	movwf	6
 12765  1D63  3001               	movlw	1	; select bank2/3
 12766  1D64  0087               	movwf	7
 12767  1D65  0016               	moviw fsr1++
 12768  1D66  0401               	iorwf	1,w
 12769  1D67  1903               	btfsc	3,2
 12770  1D68  2D6A               	goto	u3361
 12771  1D69  2D6B               	goto	u3360
 12772  1D6A                     u3361:
 12773  1D6A  2D8A               	goto	l2973
 12774  1D6B                     u3360:
 12775  1D6B                     l2971:
 12776  1D6B  0872               	movf	fputc@fp,w
 12777  1D6C  3E03               	addlw	3
 12778  1D6D  0086               	movwf	6
 12779  1D6E  3001               	movlw	1	; select bank2/3
 12780  1D6F  0087               	movwf	7
 12781  1D70  3F40               	moviw [0]fsr1
 12782  1D71  00F3               	movwf	??_fputc
 12783  1D72  3F41               	moviw [1]fsr1
 12784  1D73  00F4               	movwf	??_fputc+1
 12785  1D74  0A72               	incf	fputc@fp,w
 12786  1D75  0086               	movwf	6
 12787  1D76  3001               	movlw	1	; select bank2/3
 12788  1D77  0087               	movwf	7
 12789  1D78  3F40               	moviw [0]fsr1
 12790  1D79  00F5               	movwf	??_fputc+2
 12791  1D7A  3F41               	moviw [1]fsr1
 12792  1D7B  00F6               	movwf	??_fputc+3
 12793  1D7C  0876               	movf	??_fputc+3,w
 12794  1D7D  3A80               	xorlw	128
 12795  1D7E  00F7               	movwf	??_fputc+4
 12796  1D7F  0874               	movf	??_fputc+1,w
 12797  1D80  3A80               	xorlw	128
 12798  1D81  0277               	subwf	??_fputc+4,w
 12799  1D82  1D03               	skipz
 12800  1D83  2D86               	goto	u3375
 12801  1D84  0873               	movf	??_fputc,w
 12802  1D85  0275               	subwf	??_fputc+2,w
 12803  1D86                     u3375:
 12804  1D86  1803               	skipnc
 12805  1D87  2D89               	goto	u3371
 12806  1D88  2D8A               	goto	u3370
 12807  1D89                     u3371:
 12808  1D89  2DA6               	goto	l1178
 12809  1D8A                     u3370:
 12810  1D8A                     l2973:
 12811  1D8A  0870               	movf	fputc@c,w
 12812  1D8B  00F3               	movwf	??_fputc
 12813  1D8C  0872               	movf	fputc@fp,w
 12814  1D8D  0086               	movwf	6
 12815  1D8E  3001               	movlw	1	; select bank2/3
 12816  1D8F  0087               	movwf	7
 12817  1D90  0A72               	incf	fputc@fp,w
 12818  1D91  0084               	movwf	4
 12819  1D92  3001               	movlw	1	; select bank2/3
 12820  1D93  0085               	movwf	5
 12821  1D94  0800               	movf	0,w
 12822  1D95  0701               	addwf	1,w
 12823  1D96  00F4               	movwf	??_fputc+1
 12824  1D97  0874               	movf	??_fputc+1,w
 12825  1D98  0086               	movwf	6
 12826  1D99  3001               	movlw	1	; select bank2/3
 12827  1D9A  0087               	movwf	7
 12828  1D9B  0873               	movf	??_fputc,w
 12829  1D9C  0081               	movwf	1
 12830  1D9D                     l2975:
 12831  1D9D  0A72               	incf	fputc@fp,w
 12832  1D9E  0086               	movwf	6
 12833  1D9F  3001               	movlw	1	; select bank2/3
 12834  1DA0  0087               	movwf	7
 12835  1DA1  3001               	movlw	1
 12836  1DA2  0781               	addwf	1,f
 12837  1DA3  3141               	addfsr 1,1
 12838  1DA4  1803               	skipnc
 12839  1DA5  0A81               	incf	1,f
 12840  1DA6                     l1178:
 12841  1DA6  0008               	return
 12842  1DA7                     __end_of_fputc:
 12843                           
 12844                           	psect	text27
 12845  0802                     __ptext27:	
 12846 ;; *************** function _putch *****************
 12847 ;; Defined at:
 12848 ;;		line 7 in file "C:\Program Files\Microchip\xc8\v2.31\pic\sources\c99\common\putch.c"
 12849 ;; Parameters:    Size  Location     Type
 12850 ;;  c               1    wreg     unsigned char 
 12851 ;; Auto vars:     Size  Location     Type
 12852 ;;  c               1    0[COMMON] unsigned char 
 12853 ;; Return value:  Size  Location     Type
 12854 ;;                  1    wreg      void 
 12855 ;; Registers used:
 12856 ;;		wreg
 12857 ;; Tracked objects:
 12858 ;;		On entry : 0/0
 12859 ;;		On exit  : 0/0
 12860 ;;		Unchanged: 0/0
 12861 ;; Data sizes:     COMMON   BANK0   BANK1   BANK2   BANK3   BANK4   BANK5   BANK6   BANK7   BANK8   BANK9  BANK10  BANK1
      +1  BANK12  BANK13  BANK14  BANK15  BANK16  BANK17  BANK18  BANK19  BANK20  BANK21  BANK22  BANK23  BANK24  BANK25
 12862 ;;      Params:         0       0       0       0       0       0       0       0       0       0       0       0       
      +0       0       0       0       0       0       0       0       0       0       0       0       0       0       0
 12863 ;;      Locals:         0       0       0       0       0       0       0       0       0       0       0       0       
      +0       0       0       0       0       0       0       0       0       0       0       0       0       0       0
 12864 ;;      Temps:          0       0       0       0       0       0       0       0       0       0       0       0       
      +0       0       0       0       0       0       0       0       0       0       0       0       0       0       0
 12865 ;;      Totals:         0       0       0       0       0       0       0       0       0       0       0       0       
      +0       0       0       0       0       0       0       0       0       0       0       0       0       0       0
 12866 ;;Total ram usage:        0 bytes
 12867 ;; Hardware stack levels used:    1
 12868 ;; This function calls:
 12869 ;;		Nothing
 12870 ;; This function is called by:
 12871 ;;		_fputc
 12872 ;; This function uses a non-reentrant model
 12873 ;;
 12874                           
 12875                           
 12876                           ;psect for function _putch
 12877  0802                     _putch:
 12878  0802                     l1189:	
 12879                           ;incstack = 0
 12880                           ; Regs used in _putch: [wreg]
 12881                           
 12882  0802  0008               	return
 12883  0803                     __end_of_putch:
 12884                           
 12885                           	psect	text28
 12886  1B06                     __ptext28:	
 12887 ;; *************** function _abs *****************
 12888 ;; Defined at:
 12889 ;;		line 1 in file "C:\Program Files\Microchip\xc8\v2.31\pic\sources\c99\common\abs.c"
 12890 ;; Parameters:    Size  Location     Type
 12891 ;;  a               2    3[COMMON] int 
 12892 ;; Auto vars:     Size  Location     Type
 12893 ;;		None
 12894 ;; Return value:  Size  Location     Type
 12895 ;;                  2    3[COMMON] int 
 12896 ;; Registers used:
 12897 ;;		wreg, status,2, status,0
 12898 ;; Tracked objects:
 12899 ;;		On entry : 0/0
 12900 ;;		On exit  : 0/0
 12901 ;;		Unchanged: 0/0
 12902 ;; Data sizes:     COMMON   BANK0   BANK1   BANK2   BANK3   BANK4   BANK5   BANK6   BANK7   BANK8   BANK9  BANK10  BANK1
      +1  BANK12  BANK13  BANK14  BANK15  BANK16  BANK17  BANK18  BANK19  BANK20  BANK21  BANK22  BANK23  BANK24  BANK25
 12903 ;;      Params:         2       0       0       0       0       0       0       0       0       0       0       0       
      +0       0       0       0       0       0       0       0       0       0       0       0       0       0       0
 12904 ;;      Locals:         0       0       0       0       0       0       0       0       0       0       0       0       
      +0       0       0       0       0       0       0       0       0       0       0       0       0       0       0
 12905 ;;      Temps:          2       0       0       0       0       0       0       0       0       0       0       0       
      +0       0       0       0       0       0       0       0       0       0       0       0       0       0       0
 12906 ;;      Totals:         4       0       0       0       0       0       0       0       0       0       0       0       
      +0       0       0       0       0       0       0       0       0       0       0       0       0       0       0
 12907 ;;Total ram usage:        4 bytes
 12908 ;; Hardware stack levels used:    1
 12909 ;; This function calls:
 12910 ;;		Nothing
 12911 ;; This function is called by:
 12912 ;;		_dtoa
 12913 ;; This function uses a non-reentrant model
 12914 ;;
 12915                           
 12916                           
 12917                           ;psect for function _abs
 12918  1B06                     _abs:
 12919  1B06                     l3757:	
 12920                           ;incstack = 0
 12921                           ; Regs used in _abs: [wreg+status,2+status,0]
 12922                           
 12923  1B06  0874               	movf	abs@a+1,w
 12924  1B07  3A80               	xorlw	128
 12925  1B08  00F5               	movwf	??_abs
 12926  1B09  3080               	movlw	128
 12927  1B0A  0275               	subwf	??_abs,w
 12928  1B0B  1D03               	skipz
 12929  1B0C  2B0F               	goto	u5105
 12930  1B0D  3001               	movlw	1
 12931  1B0E  0273               	subwf	abs@a,w
 12932  1B0F                     u5105:
 12933  1B0F  1803               	skipnc
 12934  1B10  2B12               	goto	u5101
 12935  1B11  2B13               	goto	u5100
 12936  1B12                     u5101:
 12937  1B12  2B1F               	goto	l1099
 12938  1B13                     u5100:
 12939  1B13                     l3759:
 12940  1B13  0973               	comf	abs@a,w
 12941  1B14  00F5               	movwf	??_abs
 12942  1B15  0974               	comf	abs@a+1,w
 12943  1B16  00F6               	movwf	??_abs+1
 12944  1B17  0AF5               	incf	??_abs,f
 12945  1B18  1903               	skipnz
 12946  1B19  0AF6               	incf	??_abs+1,f
 12947  1B1A  0875               	movf	??_abs,w
 12948  1B1B  00F3               	movwf	?_abs
 12949  1B1C  0876               	movf	??_abs+1,w
 12950  1B1D  00F4               	movwf	?_abs+1
 12951  1B1E  2B1F               	goto	l1102
 12952  1B1F                     l1099:
 12953  1B1F                     l1102:
 12954  1B1F  0008               	return
 12955  1B20                     __end_of_abs:
 12956                           
 12957                           	psect	text29
 12958  10AD                     __ptext29:	
 12959 ;; *************** function ___aomod *****************
 12960 ;; Defined at:
 12961 ;;		line 7 in file "C:\Program Files\Microchip\xc8\v2.31\pic\sources\c99\common\aomod.c"
 12962 ;; Parameters:    Size  Location     Type
 12963 ;;  divisor         8    0[BANK0 ] long long 
 12964 ;;  dividend        8    8[BANK0 ] long long 
 12965 ;; Auto vars:     Size  Location     Type
 12966 ;;  sign            1    2[COMMON] unsigned char 
 12967 ;;  counter         1    1[COMMON] unsigned char 
 12968 ;; Return value:  Size  Location     Type
 12969 ;;                  8    0[BANK0 ] long long 
 12970 ;; Registers used:
 12971 ;;		wreg, fsr1l, fsr1h, status,2, status,0
 12972 ;; Tracked objects:
 12973 ;;		On entry : 0/0
 12974 ;;		On exit  : 0/0
 12975 ;;		Unchanged: 0/0
 12976 ;; Data sizes:     COMMON   BANK0   BANK1   BANK2   BANK3   BANK4   BANK5   BANK6   BANK7   BANK8   BANK9  BANK10  BANK1
      +1  BANK12  BANK13  BANK14  BANK15  BANK16  BANK17  BANK18  BANK19  BANK20  BANK21  BANK22  BANK23  BANK24  BANK25
 12977 ;;      Params:         0      16       0       0       0       0       0       0       0       0       0       0       
      +0       0       0       0       0       0       0       0       0       0       0       0       0       0       0
 12978 ;;      Locals:         2       0       0       0       0       0       0       0       0       0       0       0       
      +0       0       0       0       0       0       0       0       0       0       0       0       0       0       0
 12979 ;;      Temps:          1       0       0       0       0       0       0       0       0       0       0       0       
      +0       0       0       0       0       0       0       0       0       0       0       0       0       0       0
 12980 ;;      Totals:         3      16       0       0       0       0       0       0       0       0       0       0       
      +0       0       0       0       0       0       0       0       0       0       0       0       0       0       0
 12981 ;;Total ram usage:       19 bytes
 12982 ;; Hardware stack levels used:    1
 12983 ;; This function calls:
 12984 ;;		Nothing
 12985 ;; This function is called by:
 12986 ;;		_dtoa
 12987 ;; This function uses a non-reentrant model
 12988 ;;
 12989                           
 12990                           
 12991                           ;psect for function ___aomod
 12992  10AD                     ___aomod:
 12993  10AD                     l3261:	
 12994                           ;incstack = 0
 12995                           ; Regs used in ___aomod: [wreg+fsr1l+fsr1h+status,2+status,0]
 12996                           
 12997  10AD  01F2               	clrf	___aomod@sign
 12998  10AE                     l3263:
 12999  10AE  3028               	movlw	low ___aomod@dividend
 13000  10AF  0086               	movwf	6
 13001  10B0  3000               	movlw	high ___aomod@dividend
 13002  10B1  0087               	movwf	7
 13003  10B2  3F47               	moviw [7]fsr1
 13004  10B3  00F0               	movwf	??___aomod
 13005  10B4  1FF0               	btfss	??___aomod,7
 13006  10B5  28B7               	goto	u4031
 13007  10B6  28B8               	goto	u4030
 13008  10B7                     u4031:
 13009  10B7  28D9               	goto	l3267
 13010  10B8                     u4030:
 13011  10B8                     l3265:
 13012  10B8  0020               	movlb	0	; select bank0
 13013  10B9  09A8               	comf	___aomod@dividend,f
 13014  10BA  09A9               	comf	___aomod@dividend+1,f
 13015  10BB  09AA               	comf	___aomod@dividend+2,f
 13016  10BC  09AB               	comf	___aomod@dividend+3,f
 13017  10BD  09AC               	comf	___aomod@dividend+4,f
 13018  10BE  09AD               	comf	___aomod@dividend+5,f
 13019  10BF  09AE               	comf	___aomod@dividend+6,f
 13020  10C0  09AF               	comf	___aomod@dividend+7,f
 13021  10C1  0AA8               	incf	___aomod@dividend,f
 13022  10C2  1D03               	skipz
 13023  10C3  28D7               	goto	u404lld
 13024  10C4  0AA9               	incf	___aomod@dividend+1,f
 13025  10C5  1D03               	skipz
 13026  10C6  28D7               	goto	u404lld
 13027  10C7  0AAA               	incf	___aomod@dividend+2,f
 13028  10C8  1D03               	skipz
 13029  10C9  28D7               	goto	u404lld
 13030  10CA  0AAB               	incf	___aomod@dividend+3,f
 13031  10CB  1D03               	skipz
 13032  10CC  28D7               	goto	u404lld
 13033  10CD  0AAC               	incf	___aomod@dividend+4,f
 13034  10CE  1D03               	skipz
 13035  10CF  28D7               	goto	u404lld
 13036  10D0  0AAD               	incf	___aomod@dividend+5,f
 13037  10D1  1D03               	skipz
 13038  10D2  28D7               	goto	u404lld
 13039  10D3  0AAE               	incf	___aomod@dividend+6,f
 13040  10D4  1D03               	skipz
 13041  10D5  28D7               	goto	u404lld
 13042  10D6  0AAF               	incf	___aomod@dividend+7,f
 13043  10D7                     u404lld:
 13044  10D7  01F2               	clrf	___aomod@sign
 13045  10D8  0AF2               	incf	___aomod@sign,f
 13046  10D9                     l3267:
 13047  10D9  3020               	movlw	low ___aomod@divisor
 13048  10DA  0086               	movwf	6
 13049  10DB  3000               	movlw	high ___aomod@divisor
 13050  10DC  0087               	movwf	7
 13051  10DD  3F47               	moviw [7]fsr1
 13052  10DE  00F0               	movwf	??___aomod
 13053  10DF  1FF0               	btfss	??___aomod,7
 13054  10E0  28E2               	goto	u4051
 13055  10E1  28E3               	goto	u4050
 13056  10E2                     u4051:
 13057  10E2  2902               	goto	l3271
 13058  10E3                     u4050:
 13059  10E3                     l3269:
 13060  10E3  0020               	movlb	0	; select bank0
 13061  10E4  09A0               	comf	___aomod@divisor,f
 13062  10E5  09A1               	comf	___aomod@divisor+1,f
 13063  10E6  09A2               	comf	___aomod@divisor+2,f
 13064  10E7  09A3               	comf	___aomod@divisor+3,f
 13065  10E8  09A4               	comf	___aomod@divisor+4,f
 13066  10E9  09A5               	comf	___aomod@divisor+5,f
 13067  10EA  09A6               	comf	___aomod@divisor+6,f
 13068  10EB  09A7               	comf	___aomod@divisor+7,f
 13069  10EC  0AA0               	incf	___aomod@divisor,f
 13070  10ED  1D03               	skipz
 13071  10EE  2902               	goto	u406lld
 13072  10EF  0AA1               	incf	___aomod@divisor+1,f
 13073  10F0  1D03               	skipz
 13074  10F1  2902               	goto	u406lld
 13075  10F2  0AA2               	incf	___aomod@divisor+2,f
 13076  10F3  1D03               	skipz
 13077  10F4  2902               	goto	u406lld
 13078  10F5  0AA3               	incf	___aomod@divisor+3,f
 13079  10F6  1D03               	skipz
 13080  10F7  2902               	goto	u406lld
 13081  10F8  0AA4               	incf	___aomod@divisor+4,f
 13082  10F9  1D03               	skipz
 13083  10FA  2902               	goto	u406lld
 13084  10FB  0AA5               	incf	___aomod@divisor+5,f
 13085  10FC  1D03               	skipz
 13086  10FD  2902               	goto	u406lld
 13087  10FE  0AA6               	incf	___aomod@divisor+6,f
 13088  10FF  1D03               	skipz
 13089  1100  2902               	goto	u406lld
 13090  1101  0AA7               	incf	___aomod@divisor+7,f
 13091  1102                     u406lld:
 13092  1102                     l3271:
 13093  1102  0020               	movlb	0	; select bank0
 13094  1103  0820               	movf	___aomod@divisor,w
 13095  1104  0421               	iorwf	___aomod@divisor+1,w
 13096  1105  0422               	iorwf	___aomod@divisor+2,w
 13097  1106  0423               	iorwf	___aomod@divisor+3,w
 13098  1107  0424               	iorwf	___aomod@divisor+4,w
 13099  1108  0425               	iorwf	___aomod@divisor+5,w
 13100  1109  0426               	iorwf	___aomod@divisor+6,w
 13101  110A  0427               	iorwf	___aomod@divisor+7,w
 13102  110B  1903               	skipnz
 13103  110C  290E               	goto	u4071
 13104  110D  290F               	goto	u4070
 13105  110E                     u4071:
 13106  110E  2962               	goto	l3287
 13107  110F                     u4070:
 13108  110F                     l3273:
 13109  110F  01F1               	clrf	___aomod@counter
 13110  1110  0AF1               	incf	___aomod@counter,f
 13111  1111  291E               	goto	l3279
 13112  1112                     l3275:
 13113  1112  35A0               	lslf	___aomod@divisor,f
 13114  1113  0DA1               	rlf	___aomod@divisor+1,f
 13115  1114  0DA2               	rlf	___aomod@divisor+2,f
 13116  1115  0DA3               	rlf	___aomod@divisor+3,f
 13117  1116  0DA4               	rlf	___aomod@divisor+4,f
 13118  1117  0DA5               	rlf	___aomod@divisor+5,f
 13119  1118  0DA6               	rlf	___aomod@divisor+6,f
 13120  1119  0DA7               	rlf	___aomod@divisor+7,f
 13121  111A                     l3277:
 13122  111A  3001               	movlw	1
 13123  111B  00F0               	movwf	??___aomod
 13124  111C  0870               	movf	??___aomod,w
 13125  111D  07F1               	addwf	___aomod@counter,f
 13126  111E                     l3279:
 13127  111E  1FA7               	btfss	___aomod@divisor+7,7
 13128  111F  2921               	goto	u4081
 13129  1120  2922               	goto	u4080
 13130  1121                     u4081:
 13131  1121  2912               	goto	l3275
 13132  1122                     u4080:
 13133  1122                     l3281:
 13134  1122  0827               	movf	___aomod@divisor+7,w
 13135  1123  022F               	subwf	___aomod@dividend+7,w
 13136  1124  1D03               	skipz
 13137  1125  2940               	goto	u4095
 13138  1126  0826               	movf	___aomod@divisor+6,w
 13139  1127  022E               	subwf	___aomod@dividend+6,w
 13140  1128  1D03               	skipz
 13141  1129  2940               	goto	u4095
 13142  112A  0825               	movf	___aomod@divisor+5,w
 13143  112B  022D               	subwf	___aomod@dividend+5,w
 13144  112C  1D03               	skipz
 13145  112D  2940               	goto	u4095
 13146  112E  0824               	movf	___aomod@divisor+4,w
 13147  112F  022C               	subwf	___aomod@dividend+4,w
 13148  1130  1D03               	skipz
 13149  1131  2940               	goto	u4095
 13150  1132  0823               	movf	___aomod@divisor+3,w
 13151  1133  022B               	subwf	___aomod@dividend+3,w
 13152  1134  1D03               	skipz
 13153  1135  2940               	goto	u4095
 13154  1136  0822               	movf	___aomod@divisor+2,w
 13155  1137  022A               	subwf	___aomod@dividend+2,w
 13156  1138  1D03               	skipz
 13157  1139  2940               	goto	u4095
 13158  113A  0821               	movf	___aomod@divisor+1,w
 13159  113B  0229               	subwf	___aomod@dividend+1,w
 13160  113C  1D03               	skipz
 13161  113D  2940               	goto	u4095
 13162  113E  0820               	movf	___aomod@divisor,w
 13163  113F  0228               	subwf	___aomod@dividend,w
 13164  1140                     u4095:
 13165  1140  1C03               	skipc
 13166  1141  2943               	goto	u4091
 13167  1142  2944               	goto	u4090
 13168  1143                     u4091:
 13169  1143  2954               	goto	l3285
 13170  1144                     u4090:
 13171  1144                     l3283:
 13172  1144  0820               	movf	___aomod@divisor,w
 13173  1145  02A8               	subwf	___aomod@dividend,f
 13174  1146  0821               	movf	___aomod@divisor+1,w
 13175  1147  3BA9               	subwfb	___aomod@dividend+1,f
 13176  1148  0822               	movf	___aomod@divisor+2,w
 13177  1149  3BAA               	subwfb	___aomod@dividend+2,f
 13178  114A  0823               	movf	___aomod@divisor+3,w
 13179  114B  3BAB               	subwfb	___aomod@dividend+3,f
 13180  114C  0824               	movf	___aomod@divisor+4,w
 13181  114D  3BAC               	subwfb	___aomod@dividend+4,f
 13182  114E  0825               	movf	___aomod@divisor+5,w
 13183  114F  3BAD               	subwfb	___aomod@dividend+5,f
 13184  1150  0826               	movf	___aomod@divisor+6,w
 13185  1151  3BAE               	subwfb	___aomod@dividend+6,f
 13186  1152  0827               	movf	___aomod@divisor+7,w
 13187  1153  3BAF               	subwfb	___aomod@dividend+7,f
 13188  1154                     l3285:
 13189  1154  36A7               	lsrf	___aomod@divisor+7,f
 13190  1155  0CA6               	rrf	___aomod@divisor+6,f
 13191  1156  0CA5               	rrf	___aomod@divisor+5,f
 13192  1157  0CA4               	rrf	___aomod@divisor+4,f
 13193  1158  0CA3               	rrf	___aomod@divisor+3,f
 13194  1159  0CA2               	rrf	___aomod@divisor+2,f
 13195  115A  0CA1               	rrf	___aomod@divisor+1,f
 13196  115B  0CA0               	rrf	___aomod@divisor,f
 13197  115C  3001               	movlw	1
 13198  115D  02F1               	subwf	___aomod@counter,f
 13199  115E  1D03               	btfss	3,2
 13200  115F  2961               	goto	u4101
 13201  1160  2962               	goto	u4100
 13202  1161                     u4101:
 13203  1161  2922               	goto	l3281
 13204  1162                     u4100:
 13205  1162                     l3287:
 13206  1162  0872               	movf	___aomod@sign,w
 13207  1163  1903               	btfsc	3,2
 13208  1164  2966               	goto	u4111
 13209  1165  2967               	goto	u4110
 13210  1166                     u4111:
 13211  1166  2985               	goto	l523
 13212  1167                     u4110:
 13213  1167                     l3289:
 13214  1167  09A8               	comf	___aomod@dividend,f
 13215  1168  09A9               	comf	___aomod@dividend+1,f
 13216  1169  09AA               	comf	___aomod@dividend+2,f
 13217  116A  09AB               	comf	___aomod@dividend+3,f
 13218  116B  09AC               	comf	___aomod@dividend+4,f
 13219  116C  09AD               	comf	___aomod@dividend+5,f
 13220  116D  09AE               	comf	___aomod@dividend+6,f
 13221  116E  09AF               	comf	___aomod@dividend+7,f
 13222  116F  0AA8               	incf	___aomod@dividend,f
 13223  1170  1D03               	skipz
 13224  1171  2985               	goto	u412lld
 13225  1172  0AA9               	incf	___aomod@dividend+1,f
 13226  1173  1D03               	skipz
 13227  1174  2985               	goto	u412lld
 13228  1175  0AAA               	incf	___aomod@dividend+2,f
 13229  1176  1D03               	skipz
 13230  1177  2985               	goto	u412lld
 13231  1178  0AAB               	incf	___aomod@dividend+3,f
 13232  1179  1D03               	skipz
 13233  117A  2985               	goto	u412lld
 13234  117B  0AAC               	incf	___aomod@dividend+4,f
 13235  117C  1D03               	skipz
 13236  117D  2985               	goto	u412lld
 13237  117E  0AAD               	incf	___aomod@dividend+5,f
 13238  117F  1D03               	skipz
 13239  1180  2985               	goto	u412lld
 13240  1181  0AAE               	incf	___aomod@dividend+6,f
 13241  1182  1D03               	skipz
 13242  1183  2985               	goto	u412lld
 13243  1184  0AAF               	incf	___aomod@dividend+7,f
 13244  1185                     u412lld:
 13245  1185                     l523:
 13246  1185  0020               	movlb	0	; select bank0
 13247  1186  0828               	movf	___aomod@dividend,w
 13248  1187  00A0               	movwf	?___aomod
 13249  1188  0829               	movf	___aomod@dividend+1,w
 13250  1189  00A1               	movwf	?___aomod+1
 13251  118A  082A               	movf	___aomod@dividend+2,w
 13252  118B  00A2               	movwf	?___aomod+2
 13253  118C  082B               	movf	___aomod@dividend+3,w
 13254  118D  00A3               	movwf	?___aomod+3
 13255  118E  082C               	movf	___aomod@dividend+4,w
 13256  118F  00A4               	movwf	?___aomod+4
 13257  1190  082D               	movf	___aomod@dividend+5,w
 13258  1191  00A5               	movwf	?___aomod+5
 13259  1192  082E               	movf	___aomod@dividend+6,w
 13260  1193  00A6               	movwf	?___aomod+6
 13261  1194  082F               	movf	___aomod@dividend+7,w
 13262  1195  00A7               	movwf	?___aomod+7
 13263  1196                     l524:
 13264  1196  0008               	return
 13265  1197                     __end_of___aomod:
 13266                           
 13267                           	psect	text30
 13268  1282                     __ptext30:	
 13269 ;; *************** function ___aodiv *****************
 13270 ;; Defined at:
 13271 ;;		line 7 in file "C:\Program Files\Microchip\xc8\v2.31\pic\sources\c99\common\aodiv.c"
 13272 ;; Parameters:    Size  Location     Type
 13273 ;;  divisor         8    0[BANK0 ] long long 
 13274 ;;  dividend        8    8[BANK0 ] long long 
 13275 ;; Auto vars:     Size  Location     Type
 13276 ;;  quotient        8    3[COMMON] long long 
 13277 ;;  sign            1    2[COMMON] unsigned char 
 13278 ;;  counter         1    1[COMMON] unsigned char 
 13279 ;; Return value:  Size  Location     Type
 13280 ;;                  8    0[BANK0 ] long long 
 13281 ;; Registers used:
 13282 ;;		wreg, fsr1l, fsr1h, status,2, status,0
 13283 ;; Tracked objects:
 13284 ;;		On entry : 0/0
 13285 ;;		On exit  : 0/0
 13286 ;;		Unchanged: 0/0
 13287 ;; Data sizes:     COMMON   BANK0   BANK1   BANK2   BANK3   BANK4   BANK5   BANK6   BANK7   BANK8   BANK9  BANK10  BANK1
      +1  BANK12  BANK13  BANK14  BANK15  BANK16  BANK17  BANK18  BANK19  BANK20  BANK21  BANK22  BANK23  BANK24  BANK25
 13288 ;;      Params:         0      16       0       0       0       0       0       0       0       0       0       0       
      +0       0       0       0       0       0       0       0       0       0       0       0       0       0       0
 13289 ;;      Locals:        10       0       0       0       0       0       0       0       0       0       0       0       
      +0       0       0       0       0       0       0       0       0       0       0       0       0       0       0
 13290 ;;      Temps:          1       0       0       0       0       0       0       0       0       0       0       0       
      +0       0       0       0       0       0       0       0       0       0       0       0       0       0       0
 13291 ;;      Totals:        11      16       0       0       0       0       0       0       0       0       0       0       
      +0       0       0       0       0       0       0       0       0       0       0       0       0       0       0
 13292 ;;Total ram usage:       27 bytes
 13293 ;; Hardware stack levels used:    1
 13294 ;; This function calls:
 13295 ;;		Nothing
 13296 ;; This function is called by:
 13297 ;;		_dtoa
 13298 ;; This function uses a non-reentrant model
 13299 ;;
 13300                           
 13301                           
 13302                           ;psect for function ___aodiv
 13303  1282                     ___aodiv:
 13304  1282                     l3223:	
 13305                           ;incstack = 0
 13306                           ; Regs used in ___aodiv: [wreg+fsr1l+fsr1h+status,2+status,0]
 13307                           
 13308  1282  01F2               	clrf	___aodiv@sign
 13309  1283                     l3225:
 13310  1283  3020               	movlw	low ___aodiv@divisor
 13311  1284  0086               	movwf	6
 13312  1285  3000               	movlw	high ___aodiv@divisor
 13313  1286  0087               	movwf	7
 13314  1287  3F47               	moviw [7]fsr1
 13315  1288  00F0               	movwf	??___aodiv
 13316  1289  1FF0               	btfss	??___aodiv,7
 13317  128A  2A8C               	goto	u3921
 13318  128B  2A8D               	goto	u3920
 13319  128C                     u3921:
 13320  128C  2AAE               	goto	l3229
 13321  128D                     u3920:
 13322  128D                     l3227:
 13323  128D  0020               	movlb	0	; select bank0
 13324  128E  09A0               	comf	___aodiv@divisor,f
 13325  128F  09A1               	comf	___aodiv@divisor+1,f
 13326  1290  09A2               	comf	___aodiv@divisor+2,f
 13327  1291  09A3               	comf	___aodiv@divisor+3,f
 13328  1292  09A4               	comf	___aodiv@divisor+4,f
 13329  1293  09A5               	comf	___aodiv@divisor+5,f
 13330  1294  09A6               	comf	___aodiv@divisor+6,f
 13331  1295  09A7               	comf	___aodiv@divisor+7,f
 13332  1296  0AA0               	incf	___aodiv@divisor,f
 13333  1297  1D03               	skipz
 13334  1298  2AAC               	goto	u393lld
 13335  1299  0AA1               	incf	___aodiv@divisor+1,f
 13336  129A  1D03               	skipz
 13337  129B  2AAC               	goto	u393lld
 13338  129C  0AA2               	incf	___aodiv@divisor+2,f
 13339  129D  1D03               	skipz
 13340  129E  2AAC               	goto	u393lld
 13341  129F  0AA3               	incf	___aodiv@divisor+3,f
 13342  12A0  1D03               	skipz
 13343  12A1  2AAC               	goto	u393lld
 13344  12A2  0AA4               	incf	___aodiv@divisor+4,f
 13345  12A3  1D03               	skipz
 13346  12A4  2AAC               	goto	u393lld
 13347  12A5  0AA5               	incf	___aodiv@divisor+5,f
 13348  12A6  1D03               	skipz
 13349  12A7  2AAC               	goto	u393lld
 13350  12A8  0AA6               	incf	___aodiv@divisor+6,f
 13351  12A9  1D03               	skipz
 13352  12AA  2AAC               	goto	u393lld
 13353  12AB  0AA7               	incf	___aodiv@divisor+7,f
 13354  12AC                     u393lld:
 13355  12AC  01F2               	clrf	___aodiv@sign
 13356  12AD  0AF2               	incf	___aodiv@sign,f
 13357  12AE                     l3229:
 13358  12AE  3028               	movlw	low ___aodiv@dividend
 13359  12AF  0086               	movwf	6
 13360  12B0  3000               	movlw	high ___aodiv@dividend
 13361  12B1  0087               	movwf	7
 13362  12B2  3F47               	moviw [7]fsr1
 13363  12B3  00F0               	movwf	??___aodiv
 13364  12B4  1FF0               	btfss	??___aodiv,7
 13365  12B5  2AB7               	goto	u3941
 13366  12B6  2AB8               	goto	u3940
 13367  12B7                     u3941:
 13368  12B7  2ADB               	goto	l3235
 13369  12B8                     u3940:
 13370  12B8                     l3231:
 13371  12B8  0020               	movlb	0	; select bank0
 13372  12B9  09A8               	comf	___aodiv@dividend,f
 13373  12BA  09A9               	comf	___aodiv@dividend+1,f
 13374  12BB  09AA               	comf	___aodiv@dividend+2,f
 13375  12BC  09AB               	comf	___aodiv@dividend+3,f
 13376  12BD  09AC               	comf	___aodiv@dividend+4,f
 13377  12BE  09AD               	comf	___aodiv@dividend+5,f
 13378  12BF  09AE               	comf	___aodiv@dividend+6,f
 13379  12C0  09AF               	comf	___aodiv@dividend+7,f
 13380  12C1  0AA8               	incf	___aodiv@dividend,f
 13381  12C2  1D03               	skipz
 13382  12C3  2AD7               	goto	u395lld
 13383  12C4  0AA9               	incf	___aodiv@dividend+1,f
 13384  12C5  1D03               	skipz
 13385  12C6  2AD7               	goto	u395lld
 13386  12C7  0AAA               	incf	___aodiv@dividend+2,f
 13387  12C8  1D03               	skipz
 13388  12C9  2AD7               	goto	u395lld
 13389  12CA  0AAB               	incf	___aodiv@dividend+3,f
 13390  12CB  1D03               	skipz
 13391  12CC  2AD7               	goto	u395lld
 13392  12CD  0AAC               	incf	___aodiv@dividend+4,f
 13393  12CE  1D03               	skipz
 13394  12CF  2AD7               	goto	u395lld
 13395  12D0  0AAD               	incf	___aodiv@dividend+5,f
 13396  12D1  1D03               	skipz
 13397  12D2  2AD7               	goto	u395lld
 13398  12D3  0AAE               	incf	___aodiv@dividend+6,f
 13399  12D4  1D03               	skipz
 13400  12D5  2AD7               	goto	u395lld
 13401  12D6  0AAF               	incf	___aodiv@dividend+7,f
 13402  12D7                     u395lld:
 13403  12D7                     l3233:
 13404  12D7  3001               	movlw	1
 13405  12D8  00F0               	movwf	??___aodiv
 13406  12D9  0870               	movf	??___aodiv,w
 13407  12DA  06F2               	xorwf	___aodiv@sign,f
 13408  12DB                     l3235:
 13409  12DB  3073               	movlw	low ___aodiv@quotient
 13410  12DC  0086               	movwf	6
 13411  12DD  3000               	movlw	high ___aodiv@quotient
 13412  12DE  0087               	movwf	7
 13413  12DF  3008               	movlw	8
 13414  12E0  00F0               	movwf	??___aodiv
 13415  12E1  3000               	movlw	0
 13416  12E2                     u3960:
 13417  12E2  001E               	movwi fsr1++
 13418  12E3  0BF0               	decfsz	??___aodiv,f
 13419  12E4  2AE2               	goto	u3960
 13420  12E5                     l3237:
 13421  12E5  0020               	movlb	0	; select bank0
 13422  12E6  0820               	movf	___aodiv@divisor,w
 13423  12E7  0421               	iorwf	___aodiv@divisor+1,w
 13424  12E8  0422               	iorwf	___aodiv@divisor+2,w
 13425  12E9  0423               	iorwf	___aodiv@divisor+3,w
 13426  12EA  0424               	iorwf	___aodiv@divisor+4,w
 13427  12EB  0425               	iorwf	___aodiv@divisor+5,w
 13428  12EC  0426               	iorwf	___aodiv@divisor+6,w
 13429  12ED  0427               	iorwf	___aodiv@divisor+7,w
 13430  12EE  1903               	skipnz
 13431  12EF  2AF1               	goto	u3971
 13432  12F0  2AF2               	goto	u3970
 13433  12F1                     u3971:
 13434  12F1  2B4E               	goto	l3257
 13435  12F2                     u3970:
 13436  12F2                     l3239:
 13437  12F2  01F1               	clrf	___aodiv@counter
 13438  12F3  0AF1               	incf	___aodiv@counter,f
 13439  12F4  2B01               	goto	l3245
 13440  12F5                     l3241:
 13441  12F5  35A0               	lslf	___aodiv@divisor,f
 13442  12F6  0DA1               	rlf	___aodiv@divisor+1,f
 13443  12F7  0DA2               	rlf	___aodiv@divisor+2,f
 13444  12F8  0DA3               	rlf	___aodiv@divisor+3,f
 13445  12F9  0DA4               	rlf	___aodiv@divisor+4,f
 13446  12FA  0DA5               	rlf	___aodiv@divisor+5,f
 13447  12FB  0DA6               	rlf	___aodiv@divisor+6,f
 13448  12FC  0DA7               	rlf	___aodiv@divisor+7,f
 13449  12FD                     l3243:
 13450  12FD  3001               	movlw	1
 13451  12FE  00F0               	movwf	??___aodiv
 13452  12FF  0870               	movf	??___aodiv,w
 13453  1300  07F1               	addwf	___aodiv@counter,f
 13454  1301                     l3245:
 13455  1301  1FA7               	btfss	___aodiv@divisor+7,7
 13456  1302  2B04               	goto	u3981
 13457  1303  2B05               	goto	u3980
 13458  1304                     u3981:
 13459  1304  2AF5               	goto	l3241
 13460  1305                     u3980:
 13461  1305                     l3247:
 13462  1305  35F3               	lslf	___aodiv@quotient,f
 13463  1306  0DF4               	rlf	___aodiv@quotient+1,f
 13464  1307  0DF5               	rlf	___aodiv@quotient+2,f
 13465  1308  0DF6               	rlf	___aodiv@quotient+3,f
 13466  1309  0DF7               	rlf	___aodiv@quotient+4,f
 13467  130A  0DF8               	rlf	___aodiv@quotient+5,f
 13468  130B  0DF9               	rlf	___aodiv@quotient+6,f
 13469  130C  0DFA               	rlf	___aodiv@quotient+7,f
 13470  130D                     l3249:
 13471  130D  0827               	movf	___aodiv@divisor+7,w
 13472  130E  022F               	subwf	___aodiv@dividend+7,w
 13473  130F  1D03               	skipz
 13474  1310  2B2B               	goto	u3995
 13475  1311  0826               	movf	___aodiv@divisor+6,w
 13476  1312  022E               	subwf	___aodiv@dividend+6,w
 13477  1313  1D03               	skipz
 13478  1314  2B2B               	goto	u3995
 13479  1315  0825               	movf	___aodiv@divisor+5,w
 13480  1316  022D               	subwf	___aodiv@dividend+5,w
 13481  1317  1D03               	skipz
 13482  1318  2B2B               	goto	u3995
 13483  1319  0824               	movf	___aodiv@divisor+4,w
 13484  131A  022C               	subwf	___aodiv@dividend+4,w
 13485  131B  1D03               	skipz
 13486  131C  2B2B               	goto	u3995
 13487  131D  0823               	movf	___aodiv@divisor+3,w
 13488  131E  022B               	subwf	___aodiv@dividend+3,w
 13489  131F  1D03               	skipz
 13490  1320  2B2B               	goto	u3995
 13491  1321  0822               	movf	___aodiv@divisor+2,w
 13492  1322  022A               	subwf	___aodiv@dividend+2,w
 13493  1323  1D03               	skipz
 13494  1324  2B2B               	goto	u3995
 13495  1325  0821               	movf	___aodiv@divisor+1,w
 13496  1326  0229               	subwf	___aodiv@dividend+1,w
 13497  1327  1D03               	skipz
 13498  1328  2B2B               	goto	u3995
 13499  1329  0820               	movf	___aodiv@divisor,w
 13500  132A  0228               	subwf	___aodiv@dividend,w
 13501  132B                     u3995:
 13502  132B  1C03               	skipc
 13503  132C  2B2E               	goto	u3991
 13504  132D  2B2F               	goto	u3990
 13505  132E                     u3991:
 13506  132E  2B40               	goto	l3255
 13507  132F                     u3990:
 13508  132F                     l3251:
 13509  132F  0820               	movf	___aodiv@divisor,w
 13510  1330  02A8               	subwf	___aodiv@dividend,f
 13511  1331  0821               	movf	___aodiv@divisor+1,w
 13512  1332  3BA9               	subwfb	___aodiv@dividend+1,f
 13513  1333  0822               	movf	___aodiv@divisor+2,w
 13514  1334  3BAA               	subwfb	___aodiv@dividend+2,f
 13515  1335  0823               	movf	___aodiv@divisor+3,w
 13516  1336  3BAB               	subwfb	___aodiv@dividend+3,f
 13517  1337  0824               	movf	___aodiv@divisor+4,w
 13518  1338  3BAC               	subwfb	___aodiv@dividend+4,f
 13519  1339  0825               	movf	___aodiv@divisor+5,w
 13520  133A  3BAD               	subwfb	___aodiv@dividend+5,f
 13521  133B  0826               	movf	___aodiv@divisor+6,w
 13522  133C  3BAE               	subwfb	___aodiv@dividend+6,f
 13523  133D  0827               	movf	___aodiv@divisor+7,w
 13524  133E  3BAF               	subwfb	___aodiv@dividend+7,f
 13525  133F                     l3253:
 13526  133F  1473               	bsf	___aodiv@quotient,0
 13527  1340                     l3255:
 13528  1340  36A7               	lsrf	___aodiv@divisor+7,f
 13529  1341  0CA6               	rrf	___aodiv@divisor+6,f
 13530  1342  0CA5               	rrf	___aodiv@divisor+5,f
 13531  1343  0CA4               	rrf	___aodiv@divisor+4,f
 13532  1344  0CA3               	rrf	___aodiv@divisor+3,f
 13533  1345  0CA2               	rrf	___aodiv@divisor+2,f
 13534  1346  0CA1               	rrf	___aodiv@divisor+1,f
 13535  1347  0CA0               	rrf	___aodiv@divisor,f
 13536  1348  3001               	movlw	1
 13537  1349  02F1               	subwf	___aodiv@counter,f
 13538  134A  1D03               	btfss	3,2
 13539  134B  2B4D               	goto	u4001
 13540  134C  2B4E               	goto	u4000
 13541  134D                     u4001:
 13542  134D  2B05               	goto	l3247
 13543  134E                     u4000:
 13544  134E                     l3257:
 13545  134E  0872               	movf	___aodiv@sign,w
 13546  134F  1903               	btfsc	3,2
 13547  1350  2B52               	goto	u4011
 13548  1351  2B53               	goto	u4010
 13549  1352                     u4011:
 13550  1352  2B71               	goto	l510
 13551  1353                     u4010:
 13552  1353                     l3259:
 13553  1353  09F3               	comf	___aodiv@quotient,f
 13554  1354  09F4               	comf	___aodiv@quotient+1,f
 13555  1355  09F5               	comf	___aodiv@quotient+2,f
 13556  1356  09F6               	comf	___aodiv@quotient+3,f
 13557  1357  09F7               	comf	___aodiv@quotient+4,f
 13558  1358  09F8               	comf	___aodiv@quotient+5,f
 13559  1359  09F9               	comf	___aodiv@quotient+6,f
 13560  135A  09FA               	comf	___aodiv@quotient+7,f
 13561  135B  0AF3               	incf	___aodiv@quotient,f
 13562  135C  1D03               	skipz
 13563  135D  2B71               	goto	u402lld
 13564  135E  0AF4               	incf	___aodiv@quotient+1,f
 13565  135F  1D03               	skipz
 13566  1360  2B71               	goto	u402lld
 13567  1361  0AF5               	incf	___aodiv@quotient+2,f
 13568  1362  1D03               	skipz
 13569  1363  2B71               	goto	u402lld
 13570  1364  0AF6               	incf	___aodiv@quotient+3,f
 13571  1365  1D03               	skipz
 13572  1366  2B71               	goto	u402lld
 13573  1367  0AF7               	incf	___aodiv@quotient+4,f
 13574  1368  1D03               	skipz
 13575  1369  2B71               	goto	u402lld
 13576  136A  0AF8               	incf	___aodiv@quotient+5,f
 13577  136B  1D03               	skipz
 13578  136C  2B71               	goto	u402lld
 13579  136D  0AF9               	incf	___aodiv@quotient+6,f
 13580  136E  1D03               	skipz
 13581  136F  2B71               	goto	u402lld
 13582  1370  0AFA               	incf	___aodiv@quotient+7,f
 13583  1371                     u402lld:
 13584  1371                     l510:
 13585  1371  0873               	movf	___aodiv@quotient,w
 13586  1372  0020               	movlb	0	; select bank0
 13587  1373  00A0               	movwf	?___aodiv
 13588  1374  0874               	movf	___aodiv@quotient+1,w
 13589  1375  00A1               	movwf	?___aodiv+1
 13590  1376  0875               	movf	___aodiv@quotient+2,w
 13591  1377  00A2               	movwf	?___aodiv+2
 13592  1378  0876               	movf	___aodiv@quotient+3,w
 13593  1379  00A3               	movwf	?___aodiv+3
 13594  137A  0877               	movf	___aodiv@quotient+4,w
 13595  137B  00A4               	movwf	?___aodiv+4
 13596  137C  0878               	movf	___aodiv@quotient+5,w
 13597  137D  00A5               	movwf	?___aodiv+5
 13598  137E  0879               	movf	___aodiv@quotient+6,w
 13599  137F  00A6               	movwf	?___aodiv+6
 13600  1380  087A               	movf	___aodiv@quotient+7,w
 13601  1381  00A7               	movwf	?___aodiv+7
 13602  1382                     l511:
 13603  1382  0008               	return
 13604  1383                     __end_of___aodiv:
 13605                           
 13606                           	psect	text31
 13607  1F51                     __ptext31:	
 13608 ;; *************** function _atoi *****************
 13609 ;; Defined at:
 13610 ;;		line 4 in file "C:\Program Files\Microchip\xc8\v2.31\pic\sources\c99\common\atoi.c"
 13611 ;; Parameters:    Size  Location     Type
 13612 ;;  s               2    6[COMMON] PTR const unsigned char 
 13613 ;;		 -> STR_2(12), 
 13614 ;; Auto vars:     Size  Location     Type
 13615 ;;  n               2    7[BANK0 ] int 
 13616 ;;  neg             2    0[BANK0 ] int 
 13617 ;; Return value:  Size  Location     Type
 13618 ;;                  2    6[COMMON] int 
 13619 ;; Registers used:
 13620 ;;		wreg, fsr0l, fsr0h, status,2, status,0, pclath, cstack
 13621 ;; Tracked objects:
 13622 ;;		On entry : 0/0
 13623 ;;		On exit  : 0/0
 13624 ;;		Unchanged: 0/0
 13625 ;; Data sizes:     COMMON   BANK0   BANK1   BANK2   BANK3   BANK4   BANK5   BANK6   BANK7   BANK8   BANK9  BANK10  BANK1
      +1  BANK12  BANK13  BANK14  BANK15  BANK16  BANK17  BANK18  BANK19  BANK20  BANK21  BANK22  BANK23  BANK24  BANK25
 13626 ;;      Params:         2       0       0       0       0       0       0       0       0       0       0       0       
      +0       0       0       0       0       0       0       0       0       0       0       0       0       0       0
 13627 ;;      Locals:         0       9       0       0       0       0       0       0       0       0       0       0       
      +0       0       0       0       0       0       0       0       0       0       0       0       0       0       0
 13628 ;;      Temps:          4       0       0       0       0       0       0       0       0       0       0       0       
      +0       0       0       0       0       0       0       0       0       0       0       0       0       0       0
 13629 ;;      Totals:         6       9       0       0       0       0       0       0       0       0       0       0       
      +0       0       0       0       0       0       0       0       0       0       0       0       0       0       0
 13630 ;;Total ram usage:       15 bytes
 13631 ;; Hardware stack levels used:    1
 13632 ;; Hardware stack levels required when called:    1
 13633 ;; This function calls:
 13634 ;;		___wmul
 13635 ;;		_isdigit
 13636 ;;		_isspace
 13637 ;; This function is called by:
 13638 ;;		_vfpfcnvrt
 13639 ;; This function uses a non-reentrant model
 13640 ;;
 13641                           
 13642                           
 13643                           ;psect for function _atoi
 13644  1F51                     _atoi:
 13645  1F51                     l4203:	
 13646                           ;incstack = 0
 13647                           ; Regs used in _atoi: [wreg-fsr0h+status,2+status,0+pclath+cstack]
 13648                           
 13649  1F51  0020               	movlb	0	; select bank0
 13650  1F52  01A7               	clrf	atoi@n
 13651  1F53  01A8               	clrf	atoi@n+1
 13652  1F54  01A0               	clrf	atoi@neg
 13653  1F55  01A1               	clrf	atoi@neg+1
 13654  1F56  2F5B               	goto	l4207
 13655  1F57                     l4205:
 13656  1F57  3001               	movlw	1
 13657  1F58  07F6               	addwf	atoi@s,f
 13658  1F59  3000               	movlw	0
 13659  1F5A  3DF7               	addwfc	atoi@s+1,f
 13660  1F5B                     l4207:
 13661  1F5B  01A6               	clrf	_atoi$1047
 13662  1F5C  0AA6               	incf	_atoi$1047,f
 13663  1F5D                     l4209:
 13664  1F5D  0876               	movf	atoi@s,w
 13665  1F5E  0084               	movwf	4
 13666  1F5F  0877               	movf	atoi@s+1,w
 13667  1F60  0085               	movwf	5
 13668  1F61  0012               	moviw fsr0++
 13669  1F62  3A20               	xorlw	32
 13670  1F63  1903               	btfsc	3,2
 13671  1F64  2F66               	goto	u6081
 13672  1F65  2F67               	goto	u6080
 13673  1F66                     u6081:
 13674  1F66  2F7C               	goto	l4215
 13675  1F67                     u6080:
 13676  1F67                     l4211:
 13677  1F67  0876               	movf	atoi@s,w
 13678  1F68  0084               	movwf	4
 13679  1F69  0877               	movf	atoi@s+1,w
 13680  1F6A  0085               	movwf	5
 13681  1F6B  0800               	movf	0,w	;code access
 13682  1F6C  3EF7               	addlw	247
 13683  1F6D  00F8               	movwf	??_atoi
 13684  1F6E  30FF               	movlw	255
 13685  1F6F  1803               	skipnc
 13686  1F70  3000               	movlw	0
 13687  1F71  00F9               	movwf	??_atoi+1
 13688  1F72  3000               	movlw	0
 13689  1F73  0279               	subwf	??_atoi+1,w
 13690  1F74  3005               	movlw	5
 13691  1F75  1903               	skipnz
 13692  1F76  0278               	subwf	??_atoi,w
 13693  1F77  1C03               	skipc
 13694  1F78  2F7A               	goto	u6091
 13695  1F79  2F7B               	goto	u6090
 13696  1F7A                     u6091:
 13697  1F7A  2F7C               	goto	l4215
 13698  1F7B                     u6090:
 13699  1F7B                     l4213:
 13700  1F7B  01A6               	clrf	_atoi$1047
 13701  1F7C                     l4215:
 13702  1F7C  0826               	movf	_atoi$1047,w
 13703  1F7D  00F8               	movwf	??_atoi
 13704  1F7E  01F9               	clrf	??_atoi+1
 13705  1F7F  0878               	movf	??_atoi,w
 13706  1F80  00A2               	movwf	_atoi$1046
 13707  1F81  0879               	movf	??_atoi+1,w
 13708  1F82  00A3               	movwf	_atoi$1046+1
 13709  1F83                     l4219:
 13710  1F83  0822               	movf	_atoi$1046,w
 13711  1F84  0423               	iorwf	_atoi$1046+1,w
 13712  1F85  1D03               	btfss	3,2
 13713  1F86  2F88               	goto	u6101
 13714  1F87  2F89               	goto	u6100
 13715  1F88                     u6101:
 13716  1F88  2F57               	goto	l4205
 13717  1F89                     u6100:
 13718  1F89  2F93               	goto	l4223
 13719  1F8A                     l4221:
 13720  1F8A  3001               	movlw	1
 13721  1F8B  00A0               	movwf	atoi@neg
 13722  1F8C  3000               	movlw	0
 13723  1F8D  00A1               	movwf	atoi@neg+1
 13724  1F8E                     l1120:
 13725  1F8E  3001               	movlw	1
 13726  1F8F  07F6               	addwf	atoi@s,f
 13727  1F90  3000               	movlw	0
 13728  1F91  3DF7               	addwfc	atoi@s+1,f
 13729  1F92  2FC7               	goto	l4229
 13730  1F93                     l4223:
 13731  1F93  0876               	movf	atoi@s,w
 13732  1F94  0084               	movwf	4
 13733  1F95  0877               	movf	atoi@s+1,w
 13734  1F96  0085               	movwf	5
 13735  1F97  0800               	movf	0,w	;code access
 13736  1F98  00F8               	movwf	??_atoi
 13737  1F99  01F9               	clrf	??_atoi+1
 13738                           
 13739                           ; Switch on 2 bytes has been partitioned into a top level switch of size 1, and 1 sub-sw
      +                          itches
 13740                           ; Switch size 1, requested type "simple"
 13741                           ; Number of cases is 1, Range of values is 0 to 0
 13742                           ; switch strategies available:
 13743                           ; Name         Instructions Cycles
 13744                           ; simple_byte            4     3 (average)
 13745                           ; direct_byte            8     6 (fixed)
 13746                           ; jumptable            260     6 (fixed)
 13747                           ;	Chosen strategy is simple_byte
 13748  1F9A  0879               	movf	??_atoi+1,w
 13749  1F9B  3A00               	xorlw	0	; case 0
 13750  1F9C  1903               	skipnz
 13751  1F9D  2F9F               	goto	l4665
 13752  1F9E  2FC7               	goto	l4229
 13753  1F9F                     l4665:
 13754                           
 13755                           ; Switch size 1, requested type "simple"
 13756                           ; Number of cases is 2, Range of values is 43 to 45
 13757                           ; switch strategies available:
 13758                           ; Name         Instructions Cycles
 13759                           ; simple_byte            7     4 (average)
 13760                           ; direct_byte           15     9 (fixed)
 13761                           ; jumptable            263     9 (fixed)
 13762                           ;	Chosen strategy is simple_byte
 13763  1F9F  0878               	movf	??_atoi,w
 13764  1FA0  3A2B               	xorlw	43	; case 43
 13765  1FA1  1903               	skipnz
 13766  1FA2  2F8E               	goto	l1120
 13767  1FA3  3A06               	xorlw	6	; case 45
 13768  1FA4  1903               	skipnz
 13769  1FA5  2F8A               	goto	l4221
 13770  1FA6  2FC7               	goto	l4229
 13771  1FA7                     l4225:
 13772  1FA7  0876               	movf	atoi@s,w
 13773  1FA8  0084               	movwf	4
 13774  1FA9  0877               	movf	atoi@s+1,w
 13775  1FAA  0085               	movwf	5
 13776  1FAB  0800               	movf	0,w	;code access
 13777  1FAC  00F8               	movwf	??_atoi
 13778  1FAD  0828               	movf	atoi@n+1,w
 13779  1FAE  00F1               	movwf	___wmul@multiplier+1
 13780  1FAF  0827               	movf	atoi@n,w
 13781  1FB0  00F0               	movwf	___wmul@multiplier
 13782  1FB1  300A               	movlw	10
 13783  1FB2  00F2               	movwf	___wmul@multiplicand
 13784  1FB3  3000               	movlw	0
 13785  1FB4  00F3               	movwf	___wmul@multiplicand+1
 13786  1FB5  319B  233A  319F   	fcall	___wmul
 13787  1FB8  0871               	movf	?___wmul+1,w
 13788  1FB9  00FA               	movwf	??_atoi+2
 13789  1FBA  0878               	movf	??_atoi,w
 13790  1FBB  0270               	subwf	?___wmul,w
 13791  1FBC  00F9               	movwf	??_atoi+1
 13792  1FBD  1C03               	skipc
 13793  1FBE  03FA               	decf	??_atoi+2,f
 13794  1FBF  0879               	movf	??_atoi+1,w
 13795  1FC0  3E30               	addlw	48
 13796  1FC1  0020               	movlb	0	; select bank0
 13797  1FC2  00A7               	movwf	atoi@n
 13798  1FC3  3000               	movlw	0
 13799  1FC4  3D7A               	addwfc	??_atoi+2,w
 13800  1FC5  00A8               	movwf	atoi@n+1
 13801  1FC6  2F8E               	goto	l1120
 13802  1FC7                     l4229:
 13803  1FC7  0876               	movf	atoi@s,w
 13804  1FC8  0084               	movwf	4
 13805  1FC9  0877               	movf	atoi@s+1,w
 13806  1FCA  0085               	movwf	5
 13807  1FCB  0800               	movf	0,w	;code access
 13808  1FCC  3ED0               	addlw	208
 13809  1FCD  00F8               	movwf	??_atoi
 13810  1FCE  30FF               	movlw	255
 13811  1FCF  1803               	skipnc
 13812  1FD0  3000               	movlw	0
 13813  1FD1  00F9               	movwf	??_atoi+1
 13814  1FD2  3000               	movlw	0
 13815  1FD3  0279               	subwf	??_atoi+1,w
 13816  1FD4  300A               	movlw	10
 13817  1FD5  1903               	skipnz
 13818  1FD6  0278               	subwf	??_atoi,w
 13819  1FD7  1C03               	skipc
 13820  1FD8  2FDA               	goto	u6111
 13821  1FD9  2FDC               	goto	u6110
 13822  1FDA                     u6111:
 13823  1FDA  3001               	movlw	1
 13824  1FDB  2FDD               	goto	u6120
 13825  1FDC                     u6110:
 13826  1FDC  3000               	movlw	0
 13827  1FDD                     u6120:
 13828  1FDD  00FA               	movwf	??_atoi+2
 13829  1FDE  01FB               	clrf	??_atoi+3
 13830  1FDF  087A               	movf	??_atoi+2,w
 13831  1FE0  00A4               	movwf	_atoi$1048
 13832  1FE1  087B               	movf	??_atoi+3,w
 13833  1FE2  00A5               	movwf	_atoi$1048+1
 13834  1FE3                     l4233:
 13835  1FE3  0824               	movf	_atoi$1048,w
 13836  1FE4  0425               	iorwf	_atoi$1048+1,w
 13837  1FE5  1D03               	btfss	3,2
 13838  1FE6  2FE8               	goto	u6131
 13839  1FE7  2FE9               	goto	u6130
 13840  1FE8                     u6131:
 13841  1FE8  2FA7               	goto	l4225
 13842  1FE9                     u6130:
 13843  1FE9                     l4235:
 13844  1FE9  0820               	movf	atoi@neg,w
 13845  1FEA  0421               	iorwf	atoi@neg+1,w
 13846  1FEB  1D03               	btfss	3,2
 13847  1FEC  2FEE               	goto	u6141
 13848  1FED  2FEF               	goto	u6140
 13849  1FEE                     u6141:
 13850  1FEE  2FFB               	goto	l4239
 13851  1FEF                     u6140:
 13852  1FEF                     l4237:
 13853  1FEF  0927               	comf	atoi@n,w
 13854  1FF0  00F8               	movwf	??_atoi
 13855  1FF1  0928               	comf	atoi@n+1,w
 13856  1FF2  00F9               	movwf	??_atoi+1
 13857  1FF3  0AF8               	incf	??_atoi,f
 13858  1FF4  1903               	skipnz
 13859  1FF5  0AF9               	incf	??_atoi+1,f
 13860  1FF6  0878               	movf	??_atoi,w
 13861  1FF7  00F6               	movwf	?_atoi
 13862  1FF8  0879               	movf	??_atoi+1,w
 13863  1FF9  00F7               	movwf	?_atoi+1
 13864  1FFA  2FFF               	goto	l1133
 13865  1FFB                     l4239:
 13866  1FFB  0828               	movf	atoi@n+1,w
 13867  1FFC  00F7               	movwf	?_atoi+1
 13868  1FFD  0827               	movf	atoi@n,w
 13869  1FFE  00F6               	movwf	?_atoi
 13870  1FFF                     l1133:
 13871  1FFF  0008               	return
 13872  2000                     __end_of_atoi:
 13873                           
 13874                           	psect	text32
 13875  1B79                     __ptext32:	
 13876 ;; *************** function _isspace *****************
 13877 ;; Defined at:
 13878 ;;		line 5 in file "C:\Program Files\Microchip\xc8\v2.31\pic\sources\c99\common\isspace.c"
 13879 ;; Parameters:    Size  Location     Type
 13880 ;;  c               2    0[COMMON] int 
 13881 ;; Auto vars:     Size  Location     Type
 13882 ;;		None
 13883 ;; Return value:  Size  Location     Type
 13884 ;;                  2    0[COMMON] int 
 13885 ;; Registers used:
 13886 ;;		wreg, status,2, status,0
 13887 ;; Tracked objects:
 13888 ;;		On entry : 0/0
 13889 ;;		On exit  : 0/0
 13890 ;;		Unchanged: 0/0
 13891 ;; Data sizes:     COMMON   BANK0   BANK1   BANK2   BANK3   BANK4   BANK5   BANK6   BANK7   BANK8   BANK9  BANK10  BANK1
      +1  BANK12  BANK13  BANK14  BANK15  BANK16  BANK17  BANK18  BANK19  BANK20  BANK21  BANK22  BANK23  BANK24  BANK25
 13892 ;;      Params:         2       0       0       0       0       0       0       0       0       0       0       0       
      +0       0       0       0       0       0       0       0       0       0       0       0       0       0       0
 13893 ;;      Locals:         1       0       0       0       0       0       0       0       0       0       0       0       
      +0       0       0       0       0       0       0       0       0       0       0       0       0       0       0
 13894 ;;      Temps:          2       0       0       0       0       0       0       0       0       0       0       0       
      +0       0       0       0       0       0       0       0       0       0       0       0       0       0       0
 13895 ;;      Totals:         5       0       0       0       0       0       0       0       0       0       0       0       
      +0       0       0       0       0       0       0       0       0       0       0       0       0       0       0
 13896 ;;Total ram usage:        5 bytes
 13897 ;; Hardware stack levels used:    1
 13898 ;; This function calls:
 13899 ;;		Nothing
 13900 ;; This function is called by:
 13901 ;;		_atoi
 13902 ;; This function uses a non-reentrant model
 13903 ;;
 13904                           
 13905                           
 13906                           ;psect for function _isspace
 13907  1B79                     _isspace:
 13908  1B79                     l3833:	
 13909                           ;incstack = 0
 13910                           ; Regs used in _isspace: [wreg+status,2+status,0]
 13911                           
 13912  1B79  01F4               	clrf	_isspace$1077
 13913  1B7A  0AF4               	incf	_isspace$1077,f
 13914  1B7B                     l3835:
 13915  1B7B  3020               	movlw	32
 13916  1B7C  0670               	xorwf	isspace@c,w
 13917  1B7D  0471               	iorwf	isspace@c+1,w
 13918  1B7E  1903               	btfsc	3,2
 13919  1B7F  2B81               	goto	u5361
 13920  1B80  2B82               	goto	u5360
 13921  1B81                     u5361:
 13922  1B81  2B92               	goto	l3841
 13923  1B82                     u5360:
 13924  1B82                     l3837:
 13925  1B82  0870               	movf	isspace@c,w
 13926  1B83  3EF7               	addlw	247
 13927  1B84  00F2               	movwf	??_isspace
 13928  1B85  30FF               	movlw	255
 13929  1B86  3D71               	addwfc	isspace@c+1,w
 13930  1B87  00F3               	movwf	??_isspace+1
 13931  1B88  3000               	movlw	0
 13932  1B89  0273               	subwf	??_isspace+1,w
 13933  1B8A  3005               	movlw	5
 13934  1B8B  1903               	skipnz
 13935  1B8C  0272               	subwf	??_isspace,w
 13936  1B8D  1C03               	skipc
 13937  1B8E  2B90               	goto	u5371
 13938  1B8F  2B91               	goto	u5370
 13939  1B90                     u5371:
 13940  1B90  2B92               	goto	l3841
 13941  1B91                     u5370:
 13942  1B91                     l3839:
 13943  1B91  01F4               	clrf	_isspace$1077
 13944  1B92                     l3841:
 13945  1B92  0874               	movf	_isspace$1077,w
 13946  1B93  00F2               	movwf	??_isspace
 13947  1B94  01F3               	clrf	??_isspace+1
 13948  1B95  0872               	movf	??_isspace,w
 13949  1B96  00F0               	movwf	?_isspace
 13950  1B97  0873               	movf	??_isspace+1,w
 13951  1B98  00F1               	movwf	?_isspace+1
 13952  1B99                     l1157:
 13953  1B99  0008               	return
 13954  1B9A                     __end_of_isspace:
 13955                           
 13956                           	psect	text33
 13957  1ABC                     __ptext33:	
 13958 ;; *************** function _isdigit *****************
 13959 ;; Defined at:
 13960 ;;		line 5 in file "C:\Program Files\Microchip\xc8\v2.31\pic\sources\c99\common\isdigit.c"
 13961 ;; Parameters:    Size  Location     Type
 13962 ;;  c               2    0[COMMON] int 
 13963 ;; Auto vars:     Size  Location     Type
 13964 ;;		None
 13965 ;; Return value:  Size  Location     Type
 13966 ;;                  2    0[COMMON] int 
 13967 ;; Registers used:
 13968 ;;		wreg, status,2, status,0
 13969 ;; Tracked objects:
 13970 ;;		On entry : 0/0
 13971 ;;		On exit  : 0/0
 13972 ;;		Unchanged: 0/0
 13973 ;; Data sizes:     COMMON   BANK0   BANK1   BANK2   BANK3   BANK4   BANK5   BANK6   BANK7   BANK8   BANK9  BANK10  BANK1
      +1  BANK12  BANK13  BANK14  BANK15  BANK16  BANK17  BANK18  BANK19  BANK20  BANK21  BANK22  BANK23  BANK24  BANK25
 13974 ;;      Params:         2       0       0       0       0       0       0       0       0       0       0       0       
      +0       0       0       0       0       0       0       0       0       0       0       0       0       0       0
 13975 ;;      Locals:         0       0       0       0       0       0       0       0       0       0       0       0       
      +0       0       0       0       0       0       0       0       0       0       0       0       0       0       0
 13976 ;;      Temps:          4       0       0       0       0       0       0       0       0       0       0       0       
      +0       0       0       0       0       0       0       0       0       0       0       0       0       0       0
 13977 ;;      Totals:         6       0       0       0       0       0       0       0       0       0       0       0       
      +0       0       0       0       0       0       0       0       0       0       0       0       0       0       0
 13978 ;;Total ram usage:        6 bytes
 13979 ;; Hardware stack levels used:    1
 13980 ;; This function calls:
 13981 ;;		Nothing
 13982 ;; This function is called by:
 13983 ;;		_vfpfcnvrt
 13984 ;;		_atoi
 13985 ;; This function uses a non-reentrant model
 13986 ;;
 13987                           
 13988                           
 13989                           ;psect for function _isdigit
 13990  1ABC                     _isdigit:
 13991  1ABC                     l3829:	
 13992                           ;incstack = 0
 13993                           ; Regs used in _isdigit: [wreg+status,2+status,0]
 13994                           
 13995  1ABC  0870               	movf	isdigit@c,w
 13996  1ABD  3ED0               	addlw	208
 13997  1ABE  00F2               	movwf	??_isdigit
 13998  1ABF  30FF               	movlw	255
 13999  1AC0  3D71               	addwfc	isdigit@c+1,w
 14000  1AC1  00F3               	movwf	??_isdigit+1
 14001  1AC2  3000               	movlw	0
 14002  1AC3  0273               	subwf	??_isdigit+1,w
 14003  1AC4  300A               	movlw	10
 14004  1AC5  1903               	skipnz
 14005  1AC6  0272               	subwf	??_isdigit,w
 14006  1AC7  1C03               	skipc
 14007  1AC8  2ACA               	goto	u5341
 14008  1AC9  2ACC               	goto	u5340
 14009  1ACA                     u5341:
 14010  1ACA  3001               	movlw	1
 14011  1ACB  2ACD               	goto	u5350
 14012  1ACC                     u5340:
 14013  1ACC  3000               	movlw	0
 14014  1ACD                     u5350:
 14015  1ACD  00F4               	movwf	??_isdigit+2
 14016  1ACE  01F5               	clrf	??_isdigit+3
 14017  1ACF  0874               	movf	??_isdigit+2,w
 14018  1AD0  00F0               	movwf	?_isdigit
 14019  1AD1  0875               	movf	??_isdigit+3,w
 14020  1AD2  00F1               	movwf	?_isdigit+1
 14021  1AD3                     l1149:
 14022  1AD3  0008               	return
 14023  1AD4                     __end_of_isdigit:
 14024                           
 14025                           	psect	text34
 14026  1B3A                     __ptext34:	
 14027 ;; *************** function ___wmul *****************
 14028 ;; Defined at:
 14029 ;;		line 15 in file "C:\Program Files\Microchip\xc8\v2.31\pic\sources\c99\common\Umul16.c"
 14030 ;; Parameters:    Size  Location     Type
 14031 ;;  multiplier      2    0[COMMON] unsigned int 
 14032 ;;  multiplicand    2    2[COMMON] unsigned int 
 14033 ;; Auto vars:     Size  Location     Type
 14034 ;;  product         2    4[COMMON] unsigned int 
 14035 ;; Return value:  Size  Location     Type
 14036 ;;                  2    0[COMMON] unsigned int 
 14037 ;; Registers used:
 14038 ;;		wreg, status,2, status,0
 14039 ;; Tracked objects:
 14040 ;;		On entry : 0/0
 14041 ;;		On exit  : 0/0
 14042 ;;		Unchanged: 0/0
 14043 ;; Data sizes:     COMMON   BANK0   BANK1   BANK2   BANK3   BANK4   BANK5   BANK6   BANK7   BANK8   BANK9  BANK10  BANK1
      +1  BANK12  BANK13  BANK14  BANK15  BANK16  BANK17  BANK18  BANK19  BANK20  BANK21  BANK22  BANK23  BANK24  BANK25
 14044 ;;      Params:         4       0       0       0       0       0       0       0       0       0       0       0       
      +0       0       0       0       0       0       0       0       0       0       0       0       0       0       0
 14045 ;;      Locals:         2       0       0       0       0       0       0       0       0       0       0       0       
      +0       0       0       0       0       0       0       0       0       0       0       0       0       0       0
 14046 ;;      Temps:          0       0       0       0       0       0       0       0       0       0       0       0       
      +0       0       0       0       0       0       0       0       0       0       0       0       0       0       0
 14047 ;;      Totals:         6       0       0       0       0       0       0       0       0       0       0       0       
      +0       0       0       0       0       0       0       0       0       0       0       0       0       0       0
 14048 ;;Total ram usage:        6 bytes
 14049 ;; Hardware stack levels used:    1
 14050 ;; This function calls:
 14051 ;;		Nothing
 14052 ;; This function is called by:
 14053 ;;		_main
 14054 ;;		_atoi
 14055 ;; This function uses a non-reentrant model
 14056 ;;
 14057                           
 14058                           
 14059                           ;psect for function ___wmul
 14060  1B3A                     ___wmul:
 14061  1B3A                     l3209:	
 14062                           ;incstack = 0
 14063                           ; Regs used in ___wmul: [wreg+status,2+status,0]
 14064                           
 14065  1B3A  01F4               	clrf	___wmul@product
 14066  1B3B  01F5               	clrf	___wmul@product+1
 14067  1B3C                     l3211:
 14068  1B3C  1C70               	btfss	___wmul@multiplier,0
 14069  1B3D  2B3F               	goto	u3881
 14070  1B3E  2B40               	goto	u3880
 14071  1B3F                     u3881:
 14072  1B3F  2B44               	goto	l410
 14073  1B40                     u3880:
 14074  1B40                     l3213:
 14075  1B40  0872               	movf	___wmul@multiplicand,w
 14076  1B41  07F4               	addwf	___wmul@product,f
 14077  1B42  0873               	movf	___wmul@multiplicand+1,w
 14078  1B43  3DF5               	addwfc	___wmul@product+1,f
 14079  1B44                     l410:
 14080  1B44  3001               	movlw	1
 14081  1B45                     u3895:
 14082  1B45  35F2               	lslf	___wmul@multiplicand,f
 14083  1B46  0DF3               	rlf	___wmul@multiplicand+1,f
 14084  1B47  0B89               	decfsz	9,f
 14085  1B48  2B45               	goto	u3895
 14086  1B49                     l3215:
 14087  1B49  3001               	movlw	1
 14088  1B4A                     u3905:
 14089  1B4A  36F1               	lsrf	___wmul@multiplier+1,f
 14090  1B4B  0CF0               	rrf	___wmul@multiplier,f
 14091  1B4C  0B89               	decfsz	9,f
 14092  1B4D  2B4A               	goto	u3905
 14093  1B4E                     l3217:
 14094  1B4E  0870               	movf	___wmul@multiplier,w
 14095  1B4F  0471               	iorwf	___wmul@multiplier+1,w
 14096  1B50  1D03               	btfss	3,2
 14097  1B51  2B53               	goto	u3911
 14098  1B52  2B54               	goto	u3910
 14099  1B53                     u3911:
 14100  1B53  2B3C               	goto	l3211
 14101  1B54                     u3910:
 14102  1B54                     l3219:
 14103  1B54  0875               	movf	___wmul@product+1,w
 14104  1B55  00F1               	movwf	?___wmul+1
 14105  1B56  0874               	movf	___wmul@product,w
 14106  1B57  00F0               	movwf	?___wmul
 14107  1B58                     l412:
 14108  1B58  0008               	return
 14109  1B59                     __end_of___wmul:
 14110                           
 14111                           	psect	text35
 14112  1AA5                     __ptext35:	
 14113 ;; *************** function _putstr *****************
 14114 ;; Defined at:
 14115 ;;		line 123 in file "main.c"
 14116 ;; Parameters:    Size  Location     Type
 14117 ;;  p               2    1[COMMON] PTR unsigned char 
 14118 ;;		 -> main@s(20), STR_1(24), 
 14119 ;; Auto vars:     Size  Location     Type
 14120 ;;		None
 14121 ;; Return value:  Size  Location     Type
 14122 ;;                  1    wreg      void 
 14123 ;; Registers used:
 14124 ;;		wreg, fsr0l, fsr0h, status,2, status,0, pclath, cstack
 14125 ;; Tracked objects:
 14126 ;;		On entry : 0/0
 14127 ;;		On exit  : 0/0
 14128 ;;		Unchanged: 0/0
 14129 ;; Data sizes:     COMMON   BANK0   BANK1   BANK2   BANK3   BANK4   BANK5   BANK6   BANK7   BANK8   BANK9  BANK10  BANK1
      +1  BANK12  BANK13  BANK14  BANK15  BANK16  BANK17  BANK18  BANK19  BANK20  BANK21  BANK22  BANK23  BANK24  BANK25
 14130 ;;      Params:         2       0       0       0       0       0       0       0       0       0       0       0       
      +0       0       0       0       0       0       0       0       0       0       0       0       0       0       0
 14131 ;;      Locals:         0       0       0       0       0       0       0       0       0       0       0       0       
      +0       0       0       0       0       0       0       0       0       0       0       0       0       0       0
 14132 ;;      Temps:          1       0       0       0       0       0       0       0       0       0       0       0       
      +0       0       0       0       0       0       0       0       0       0       0       0       0       0       0
 14133 ;;      Totals:         3       0       0       0       0       0       0       0       0       0       0       0       
      +0       0       0       0       0       0       0       0       0       0       0       0       0       0       0
 14134 ;;Total ram usage:        3 bytes
 14135 ;; Hardware stack levels used:    1
 14136 ;; Hardware stack levels required when called:    1
 14137 ;; This function calls:
 14138 ;;		_EUSART_Write
 14139 ;; This function is called by:
 14140 ;;		_main
 14141 ;; This function uses a non-reentrant model
 14142 ;;
 14143                           
 14144                           
 14145                           ;psect for function _putstr
 14146  1AA5                     _putstr:
 14147  1AA5                     l4499:	
 14148                           ;incstack = 0
 14149                           ; Regs used in _putstr: [wreg-fsr0h+status,2+status,0+pclath+cstack]
 14150                           
 14151                           
 14152                           ;main.c: 123: void putstr( char * p );main.c: 124: {;main.c: 125:         while(*p){
 14153  1AA5  2AB2               	goto	l4505
 14154  1AA6                     l4501:
 14155                           
 14156                           ;main.c: 126:             EUSART_Write(*p);
 14157  1AA6  0871               	movf	putstr@p,w
 14158  1AA7  0084               	movwf	4
 14159  1AA8  0872               	movf	putstr@p+1,w
 14160  1AA9  0085               	movwf	5
 14161  1AAA  0800               	movf	0,w	;code access
 14162  1AAB  319A  227D  319A   	fcall	_EUSART_Write
 14163  1AAE                     l4503:
 14164                           
 14165                           ;main.c: 127:             p++;
 14166  1AAE  3001               	movlw	1
 14167  1AAF  07F1               	addwf	putstr@p,f
 14168  1AB0  3000               	movlw	0
 14169  1AB1  3DF2               	addwfc	putstr@p+1,f
 14170  1AB2                     l4505:
 14171                           
 14172                           ;main.c: 125:         while(*p){
 14173  1AB2  0871               	movf	putstr@p,w
 14174  1AB3  0084               	movwf	4
 14175  1AB4  0872               	movf	putstr@p+1,w
 14176  1AB5  0085               	movwf	5
 14177  1AB6  0012               	moviw fsr0++
 14178  1AB7  1D03               	btfss	3,2
 14179  1AB8  2ABA               	goto	u6431
 14180  1AB9  2ABB               	goto	u6430
 14181  1ABA                     u6431:
 14182  1ABA  2AA6               	goto	l4501
 14183  1ABB                     u6430:
 14184  1ABB                     l194:
 14185  1ABB  0008               	return
 14186  1ABC                     __end_of_putstr:
 14187                           
 14188                           	psect	text36
 14189  1A7D                     __ptext36:	
 14190 ;; *************** function _EUSART_Write *****************
 14191 ;; Defined at:
 14192 ;;		line 132 in file "mcc_generated_files/eusart.c"
 14193 ;; Parameters:    Size  Location     Type
 14194 ;;  txData          1    wreg     unsigned char 
 14195 ;; Auto vars:     Size  Location     Type
 14196 ;;  txData          1    0[COMMON] unsigned char 
 14197 ;; Return value:  Size  Location     Type
 14198 ;;                  1    wreg      void 
 14199 ;; Registers used:
 14200 ;;		wreg
 14201 ;; Tracked objects:
 14202 ;;		On entry : 0/0
 14203 ;;		On exit  : 0/0
 14204 ;;		Unchanged: 0/0
 14205 ;; Data sizes:     COMMON   BANK0   BANK1   BANK2   BANK3   BANK4   BANK5   BANK6   BANK7   BANK8   BANK9  BANK10  BANK1
      +1  BANK12  BANK13  BANK14  BANK15  BANK16  BANK17  BANK18  BANK19  BANK20  BANK21  BANK22  BANK23  BANK24  BANK25
 14206 ;;      Params:         0       0       0       0       0       0       0       0       0       0       0       0       
      +0       0       0       0       0       0       0       0       0       0       0       0       0       0       0
 14207 ;;      Locals:         1       0       0       0       0       0       0       0       0       0       0       0       
      +0       0       0       0       0       0       0       0       0       0       0       0       0       0       0
 14208 ;;      Temps:          0       0       0       0       0       0       0       0       0       0       0       0       
      +0       0       0       0       0       0       0       0       0       0       0       0       0       0       0
 14209 ;;      Totals:         1       0       0       0       0       0       0       0       0       0       0       0       
      +0       0       0       0       0       0       0       0       0       0       0       0       0       0       0
 14210 ;;Total ram usage:        1 bytes
 14211 ;; Hardware stack levels used:    1
 14212 ;; This function calls:
 14213 ;;		Nothing
 14214 ;; This function is called by:
 14215 ;;		_putstr
 14216 ;; This function uses a non-reentrant model
 14217 ;;
 14218                           
 14219                           
 14220                           ;psect for function _EUSART_Write
 14221  1A7D                     _EUSART_Write:
 14222                           
 14223                           ;incstack = 0
 14224                           ; Regs used in _EUSART_Write: [wreg]
 14225                           ;EUSART_Write@txData stored from wreg
 14226  1A7D  00F0               	movwf	EUSART_Write@txData
 14227  1A7E                     l4421:
 14228  1A7E                     l67:	
 14229                           ;mcc_generated_files/eusart.c: 135:     {;mcc_generated_files/eusart.c: 136:     }
 14230                           
 14231                           
 14232                           ;mcc_generated_files/eusart.c: 134:     while(0 == PIR1bits.TXIF)
 14233  1A7E  0020               	movlb	0	; select bank0
 14234  1A7F  1E11               	btfss	17,4	;volatile
 14235  1A80  2A82               	goto	u6411
 14236  1A81  2A83               	goto	u6410
 14237  1A82                     u6411:
 14238  1A82  2A7E               	goto	l67
 14239  1A83                     u6410:
 14240  1A83                     l4423:
 14241                           
 14242                           ;mcc_generated_files/eusart.c: 138:     TX1REG = txData;
 14243  1A83  0870               	movf	EUSART_Write@txData,w
 14244  1A84  0023               	movlb	3	; select bank3
 14245  1A85  009A               	movwf	26	;volatile
 14246  1A86                     l70:
 14247  1A86  0008               	return
 14248  1A87                     __end_of_EUSART_Write:
 14249                           
 14250                           	psect	text37
 14251  0004                     __ptext37:	
 14252 ;; *************** function ___xxtofl *****************
 14253 ;; Defined at:
 14254 ;;		line 10 in file "C:\Program Files\Microchip\xc8\v2.31\pic\sources\c99\common\xxtofl.c"
 14255 ;; Parameters:    Size  Location     Type
 14256 ;;  sign            1    wreg     unsigned char 
 14257 ;;  val             4    0[COMMON] long 
 14258 ;; Auto vars:     Size  Location     Type
 14259 ;;  sign            1    8[COMMON] unsigned char 
 14260 ;;  arg             4   10[COMMON] unsigned long 
 14261 ;;  exp             1    9[COMMON] unsigned char 
 14262 ;; Return value:  Size  Location     Type
 14263 ;;                  4    0[COMMON] unsigned char 
 14264 ;; Registers used:
 14265 ;;		wreg, status,2, status,0
 14266 ;; Tracked objects:
 14267 ;;		On entry : 0/0
 14268 ;;		On exit  : 0/0
 14269 ;;		Unchanged: 0/0
 14270 ;; Data sizes:     COMMON   BANK0   BANK1   BANK2   BANK3   BANK4   BANK5   BANK6   BANK7   BANK8   BANK9  BANK10  BANK1
      +1  BANK12  BANK13  BANK14  BANK15  BANK16  BANK17  BANK18  BANK19  BANK20  BANK21  BANK22  BANK23  BANK24  BANK25
 14271 ;;      Params:         4       0       0       0       0       0       0       0       0       0       0       0       
      +0       0       0       0       0       0       0       0       0       0       0       0       0       0       0
 14272 ;;      Locals:         6       0       0       0       0       0       0       0       0       0       0       0       
      +0       0       0       0       0       0       0       0       0       0       0       0       0       0       0
 14273 ;;      Temps:          4       0       0       0       0       0       0       0       0       0       0       0       
      +0       0       0       0       0       0       0       0       0       0       0       0       0       0       0
 14274 ;;      Totals:        14       0       0       0       0       0       0       0       0       0       0       0       
      +0       0       0       0       0       0       0       0       0       0       0       0       0       0       0
 14275 ;;Total ram usage:       14 bytes
 14276 ;; Hardware stack levels used:    1
 14277 ;; This function calls:
 14278 ;;		Nothing
 14279 ;; This function is called by:
 14280 ;;		_main
 14281 ;; This function uses a non-reentrant model
 14282 ;;
 14283                           
 14284                           
 14285                           ;psect for function ___xxtofl
 14286  0004                     ___xxtofl:
 14287                           
 14288                           ;incstack = 0
 14289                           ; Regs used in ___xxtofl: [wreg+status,2+status,0]
 14290                           ;___xxtofl@sign stored from wreg
 14291  0004  00F8               	movwf	___xxtofl@sign
 14292  0005                     l4531:
 14293  0005  0878               	movf	___xxtofl@sign,w
 14294  0006  1903               	btfsc	3,2
 14295  0007  2809               	goto	u6451
 14296  0008  280A               	goto	u6450
 14297  0009                     u6451:
 14298  0009  281E               	goto	l4537
 14299  000A                     u6450:
 14300  000A                     l4533:
 14301  000A  1FF3               	btfss	___xxtofl@val+3,7
 14302  000B  280D               	goto	u6461
 14303  000C  280E               	goto	u6460
 14304  000D                     u6461:
 14305  000D  281E               	goto	l4537
 14306  000E                     u6460:
 14307  000E                     l4535:
 14308  000E  0970               	comf	___xxtofl@val,w
 14309  000F  00FA               	movwf	___xxtofl@arg
 14310  0010  0971               	comf	___xxtofl@val+1,w
 14311  0011  00FB               	movwf	___xxtofl@arg+1
 14312  0012  0972               	comf	___xxtofl@val+2,w
 14313  0013  00FC               	movwf	___xxtofl@arg+2
 14314  0014  0973               	comf	___xxtofl@val+3,w
 14315  0015  00FD               	movwf	___xxtofl@arg+3
 14316  0016  0AFA               	incf	___xxtofl@arg,f
 14317  0017  1903               	skipnz
 14318  0018  0AFB               	incf	___xxtofl@arg+1,f
 14319  0019  1903               	skipnz
 14320  001A  0AFC               	incf	___xxtofl@arg+2,f
 14321  001B  1903               	skipnz
 14322  001C  0AFD               	incf	___xxtofl@arg+3,f
 14323  001D  2826               	goto	l851
 14324  001E                     l4537:
 14325  001E  0873               	movf	___xxtofl@val+3,w
 14326  001F  00FD               	movwf	___xxtofl@arg+3
 14327  0020  0872               	movf	___xxtofl@val+2,w
 14328  0021  00FC               	movwf	___xxtofl@arg+2
 14329  0022  0871               	movf	___xxtofl@val+1,w
 14330  0023  00FB               	movwf	___xxtofl@arg+1
 14331  0024  0870               	movf	___xxtofl@val,w
 14332  0025  00FA               	movwf	___xxtofl@arg
 14333  0026                     l851:
 14334  0026  0873               	movf	___xxtofl@val+3,w
 14335  0027  0472               	iorwf	___xxtofl@val+2,w
 14336  0028  0471               	iorwf	___xxtofl@val+1,w
 14337  0029  0470               	iorwf	___xxtofl@val,w
 14338  002A  1D03               	skipz
 14339  002B  282D               	goto	u6471
 14340  002C  282E               	goto	u6470
 14341  002D                     u6471:
 14342  002D  2837               	goto	l4543
 14343  002E                     u6470:
 14344  002E                     l4539:
 14345  002E  3000               	movlw	0
 14346  002F  00F3               	movwf	?___xxtofl+3
 14347  0030  3000               	movlw	0
 14348  0031  00F2               	movwf	?___xxtofl+2
 14349  0032  3000               	movlw	0
 14350  0033  00F1               	movwf	?___xxtofl+1
 14351  0034  3000               	movlw	0
 14352  0035  00F0               	movwf	?___xxtofl
 14353  0036  28AF               	goto	l853
 14354  0037                     l4543:
 14355  0037  3096               	movlw	150
 14356  0038  00F4               	movwf	??___xxtofl
 14357  0039  0874               	movf	??___xxtofl,w
 14358  003A  00F9               	movwf	___xxtofl@exp
 14359  003B  2847               	goto	l4547
 14360  003C                     l4545:
 14361  003C  3001               	movlw	1
 14362  003D  00F4               	movwf	??___xxtofl
 14363  003E  0874               	movf	??___xxtofl,w
 14364  003F  07F9               	addwf	___xxtofl@exp,f
 14365  0040  3001               	movlw	1
 14366  0041                     u6485:
 14367  0041  36FD               	lsrf	___xxtofl@arg+3,f
 14368  0042  0CFC               	rrf	___xxtofl@arg+2,f
 14369  0043  0CFB               	rrf	___xxtofl@arg+1,f
 14370  0044  0CFA               	rrf	___xxtofl@arg,f
 14371  0045  0B89               	decfsz	9,f
 14372  0046  2841               	goto	u6485
 14373  0047                     l4547:
 14374  0047  30FE               	movlw	254
 14375  0048  057D               	andwf	___xxtofl@arg+3,w
 14376  0049  1D03               	btfss	3,2
 14377  004A  284C               	goto	u6491
 14378  004B  284D               	goto	u6490
 14379  004C                     u6491:
 14380  004C  283C               	goto	l4545
 14381  004D                     u6490:
 14382  004D  2861               	goto	l857
 14383  004E                     l4549:
 14384  004E  3001               	movlw	1
 14385  004F  00F4               	movwf	??___xxtofl
 14386  0050  0874               	movf	??___xxtofl,w
 14387  0051  07F9               	addwf	___xxtofl@exp,f
 14388  0052                     l4551:
 14389  0052  3001               	movlw	1
 14390  0053  07FA               	addwf	___xxtofl@arg,f
 14391  0054  3000               	movlw	0
 14392  0055  3DFB               	addwfc	___xxtofl@arg+1,f
 14393  0056  3000               	movlw	0
 14394  0057  3DFC               	addwfc	___xxtofl@arg+2,f
 14395  0058  3000               	movlw	0
 14396  0059  3DFD               	addwfc	___xxtofl@arg+3,f
 14397  005A                     l4553:
 14398  005A  3001               	movlw	1
 14399  005B                     u6505:
 14400  005B  36FD               	lsrf	___xxtofl@arg+3,f
 14401  005C  0CFC               	rrf	___xxtofl@arg+2,f
 14402  005D  0CFB               	rrf	___xxtofl@arg+1,f
 14403  005E  0CFA               	rrf	___xxtofl@arg,f
 14404  005F  0B89               	decfsz	9,f
 14405  0060  285B               	goto	u6505
 14406  0061                     l857:
 14407  0061  30FF               	movlw	255
 14408  0062  057D               	andwf	___xxtofl@arg+3,w
 14409  0063  1D03               	btfss	3,2
 14410  0064  2866               	goto	u6511
 14411  0065  2867               	goto	u6510
 14412  0066                     u6511:
 14413  0066  284E               	goto	l4549
 14414  0067                     u6510:
 14415  0067  2871               	goto	l4557
 14416  0068                     l4555:
 14417  0068  3001               	movlw	1
 14418  0069  02F9               	subwf	___xxtofl@exp,f
 14419  006A  3001               	movlw	1
 14420  006B                     u6525:
 14421  006B  35FA               	lslf	___xxtofl@arg,f
 14422  006C  0DFB               	rlf	___xxtofl@arg+1,f
 14423  006D  0DFC               	rlf	___xxtofl@arg+2,f
 14424  006E  0DFD               	rlf	___xxtofl@arg+3,f
 14425  006F  0B89               	decfsz	9,f
 14426  0070  286B               	goto	u6525
 14427  0071                     l4557:
 14428  0071  1BFC               	btfsc	___xxtofl@arg+2,7
 14429  0072  2874               	goto	u6531
 14430  0073  2875               	goto	u6530
 14431  0074                     u6531:
 14432  0074  287B               	goto	l864
 14433  0075                     u6530:
 14434  0075                     l4559:
 14435  0075  3002               	movlw	2
 14436  0076  0279               	subwf	___xxtofl@exp,w
 14437  0077  1803               	skipnc
 14438  0078  287A               	goto	u6541
 14439  0079  287B               	goto	u6540
 14440  007A                     u6541:
 14441  007A  2868               	goto	l4555
 14442  007B                     u6540:
 14443  007B                     l864:
 14444  007B  1879               	btfsc	___xxtofl@exp,0
 14445  007C  287E               	goto	u6551
 14446  007D  287F               	goto	u6550
 14447  007E                     u6551:
 14448  007E  2887               	goto	l865
 14449  007F                     u6550:
 14450  007F                     l4561:
 14451  007F  30FF               	movlw	255
 14452  0080  05FA               	andwf	___xxtofl@arg,f
 14453  0081  30FF               	movlw	255
 14454  0082  05FB               	andwf	___xxtofl@arg+1,f
 14455  0083  307F               	movlw	127
 14456  0084  05FC               	andwf	___xxtofl@arg+2,f
 14457  0085  30FF               	movlw	255
 14458  0086  05FD               	andwf	___xxtofl@arg+3,f
 14459  0087                     l865:
 14460  0087  1003               	clrc
 14461  0088  0CF9               	rrf	___xxtofl@exp,f
 14462  0089                     l4563:
 14463  0089  0879               	movf	___xxtofl@exp,w
 14464  008A  00F4               	movwf	??___xxtofl
 14465  008B  01F5               	clrf	??___xxtofl+1
 14466  008C  01F6               	clrf	??___xxtofl+2
 14467  008D  01F7               	clrf	??___xxtofl+3
 14468  008E  3018               	movlw	24
 14469  008F                     u6565:
 14470  008F  35F4               	lslf	??___xxtofl,f
 14471  0090  0DF5               	rlf	??___xxtofl+1,f
 14472  0091  0DF6               	rlf	??___xxtofl+2,f
 14473  0092  0DF7               	rlf	??___xxtofl+3,f
 14474  0093                     u6560:
 14475  0093  0B89               	decfsz	9,f
 14476  0094  288F               	goto	u6565
 14477  0095  0874               	movf	??___xxtofl,w
 14478  0096  04FA               	iorwf	___xxtofl@arg,f
 14479  0097  0875               	movf	??___xxtofl+1,w
 14480  0098  04FB               	iorwf	___xxtofl@arg+1,f
 14481  0099  0876               	movf	??___xxtofl+2,w
 14482  009A  04FC               	iorwf	___xxtofl@arg+2,f
 14483  009B  0877               	movf	??___xxtofl+3,w
 14484  009C  04FD               	iorwf	___xxtofl@arg+3,f
 14485  009D                     l4565:
 14486  009D  0878               	movf	___xxtofl@sign,w
 14487  009E  1903               	btfsc	3,2
 14488  009F  28A1               	goto	u6571
 14489  00A0  28A2               	goto	u6570
 14490  00A1                     u6571:
 14491  00A1  28A7               	goto	l4571
 14492  00A2                     u6570:
 14493  00A2                     l4567:
 14494  00A2  1FF3               	btfss	___xxtofl@val+3,7
 14495  00A3  28A5               	goto	u6581
 14496  00A4  28A6               	goto	u6580
 14497  00A5                     u6581:
 14498  00A5  28A7               	goto	l4571
 14499  00A6                     u6580:
 14500  00A6                     l4569:
 14501  00A6  17FD               	bsf	___xxtofl@arg+3,7
 14502  00A7                     l4571:
 14503  00A7  087D               	movf	___xxtofl@arg+3,w
 14504  00A8  00F3               	movwf	?___xxtofl+3
 14505  00A9  087C               	movf	___xxtofl@arg+2,w
 14506  00AA  00F2               	movwf	?___xxtofl+2
 14507  00AB  087B               	movf	___xxtofl@arg+1,w
 14508  00AC  00F1               	movwf	?___xxtofl+1
 14509  00AD  087A               	movf	___xxtofl@arg,w
 14510  00AE  00F0               	movwf	?___xxtofl
 14511  00AF                     l853:
 14512  00AF  0008               	return
 14513  00B0                     __end_of___xxtofl:
 14514                           
 14515                           	psect	text38
 14516  1A92                     __ptext38:	
 14517 ;; *************** function _SYSTEM_Initialize *****************
 14518 ;; Defined at:
 14519 ;;		line 50 in file "mcc_generated_files/mcc.c"
 14520 ;; Parameters:    Size  Location     Type
 14521 ;;		None
 14522 ;; Auto vars:     Size  Location     Type
 14523 ;;		None
 14524 ;; Return value:  Size  Location     Type
 14525 ;;                  1    wreg      void 
 14526 ;; Registers used:
 14527 ;;		wreg, status,2, status,0, pclath, cstack
 14528 ;; Tracked objects:
 14529 ;;		On entry : 0/0
 14530 ;;		On exit  : 0/0
 14531 ;;		Unchanged: 0/0
 14532 ;; Data sizes:     COMMON   BANK0   BANK1   BANK2   BANK3   BANK4   BANK5   BANK6   BANK7   BANK8   BANK9  BANK10  BANK1
      +1  BANK12  BANK13  BANK14  BANK15  BANK16  BANK17  BANK18  BANK19  BANK20  BANK21  BANK22  BANK23  BANK24  BANK25
 14533 ;;      Params:         0       0       0       0       0       0       0       0       0       0       0       0       
      +0       0       0       0       0       0       0       0       0       0       0       0       0       0       0
 14534 ;;      Locals:         0       0       0       0       0       0       0       0       0       0       0       0       
      +0       0       0       0       0       0       0       0       0       0       0       0       0       0       0
 14535 ;;      Temps:          0       0       0       0       0       0       0       0       0       0       0       0       
      +0       0       0       0       0       0       0       0       0       0       0       0       0       0       0
 14536 ;;      Totals:         0       0       0       0       0       0       0       0       0       0       0       0       
      +0       0       0       0       0       0       0       0       0       0       0       0       0       0       0
 14537 ;;Total ram usage:        0 bytes
 14538 ;; Hardware stack levels used:    1
 14539 ;; Hardware stack levels required when called:    2
 14540 ;; This function calls:
 14541 ;;		_ADC_Initialize
 14542 ;;		_EUSART_Initialize
 14543 ;;		_OSCILLATOR_Initialize
 14544 ;;		_PIN_MANAGER_Initialize
 14545 ;;		_PMD_Initialize
 14546 ;;		_WDT_Initialize
 14547 ;; This function is called by:
 14548 ;;		_main
 14549 ;; This function uses a non-reentrant model
 14550 ;;
 14551                           
 14552                           
 14553                           ;psect for function _SYSTEM_Initialize
 14554  1A92                     _SYSTEM_Initialize:
 14555  1A92                     l4487:	
 14556                           ;incstack = 0
 14557                           ; Regs used in _SYSTEM_Initialize: [wreg+status,2+status,0+pclath+cstack]
 14558                           
 14559                           
 14560                           ;mcc_generated_files/mcc.c: 53:     PMD_Initialize();
 14561  1A92  319A  2263  319A   	fcall	_PMD_Initialize
 14562  1A95                     l4489:
 14563                           
 14564                           ;mcc_generated_files/mcc.c: 54:     PIN_MANAGER_Initialize();
 14565  1A95  319B  23DE  319A   	fcall	_PIN_MANAGER_Initialize
 14566  1A98                     l4491:
 14567                           
 14568                           ;mcc_generated_files/mcc.c: 55:     OSCILLATOR_Initialize();
 14569  1A98  319A  2274  319A   	fcall	_OSCILLATOR_Initialize
 14570  1A9B                     l4493:
 14571                           
 14572                           ;mcc_generated_files/mcc.c: 56:     WDT_Initialize();
 14573  1A9B  319A  2247  319A   	fcall	_WDT_Initialize
 14574  1A9E                     l4495:
 14575                           
 14576                           ;mcc_generated_files/mcc.c: 57:     ADC_Initialize();
 14577  1A9E  319A  226B  319A   	fcall	_ADC_Initialize
 14578  1AA1                     l4497:
 14579                           
 14580                           ;mcc_generated_files/mcc.c: 58:     EUSART_Initialize();
 14581  1AA1  3190  2000  319A   	fcall	_EUSART_Initialize
 14582  1AA4                     l165:
 14583  1AA4  0008               	return
 14584  1AA5                     __end_of_SYSTEM_Initialize:
 14585                           
 14586                           	psect	text39
 14587  1A47                     __ptext39:	
 14588 ;; *************** function _WDT_Initialize *****************
 14589 ;; Defined at:
 14590 ;;		line 75 in file "mcc_generated_files/mcc.c"
 14591 ;; Parameters:    Size  Location     Type
 14592 ;;		None
 14593 ;; Auto vars:     Size  Location     Type
 14594 ;;		None
 14595 ;; Return value:  Size  Location     Type
 14596 ;;                  1    wreg      void 
 14597 ;; Registers used:
 14598 ;;		wreg
 14599 ;; Tracked objects:
 14600 ;;		On entry : 0/0
 14601 ;;		On exit  : 0/0
 14602 ;;		Unchanged: 0/0
 14603 ;; Data sizes:     COMMON   BANK0   BANK1   BANK2   BANK3   BANK4   BANK5   BANK6   BANK7   BANK8   BANK9  BANK10  BANK1
      +1  BANK12  BANK13  BANK14  BANK15  BANK16  BANK17  BANK18  BANK19  BANK20  BANK21  BANK22  BANK23  BANK24  BANK25
 14604 ;;      Params:         0       0       0       0       0       0       0       0       0       0       0       0       
      +0       0       0       0       0       0       0       0       0       0       0       0       0       0       0
 14605 ;;      Locals:         0       0       0       0       0       0       0       0       0       0       0       0       
      +0       0       0       0       0       0       0       0       0       0       0       0       0       0       0
 14606 ;;      Temps:          0       0       0       0       0       0       0       0       0       0       0       0       
      +0       0       0       0       0       0       0       0       0       0       0       0       0       0       0
 14607 ;;      Totals:         0       0       0       0       0       0       0       0       0       0       0       0       
      +0       0       0       0       0       0       0       0       0       0       0       0       0       0       0
 14608 ;;Total ram usage:        0 bytes
 14609 ;; Hardware stack levels used:    1
 14610 ;; This function calls:
 14611 ;;		Nothing
 14612 ;; This function is called by:
 14613 ;;		_SYSTEM_Initialize
 14614 ;; This function uses a non-reentrant model
 14615 ;;
 14616                           
 14617                           
 14618                           ;psect for function _WDT_Initialize
 14619  1A47                     _WDT_Initialize:
 14620  1A47                     l4463:	
 14621                           ;incstack = 0
 14622                           ; Regs used in _WDT_Initialize: [wreg]
 14623                           
 14624                           
 14625                           ;mcc_generated_files/mcc.c: 78:     WDTCON = 0x16;
 14626  1A47  3016               	movlw	22
 14627  1A48  0021               	movlb	1	; select bank1
 14628  1A49  0097               	movwf	23	;volatile
 14629  1A4A                     l171:
 14630  1A4A  0008               	return
 14631  1A4B                     __end_of_WDT_Initialize:
 14632                           
 14633                           	psect	text40
 14634  1A63                     __ptext40:	
 14635 ;; *************** function _PMD_Initialize *****************
 14636 ;; Defined at:
 14637 ;;		line 81 in file "mcc_generated_files/mcc.c"
 14638 ;; Parameters:    Size  Location     Type
 14639 ;;		None
 14640 ;; Auto vars:     Size  Location     Type
 14641 ;;		None
 14642 ;; Return value:  Size  Location     Type
 14643 ;;                  1    wreg      void 
 14644 ;; Registers used:
 14645 ;;		status,2
 14646 ;; Tracked objects:
 14647 ;;		On entry : 0/0
 14648 ;;		On exit  : 0/0
 14649 ;;		Unchanged: 0/0
 14650 ;; Data sizes:     COMMON   BANK0   BANK1   BANK2   BANK3   BANK4   BANK5   BANK6   BANK7   BANK8   BANK9  BANK10  BANK1
      +1  BANK12  BANK13  BANK14  BANK15  BANK16  BANK17  BANK18  BANK19  BANK20  BANK21  BANK22  BANK23  BANK24  BANK25
 14651 ;;      Params:         0       0       0       0       0       0       0       0       0       0       0       0       
      +0       0       0       0       0       0       0       0       0       0       0       0       0       0       0
 14652 ;;      Locals:         0       0       0       0       0       0       0       0       0       0       0       0       
      +0       0       0       0       0       0       0       0       0       0       0       0       0       0       0
 14653 ;;      Temps:          0       0       0       0       0       0       0       0       0       0       0       0       
      +0       0       0       0       0       0       0       0       0       0       0       0       0       0       0
 14654 ;;      Totals:         0       0       0       0       0       0       0       0       0       0       0       0       
      +0       0       0       0       0       0       0       0       0       0       0       0       0       0       0
 14655 ;;Total ram usage:        0 bytes
 14656 ;; Hardware stack levels used:    1
 14657 ;; This function calls:
 14658 ;;		Nothing
 14659 ;; This function is called by:
 14660 ;;		_SYSTEM_Initialize
 14661 ;; This function uses a non-reentrant model
 14662 ;;
 14663                           
 14664                           
 14665                           ;psect for function _PMD_Initialize
 14666  1A63                     _PMD_Initialize:
 14667  1A63                     l4453:	
 14668                           ;incstack = 0
 14669                           ; Regs used in _PMD_Initialize: [status,2]
 14670                           
 14671                           
 14672                           ;mcc_generated_files/mcc.c: 84:     PMD0 = 0x00;
 14673  1A63  0032               	movlb	18	; select bank18
 14674  1A64  0191               	clrf	17	;volatile
 14675                           
 14676                           ;mcc_generated_files/mcc.c: 86:     PMD1 = 0x00;
 14677  1A65  0192               	clrf	18	;volatile
 14678                           
 14679                           ;mcc_generated_files/mcc.c: 88:     PMD2 = 0x00;
 14680  1A66  0193               	clrf	19	;volatile
 14681                           
 14682                           ;mcc_generated_files/mcc.c: 90:     PMD3 = 0x00;
 14683  1A67  0194               	clrf	20	;volatile
 14684                           
 14685                           ;mcc_generated_files/mcc.c: 92:     PMD4 = 0x00;
 14686  1A68  0195               	clrf	21	;volatile
 14687                           
 14688                           ;mcc_generated_files/mcc.c: 94:     PMD5 = 0x00;
 14689  1A69  0196               	clrf	22	;volatile
 14690  1A6A                     l174:
 14691  1A6A  0008               	return
 14692  1A6B                     __end_of_PMD_Initialize:
 14693                           
 14694                           	psect	text41
 14695  1BDE                     __ptext41:	
 14696 ;; *************** function _PIN_MANAGER_Initialize *****************
 14697 ;; Defined at:
 14698 ;;		line 55 in file "mcc_generated_files/pin_manager.c"
 14699 ;; Parameters:    Size  Location     Type
 14700 ;;		None
 14701 ;; Auto vars:     Size  Location     Type
 14702 ;;		None
 14703 ;; Return value:  Size  Location     Type
 14704 ;;                  1    wreg      void 
 14705 ;; Registers used:
 14706 ;;		wreg, status,2
 14707 ;; Tracked objects:
 14708 ;;		On entry : 0/0
 14709 ;;		On exit  : 0/0
 14710 ;;		Unchanged: 0/0
 14711 ;; Data sizes:     COMMON   BANK0   BANK1   BANK2   BANK3   BANK4   BANK5   BANK6   BANK7   BANK8   BANK9  BANK10  BANK1
      +1  BANK12  BANK13  BANK14  BANK15  BANK16  BANK17  BANK18  BANK19  BANK20  BANK21  BANK22  BANK23  BANK24  BANK25
 14712 ;;      Params:         0       0       0       0       0       0       0       0       0       0       0       0       
      +0       0       0       0       0       0       0       0       0       0       0       0       0       0       0
 14713 ;;      Locals:         0       0       0       0       0       0       0       0       0       0       0       0       
      +0       0       0       0       0       0       0       0       0       0       0       0       0       0       0
 14714 ;;      Temps:          0       0       0       0       0       0       0       0       0       0       0       0       
      +0       0       0       0       0       0       0       0       0       0       0       0       0       0       0
 14715 ;;      Totals:         0       0       0       0       0       0       0       0       0       0       0       0       
      +0       0       0       0       0       0       0       0       0       0       0       0       0       0       0
 14716 ;;Total ram usage:        0 bytes
 14717 ;; Hardware stack levels used:    1
 14718 ;; This function calls:
 14719 ;;		Nothing
 14720 ;; This function is called by:
 14721 ;;		_SYSTEM_Initialize
 14722 ;; This function uses a non-reentrant model
 14723 ;;
 14724                           
 14725                           
 14726                           ;psect for function _PIN_MANAGER_Initialize
 14727  1BDE                     _PIN_MANAGER_Initialize:
 14728  1BDE                     l4425:	
 14729                           ;incstack = 0
 14730                           ; Regs used in _PIN_MANAGER_Initialize: [wreg+status,2]
 14731                           
 14732                           
 14733                           ;mcc_generated_files/pin_manager.c: 60:     LATA = 0x00;
 14734  1BDE  0022               	movlb	2	; select bank2
 14735  1BDF  018C               	clrf	12	;volatile
 14736                           
 14737                           ;mcc_generated_files/pin_manager.c: 61:     LATC = 0x00;
 14738  1BE0  018E               	clrf	14	;volatile
 14739  1BE1                     l4427:
 14740                           
 14741                           ;mcc_generated_files/pin_manager.c: 66:     TRISA = 0x07;
 14742  1BE1  3007               	movlw	7
 14743  1BE2  0021               	movlb	1	; select bank1
 14744  1BE3  008C               	movwf	12	;volatile
 14745  1BE4                     l4429:
 14746                           
 14747                           ;mcc_generated_files/pin_manager.c: 67:     TRISC = 0x24;
 14748  1BE4  3024               	movlw	36
 14749  1BE5  008E               	movwf	14	;volatile
 14750  1BE6                     l4431:
 14751                           
 14752                           ;mcc_generated_files/pin_manager.c: 72:     ANSELC = 0x0B;
 14753  1BE6  300B               	movlw	11
 14754  1BE7  0023               	movlb	3	; select bank3
 14755  1BE8  008E               	movwf	14	;volatile
 14756  1BE9                     l4433:
 14757                           
 14758                           ;mcc_generated_files/pin_manager.c: 73:     ANSELA = 0x07;
 14759  1BE9  3007               	movlw	7
 14760  1BEA  008C               	movwf	12	;volatile
 14761                           
 14762                           ;mcc_generated_files/pin_manager.c: 78:     WPUA = 0x00;
 14763  1BEB  0024               	movlb	4	; select bank4
 14764  1BEC  018C               	clrf	12	;volatile
 14765  1BED                     l4435:
 14766                           
 14767                           ;mcc_generated_files/pin_manager.c: 79:     WPUC = 0x04;
 14768  1BED  3004               	movlw	4
 14769  1BEE  008E               	movwf	14	;volatile
 14770  1BEF                     l4437:
 14771                           
 14772                           ;mcc_generated_files/pin_manager.c: 84:     ODCONA = 0x00;
 14773  1BEF  0025               	movlb	5	; select bank5
 14774  1BF0  018C               	clrf	12	;volatile
 14775  1BF1                     l4439:
 14776                           
 14777                           ;mcc_generated_files/pin_manager.c: 85:     ODCONC = 0x00;
 14778  1BF1  018E               	clrf	14	;volatile
 14779  1BF2                     l4441:
 14780                           
 14781                           ;mcc_generated_files/pin_manager.c: 90:     SLRCONA = 0x37;
 14782  1BF2  3037               	movlw	55
 14783  1BF3  0026               	movlb	6	; select bank6
 14784  1BF4  008C               	movwf	12	;volatile
 14785  1BF5                     l4443:
 14786                           
 14787                           ;mcc_generated_files/pin_manager.c: 91:     SLRCONC = 0x3F;
 14788  1BF5  303F               	movlw	63
 14789  1BF6  008E               	movwf	14	;volatile
 14790  1BF7                     l4445:
 14791                           
 14792                           ;mcc_generated_files/pin_manager.c: 96:     INLVLA = 0x3F;
 14793  1BF7  303F               	movlw	63
 14794  1BF8  0027               	movlb	7	; select bank7
 14795  1BF9  008C               	movwf	12	;volatile
 14796  1BFA                     l4447:
 14797                           
 14798                           ;mcc_generated_files/pin_manager.c: 97:     INLVLC = 0x3F;
 14799  1BFA  303F               	movlw	63
 14800  1BFB  008E               	movwf	14	;volatile
 14801  1BFC                     l4449:
 14802                           
 14803                           ;mcc_generated_files/pin_manager.c: 106:     RXPPS = 0x15;
 14804  1BFC  3015               	movlw	21
 14805  1BFD  003C               	movlb	28	; select bank28
 14806  1BFE  00A4               	movwf	36	;volatile
 14807  1BFF                     l4451:
 14808                           
 14809                           ;mcc_generated_files/pin_manager.c: 107:     RC4PPS = 0x14;
 14810  1BFF  3014               	movlw	20
 14811  1C00  003D               	movlb	29	; select bank29
 14812  1C01  00A4               	movwf	36	;volatile
 14813  1C02                     l123:
 14814  1C02  0008               	return
 14815  1C03                     __end_of_PIN_MANAGER_Initialize:
 14816                           
 14817                           	psect	text42
 14818  1A74                     __ptext42:	
 14819 ;; *************** function _OSCILLATOR_Initialize *****************
 14820 ;; Defined at:
 14821 ;;		line 61 in file "mcc_generated_files/mcc.c"
 14822 ;; Parameters:    Size  Location     Type
 14823 ;;		None
 14824 ;; Auto vars:     Size  Location     Type
 14825 ;;		None
 14826 ;; Return value:  Size  Location     Type
 14827 ;;                  1    wreg      void 
 14828 ;; Registers used:
 14829 ;;		wreg, status,2
 14830 ;; Tracked objects:
 14831 ;;		On entry : 0/0
 14832 ;;		On exit  : 0/0
 14833 ;;		Unchanged: 0/0
 14834 ;; Data sizes:     COMMON   BANK0   BANK1   BANK2   BANK3   BANK4   BANK5   BANK6   BANK7   BANK8   BANK9  BANK10  BANK1
      +1  BANK12  BANK13  BANK14  BANK15  BANK16  BANK17  BANK18  BANK19  BANK20  BANK21  BANK22  BANK23  BANK24  BANK25
 14835 ;;      Params:         0       0       0       0       0       0       0       0       0       0       0       0       
      +0       0       0       0       0       0       0       0       0       0       0       0       0       0       0
 14836 ;;      Locals:         0       0       0       0       0       0       0       0       0       0       0       0       
      +0       0       0       0       0       0       0       0       0       0       0       0       0       0       0
 14837 ;;      Temps:          0       0       0       0       0       0       0       0       0       0       0       0       
      +0       0       0       0       0       0       0       0       0       0       0       0       0       0       0
 14838 ;;      Totals:         0       0       0       0       0       0       0       0       0       0       0       0       
      +0       0       0       0       0       0       0       0       0       0       0       0       0       0       0
 14839 ;;Total ram usage:        0 bytes
 14840 ;; Hardware stack levels used:    1
 14841 ;; This function calls:
 14842 ;;		Nothing
 14843 ;; This function is called by:
 14844 ;;		_SYSTEM_Initialize
 14845 ;; This function uses a non-reentrant model
 14846 ;;
 14847                           
 14848                           
 14849                           ;psect for function _OSCILLATOR_Initialize
 14850  1A74                     _OSCILLATOR_Initialize:
 14851  1A74                     l4455:	
 14852                           ;incstack = 0
 14853                           ; Regs used in _OSCILLATOR_Initialize: [wreg+status,2]
 14854                           
 14855                           
 14856                           ;mcc_generated_files/mcc.c: 64:     OSCCON1 = 0x60;
 14857  1A74  3060               	movlw	96
 14858  1A75  0032               	movlb	18	; select bank18
 14859  1A76  0099               	movwf	25	;volatile
 14860  1A77                     l4457:
 14861                           
 14862                           ;mcc_generated_files/mcc.c: 66:     OSCCON3 = 0x00;
 14863  1A77  019B               	clrf	27	;volatile
 14864  1A78                     l4459:
 14865                           
 14866                           ;mcc_generated_files/mcc.c: 68:     OSCEN = 0x00;
 14867  1A78  019D               	clrf	29	;volatile
 14868                           
 14869                           ;mcc_generated_files/mcc.c: 70:     OSCFRQ = 0x03;
 14870  1A79  3003               	movlw	3
 14871  1A7A  009F               	movwf	31	;volatile
 14872  1A7B                     l4461:
 14873                           
 14874                           ;mcc_generated_files/mcc.c: 72:     OSCTUNE = 0x00;
 14875  1A7B  019E               	clrf	30	;volatile
 14876  1A7C                     l168:
 14877  1A7C  0008               	return
 14878  1A7D                     __end_of_OSCILLATOR_Initialize:
 14879                           
 14880                           	psect	text43
 14881  1000                     __ptext43:	
 14882 ;; *************** function _EUSART_Initialize *****************
 14883 ;; Defined at:
 14884 ;;		line 66 in file "mcc_generated_files/eusart.c"
 14885 ;; Parameters:    Size  Location     Type
 14886 ;;		None
 14887 ;; Auto vars:     Size  Location     Type
 14888 ;;		None
 14889 ;; Return value:  Size  Location     Type
 14890 ;;                  1    wreg      void 
 14891 ;; Registers used:
 14892 ;;		wreg, status,2, status,0, pclath, cstack
 14893 ;; Tracked objects:
 14894 ;;		On entry : 0/0
 14895 ;;		On exit  : 0/0
 14896 ;;		Unchanged: 0/0
 14897 ;; Data sizes:     COMMON   BANK0   BANK1   BANK2   BANK3   BANK4   BANK5   BANK6   BANK7   BANK8   BANK9  BANK10  BANK1
      +1  BANK12  BANK13  BANK14  BANK15  BANK16  BANK17  BANK18  BANK19  BANK20  BANK21  BANK22  BANK23  BANK24  BANK25
 14898 ;;      Params:         0       0       0       0       0       0       0       0       0       0       0       0       
      +0       0       0       0       0       0       0       0       0       0       0       0       0       0       0
 14899 ;;      Locals:         0       0       0       0       0       0       0       0       0       0       0       0       
      +0       0       0       0       0       0       0       0       0       0       0       0       0       0       0
 14900 ;;      Temps:          0       0       0       0       0       0       0       0       0       0       0       0       
      +0       0       0       0       0       0       0       0       0       0       0       0       0       0       0
 14901 ;;      Totals:         0       0       0       0       0       0       0       0       0       0       0       0       
      +0       0       0       0       0       0       0       0       0       0       0       0       0       0       0
 14902 ;;Total ram usage:        0 bytes
 14903 ;; Hardware stack levels used:    1
 14904 ;; Hardware stack levels required when called:    1
 14905 ;; This function calls:
 14906 ;;		_EUSART_SetErrorHandler
 14907 ;;		_EUSART_SetFramingErrorHandler
 14908 ;;		_EUSART_SetOverrunErrorHandler
 14909 ;; This function is called by:
 14910 ;;		_SYSTEM_Initialize
 14911 ;; This function uses a non-reentrant model
 14912 ;;
 14913                           
 14914                           
 14915                           ;psect for function _EUSART_Initialize
 14916  1000                     _EUSART_Initialize:
 14917  1000                     l4409:	
 14918                           ;incstack = 0
 14919                           ; Regs used in _EUSART_Initialize: [wreg+status,2+status,0+pclath+cstack]
 14920                           
 14921                           
 14922                           ;mcc_generated_files/eusart.c: 71:     BAUD1CON = 0x08;
 14923  1000  3008               	movlw	8
 14924  1001  0023               	movlb	3	; select bank3
 14925  1002  009F               	movwf	31	;volatile
 14926                           
 14927                           ;mcc_generated_files/eusart.c: 74:     RC1STA = 0x90;
 14928  1003  3090               	movlw	144
 14929  1004  009D               	movwf	29	;volatile
 14930                           
 14931                           ;mcc_generated_files/eusart.c: 77:     TX1STA = 0x24;
 14932  1005  3024               	movlw	36
 14933  1006  009E               	movwf	30	;volatile
 14934                           
 14935                           ;mcc_generated_files/eusart.c: 80:     SP1BRGL = 0x67;
 14936  1007  3067               	movlw	103
 14937  1008  009B               	movwf	27	;volatile
 14938  1009                     l4411:
 14939                           
 14940                           ;mcc_generated_files/eusart.c: 83:     SP1BRGH = 0x00;
 14941  1009  019C               	clrf	28	;volatile
 14942  100A                     l4413:
 14943                           
 14944                           ;mcc_generated_files/eusart.c: 86:     EUSART_SetFramingErrorHandler(EUSART_DefaultFrami
      +                          ngErrorHandler);
 14945  100A  3000               	movlw	0
 14946  100B  00F0               	movwf	EUSART_SetFramingErrorHandler@interruptHandler
 14947  100C  3000               	movlw	0
 14948  100D  00F1               	movwf	EUSART_SetFramingErrorHandler@interruptHandler+1
 14949  100E  319A  2251  3190   	fcall	_EUSART_SetFramingErrorHandler
 14950  1011                     l4415:
 14951                           
 14952                           ;mcc_generated_files/eusart.c: 87:     EUSART_SetOverrunErrorHandler(EUSART_DefaultOverr
      +                          unErrorHandler);
 14953  1011  3000               	movlw	0
 14954  1012  00F0               	movwf	EUSART_SetOverrunErrorHandler@interruptHandler
 14955  1013  3000               	movlw	0
 14956  1014  00F1               	movwf	EUSART_SetOverrunErrorHandler@interruptHandler+1
 14957  1015  319A  2257  3190   	fcall	_EUSART_SetOverrunErrorHandler
 14958  1018                     l4417:
 14959                           
 14960                           ;mcc_generated_files/eusart.c: 88:     EUSART_SetErrorHandler(EUSART_DefaultErrorHandler
      +                          );
 14961  1018  3000               	movlw	0
 14962  1019  00F0               	movwf	EUSART_SetErrorHandler@interruptHandler
 14963  101A  3000               	movlw	0
 14964  101B  00F1               	movwf	EUSART_SetErrorHandler@interruptHandler+1
 14965  101C  319A  224B  3190   	fcall	_EUSART_SetErrorHandler
 14966  101F                     l4419:
 14967                           
 14968                           ;mcc_generated_files/eusart.c: 90:     eusartRxLastError.status = 0;
 14969  101F  0022               	movlb	2	; select bank2
 14970  1020  01DF               	clrf	_eusartRxLastError^(0+256)	;volatile
 14971  1021                     l43:
 14972  1021  0008               	return
 14973  1022                     __end_of_EUSART_Initialize:
 14974                           
 14975                           	psect	text44
 14976  1A57                     __ptext44:	
 14977 ;; *************** function _EUSART_SetOverrunErrorHandler *****************
 14978 ;; Defined at:
 14979 ;;		line 161 in file "mcc_generated_files/eusart.c"
 14980 ;; Parameters:    Size  Location     Type
 14981 ;;  interruptHan    2    0[COMMON] PTR FTN()void 
 14982 ;;		 -> EUSART_DefaultOverrunErrorHandler(1), 
 14983 ;; Auto vars:     Size  Location     Type
 14984 ;;		None
 14985 ;; Return value:  Size  Location     Type
 14986 ;;                  1    wreg      void 
 14987 ;; Registers used:
 14988 ;;		wreg
 14989 ;; Tracked objects:
 14990 ;;		On entry : 0/0
 14991 ;;		On exit  : 0/0
 14992 ;;		Unchanged: 0/0
 14993 ;; Data sizes:     COMMON   BANK0   BANK1   BANK2   BANK3   BANK4   BANK5   BANK6   BANK7   BANK8   BANK9  BANK10  BANK1
      +1  BANK12  BANK13  BANK14  BANK15  BANK16  BANK17  BANK18  BANK19  BANK20  BANK21  BANK22  BANK23  BANK24  BANK25
 14994 ;;      Params:         2       0       0       0       0       0       0       0       0       0       0       0       
      +0       0       0       0       0       0       0       0       0       0       0       0       0       0       0
 14995 ;;      Locals:         0       0       0       0       0       0       0       0       0       0       0       0       
      +0       0       0       0       0       0       0       0       0       0       0       0       0       0       0
 14996 ;;      Temps:          0       0       0       0       0       0       0       0       0       0       0       0       
      +0       0       0       0       0       0       0       0       0       0       0       0       0       0       0
 14997 ;;      Totals:         2       0       0       0       0       0       0       0       0       0       0       0       
      +0       0       0       0       0       0       0       0       0       0       0       0       0       0       0
 14998 ;;Total ram usage:        2 bytes
 14999 ;; Hardware stack levels used:    1
 15000 ;; This function calls:
 15001 ;;		Nothing
 15002 ;; This function is called by:
 15003 ;;		_EUSART_Initialize
 15004 ;; This function uses a non-reentrant model
 15005 ;;
 15006                           
 15007                           
 15008                           ;psect for function _EUSART_SetOverrunErrorHandler
 15009  1A57                     _EUSART_SetOverrunErrorHandler:
 15010  1A57                     l4277:	
 15011                           ;incstack = 0
 15012                           ; Regs used in _EUSART_SetOverrunErrorHandler: [wreg]
 15013                           
 15014                           
 15015                           ;mcc_generated_files/eusart.c: 162:     EUSART_OverrunErrorHandler = interruptHandler;
 15016  1A57  0871               	movf	EUSART_SetOverrunErrorHandler@interruptHandler+1,w
 15017  1A58  0022               	movlb	2	; select bank2
 15018  1A59  00E3               	movwf	(_EUSART_OverrunErrorHandler+1)^(0+256)
 15019  1A5A  0870               	movf	EUSART_SetOverrunErrorHandler@interruptHandler,w
 15020  1A5B  00E2               	movwf	_EUSART_OverrunErrorHandler^(0+256)
 15021  1A5C                     l85:
 15022  1A5C  0008               	return
 15023  1A5D                     __end_of_EUSART_SetOverrunErrorHandler:
 15024                           
 15025                           	psect	text45
 15026  1A51                     __ptext45:	
 15027 ;; *************** function _EUSART_SetFramingErrorHandler *****************
 15028 ;; Defined at:
 15029 ;;		line 157 in file "mcc_generated_files/eusart.c"
 15030 ;; Parameters:    Size  Location     Type
 15031 ;;  interruptHan    2    0[COMMON] PTR FTN()void 
 15032 ;;		 -> EUSART_DefaultFramingErrorHandler(1), 
 15033 ;; Auto vars:     Size  Location     Type
 15034 ;;		None
 15035 ;; Return value:  Size  Location     Type
 15036 ;;                  1    wreg      void 
 15037 ;; Registers used:
 15038 ;;		wreg
 15039 ;; Tracked objects:
 15040 ;;		On entry : 0/0
 15041 ;;		On exit  : 0/0
 15042 ;;		Unchanged: 0/0
 15043 ;; Data sizes:     COMMON   BANK0   BANK1   BANK2   BANK3   BANK4   BANK5   BANK6   BANK7   BANK8   BANK9  BANK10  BANK1
      +1  BANK12  BANK13  BANK14  BANK15  BANK16  BANK17  BANK18  BANK19  BANK20  BANK21  BANK22  BANK23  BANK24  BANK25
 15044 ;;      Params:         2       0       0       0       0       0       0       0       0       0       0       0       
      +0       0       0       0       0       0       0       0       0       0       0       0       0       0       0
 15045 ;;      Locals:         0       0       0       0       0       0       0       0       0       0       0       0       
      +0       0       0       0       0       0       0       0       0       0       0       0       0       0       0
 15046 ;;      Temps:          0       0       0       0       0       0       0       0       0       0       0       0       
      +0       0       0       0       0       0       0       0       0       0       0       0       0       0       0
 15047 ;;      Totals:         2       0       0       0       0       0       0       0       0       0       0       0       
      +0       0       0       0       0       0       0       0       0       0       0       0       0       0       0
 15048 ;;Total ram usage:        2 bytes
 15049 ;; Hardware stack levels used:    1
 15050 ;; This function calls:
 15051 ;;		Nothing
 15052 ;; This function is called by:
 15053 ;;		_EUSART_Initialize
 15054 ;; This function uses a non-reentrant model
 15055 ;;
 15056                           
 15057                           
 15058                           ;psect for function _EUSART_SetFramingErrorHandler
 15059  1A51                     _EUSART_SetFramingErrorHandler:
 15060  1A51                     l4275:	
 15061                           ;incstack = 0
 15062                           ; Regs used in _EUSART_SetFramingErrorHandler: [wreg]
 15063                           
 15064                           
 15065                           ;mcc_generated_files/eusart.c: 158:     EUSART_FramingErrorHandler = interruptHandler;
 15066  1A51  0871               	movf	EUSART_SetFramingErrorHandler@interruptHandler+1,w
 15067  1A52  0022               	movlb	2	; select bank2
 15068  1A53  00E5               	movwf	(_EUSART_FramingErrorHandler+1)^(0+256)
 15069  1A54  0870               	movf	EUSART_SetFramingErrorHandler@interruptHandler,w
 15070  1A55  00E4               	movwf	_EUSART_FramingErrorHandler^(0+256)
 15071  1A56                     l82:
 15072  1A56  0008               	return
 15073  1A57                     __end_of_EUSART_SetFramingErrorHandler:
 15074                           
 15075                           	psect	text46
 15076  1A4B                     __ptext46:	
 15077 ;; *************** function _EUSART_SetErrorHandler *****************
 15078 ;; Defined at:
 15079 ;;		line 165 in file "mcc_generated_files/eusart.c"
 15080 ;; Parameters:    Size  Location     Type
 15081 ;;  interruptHan    2    0[COMMON] PTR FTN()void 
 15082 ;;		 -> EUSART_DefaultErrorHandler(1), 
 15083 ;; Auto vars:     Size  Location     Type
 15084 ;;		None
 15085 ;; Return value:  Size  Location     Type
 15086 ;;                  1    wreg      void 
 15087 ;; Registers used:
 15088 ;;		wreg
 15089 ;; Tracked objects:
 15090 ;;		On entry : 0/0
 15091 ;;		On exit  : 0/0
 15092 ;;		Unchanged: 0/0
 15093 ;; Data sizes:     COMMON   BANK0   BANK1   BANK2   BANK3   BANK4   BANK5   BANK6   BANK7   BANK8   BANK9  BANK10  BANK1
      +1  BANK12  BANK13  BANK14  BANK15  BANK16  BANK17  BANK18  BANK19  BANK20  BANK21  BANK22  BANK23  BANK24  BANK25
 15094 ;;      Params:         2       0       0       0       0       0       0       0       0       0       0       0       
      +0       0       0       0       0       0       0       0       0       0       0       0       0       0       0
 15095 ;;      Locals:         0       0       0       0       0       0       0       0       0       0       0       0       
      +0       0       0       0       0       0       0       0       0       0       0       0       0       0       0
 15096 ;;      Temps:          0       0       0       0       0       0       0       0       0       0       0       0       
      +0       0       0       0       0       0       0       0       0       0       0       0       0       0       0
 15097 ;;      Totals:         2       0       0       0       0       0       0       0       0       0       0       0       
      +0       0       0       0       0       0       0       0       0       0       0       0       0       0       0
 15098 ;;Total ram usage:        2 bytes
 15099 ;; Hardware stack levels used:    1
 15100 ;; This function calls:
 15101 ;;		Nothing
 15102 ;; This function is called by:
 15103 ;;		_EUSART_Initialize
 15104 ;; This function uses a non-reentrant model
 15105 ;;
 15106                           
 15107                           
 15108                           ;psect for function _EUSART_SetErrorHandler
 15109  1A4B                     _EUSART_SetErrorHandler:
 15110  1A4B                     l4279:	
 15111                           ;incstack = 0
 15112                           ; Regs used in _EUSART_SetErrorHandler: [wreg]
 15113                           
 15114                           
 15115                           ;mcc_generated_files/eusart.c: 166:     EUSART_ErrorHandler = interruptHandler;
 15116  1A4B  0871               	movf	EUSART_SetErrorHandler@interruptHandler+1,w
 15117  1A4C  0022               	movlb	2	; select bank2
 15118  1A4D  00E1               	movwf	(_EUSART_ErrorHandler+1)^(0+256)
 15119  1A4E  0870               	movf	EUSART_SetErrorHandler@interruptHandler,w
 15120  1A4F  00E0               	movwf	_EUSART_ErrorHandler^(0+256)
 15121  1A50                     l88:
 15122  1A50  0008               	return
 15123  1A51                     __end_of_EUSART_SetErrorHandler:
 15124                           
 15125                           	psect	text47
 15126  1A6B                     __ptext47:	
 15127 ;; *************** function _ADC_Initialize *****************
 15128 ;; Defined at:
 15129 ;;		line 67 in file "mcc_generated_files/adc.c"
 15130 ;; Parameters:    Size  Location     Type
 15131 ;;		None
 15132 ;; Auto vars:     Size  Location     Type
 15133 ;;		None
 15134 ;; Return value:  Size  Location     Type
 15135 ;;                  1    wreg      void 
 15136 ;; Registers used:
 15137 ;;		wreg, status,2
 15138 ;; Tracked objects:
 15139 ;;		On entry : 0/0
 15140 ;;		On exit  : 0/0
 15141 ;;		Unchanged: 0/0
 15142 ;; Data sizes:     COMMON   BANK0   BANK1   BANK2   BANK3   BANK4   BANK5   BANK6   BANK7   BANK8   BANK9  BANK10  BANK1
      +1  BANK12  BANK13  BANK14  BANK15  BANK16  BANK17  BANK18  BANK19  BANK20  BANK21  BANK22  BANK23  BANK24  BANK25
 15143 ;;      Params:         0       0       0       0       0       0       0       0       0       0       0       0       
      +0       0       0       0       0       0       0       0       0       0       0       0       0       0       0
 15144 ;;      Locals:         0       0       0       0       0       0       0       0       0       0       0       0       
      +0       0       0       0       0       0       0       0       0       0       0       0       0       0       0
 15145 ;;      Temps:          0       0       0       0       0       0       0       0       0       0       0       0       
      +0       0       0       0       0       0       0       0       0       0       0       0       0       0       0
 15146 ;;      Totals:         0       0       0       0       0       0       0       0       0       0       0       0       
      +0       0       0       0       0       0       0       0       0       0       0       0       0       0       0
 15147 ;;Total ram usage:        0 bytes
 15148 ;; Hardware stack levels used:    1
 15149 ;; This function calls:
 15150 ;;		Nothing
 15151 ;; This function is called by:
 15152 ;;		_SYSTEM_Initialize
 15153 ;; This function uses a non-reentrant model
 15154 ;;
 15155                           
 15156                           
 15157                           ;psect for function _ADC_Initialize
 15158  1A6B                     _ADC_Initialize:
 15159  1A6B                     l4465:	
 15160                           ;incstack = 0
 15161                           ; Regs used in _ADC_Initialize: [wreg+status,2]
 15162                           
 15163                           
 15164                           ;mcc_generated_files/adc.c: 72:     ADCON1 = 0x80;
 15165  1A6B  3080               	movlw	128
 15166  1A6C  0021               	movlb	1	; select bank1
 15167  1A6D  009E               	movwf	30	;volatile
 15168  1A6E                     l4467:
 15169                           
 15170                           ;mcc_generated_files/adc.c: 75:     ADACT = 0x00;
 15171  1A6E  019F               	clrf	31	;volatile
 15172  1A6F                     l4469:
 15173                           
 15174                           ;mcc_generated_files/adc.c: 78:     ADRESL = 0x00;
 15175  1A6F  019B               	clrf	27	;volatile
 15176  1A70                     l4471:
 15177                           
 15178                           ;mcc_generated_files/adc.c: 81:     ADRESH = 0x00;
 15179  1A70  019C               	clrf	28	;volatile
 15180  1A71                     l4473:
 15181                           
 15182                           ;mcc_generated_files/adc.c: 84:     ADCON0 = 0x01;
 15183  1A71  3001               	movlw	1
 15184  1A72  009D               	movwf	29	;volatile
 15185  1A73                     l237:
 15186  1A73  0008               	return
 15187  1A74                     __end_of_ADC_Initialize:
 15188                           
 15189                           	psect	text48
 15190  1AEC                     __ptext48:	
 15191 ;; *************** function _ADC_GetConversion *****************
 15192 ;; Defined at:
 15193 ;;		line 115 in file "mcc_generated_files/adc.c"
 15194 ;; Parameters:    Size  Location     Type
 15195 ;;  channel         1    wreg     enum E6327
 15196 ;; Auto vars:     Size  Location     Type
 15197 ;;  channel         1    3[COMMON] enum E6327
 15198 ;; Return value:  Size  Location     Type
 15199 ;;                  2    0[COMMON] unsigned short 
 15200 ;; Registers used:
 15201 ;;		wreg, status,2, status,0
 15202 ;; Tracked objects:
 15203 ;;		On entry : 0/0
 15204 ;;		On exit  : 0/0
 15205 ;;		Unchanged: 0/0
 15206 ;; Data sizes:     COMMON   BANK0   BANK1   BANK2   BANK3   BANK4   BANK5   BANK6   BANK7   BANK8   BANK9  BANK10  BANK1
      +1  BANK12  BANK13  BANK14  BANK15  BANK16  BANK17  BANK18  BANK19  BANK20  BANK21  BANK22  BANK23  BANK24  BANK25
 15207 ;;      Params:         2       0       0       0       0       0       0       0       0       0       0       0       
      +0       0       0       0       0       0       0       0       0       0       0       0       0       0       0
 15208 ;;      Locals:         1       0       0       0       0       0       0       0       0       0       0       0       
      +0       0       0       0       0       0       0       0       0       0       0       0       0       0       0
 15209 ;;      Temps:          1       0       0       0       0       0       0       0       0       0       0       0       
      +0       0       0       0       0       0       0       0       0       0       0       0       0       0       0
 15210 ;;      Totals:         4       0       0       0       0       0       0       0       0       0       0       0       
      +0       0       0       0       0       0       0       0       0       0       0       0       0       0       0
 15211 ;;Total ram usage:        4 bytes
 15212 ;; Hardware stack levels used:    1
 15213 ;; This function calls:
 15214 ;;		Nothing
 15215 ;; This function is called by:
 15216 ;;		_main
 15217 ;; This function uses a non-reentrant model
 15218 ;;
 15219                           
 15220                           
 15221                           ;psect for function _ADC_GetConversion
 15222  1AEC                     _ADC_GetConversion:
 15223                           
 15224                           ;incstack = 0
 15225                           ; Regs used in _ADC_GetConversion: [wreg+status,2+status,0]
 15226                           ;ADC_GetConversion@channel stored from wreg
 15227  1AEC  00F3               	movwf	ADC_GetConversion@channel
 15228  1AED                     l4507:
 15229                           
 15230                           ;mcc_generated_files/adc.c: 115: adc_result_t ADC_GetConversion(adc_channel_t channel);m
      +                          cc_generated_files/adc.c: 116: {;mcc_generated_files/adc.c: 118:     ADCON0bits.CHS = ch
      +                          annel;
 15231  1AED  0873               	movf	ADC_GetConversion@channel,w
 15232  1AEE  00F2               	movwf	??_ADC_GetConversion
 15233  1AEF  0DF2               	rlf	??_ADC_GetConversion,f
 15234  1AF0  0DF2               	rlf	??_ADC_GetConversion,f
 15235  1AF1  0021               	movlb	1	; select bank1
 15236  1AF2  081D               	movf	29,w	;volatile
 15237  1AF3  0672               	xorwf	??_ADC_GetConversion,w
 15238  1AF4  3903               	andlw	-253
 15239  1AF5  0672               	xorwf	??_ADC_GetConversion,w
 15240  1AF6  009D               	movwf	29	;volatile
 15241  1AF7                     l4509:
 15242                           
 15243                           ;mcc_generated_files/adc.c: 121:     ADCON0bits.ADON = 1;
 15244  1AF7  141D               	bsf	29,0	;volatile
 15245  1AF8                     l4511:
 15246                           
 15247                           ;mcc_generated_files/adc.c: 124:     _delay((unsigned long)((5)*(4000000/4000000.0)));
 15248  1AF8  3200               	nop2	;2 cycle nop
 15249  1AF9  3200               	nop2	;2 cycle nop
 15250  1AFA  0000               	nop
 15251  1AFB                     l4513:
 15252                           
 15253                           ;mcc_generated_files/adc.c: 127:     ADCON0bits.ADGO = 1;
 15254  1AFB  0021               	movlb	1	; select bank1
 15255  1AFC  149D               	bsf	29,1	;volatile
 15256  1AFD                     l252:	
 15257                           ;mcc_generated_files/adc.c: 131:     {;mcc_generated_files/adc.c: 132:     }
 15258                           
 15259                           
 15260                           ;mcc_generated_files/adc.c: 130:     while (ADCON0bits.ADGO)
 15261  1AFD  189D               	btfsc	29,1	;volatile
 15262  1AFE  2B00               	goto	u6441
 15263  1AFF  2B01               	goto	u6440
 15264  1B00                     u6441:
 15265  1B00  2AFD               	goto	l252
 15266  1B01                     u6440:
 15267  1B01                     l4515:
 15268                           
 15269                           ;mcc_generated_files/adc.c: 135:     return ((adc_result_t)((ADRESH << 8) + ADRESL));
 15270  1B01  081C               	movf	28,w	;volatile
 15271  1B02  00F1               	movwf	?_ADC_GetConversion+1
 15272  1B03  081B               	movf	27,w	;volatile
 15273  1B04  00F0               	movwf	?_ADC_GetConversion
 15274  1B05                     l255:
 15275  1B05  0008               	return
 15276  1B06                     __end_of_ADC_GetConversion:
 15277  007E                     btemp	set	126	;btemp
 15278  007E                     wtemp0	set	126
 15279                           
 15280                           	psect	idloc
 15281                           
 15282                           ;Config register IDLOC0 @ 0x8000
 15283                           ;	unspecified, using default values
 15284  8000                     	org	32768
 15285  8000  3FFF               	dw	16383
 15286                           
 15287                           ;Config register IDLOC1 @ 0x8001
 15288                           ;	unspecified, using default values
 15289  8001                     	org	32769
 15290  8001  3FFF               	dw	16383
 15291                           
 15292                           ;Config register IDLOC2 @ 0x8002
 15293                           ;	unspecified, using default values
 15294  8002                     	org	32770
 15295  8002  3FFF               	dw	16383
 15296                           
 15297                           ;Config register IDLOC3 @ 0x8003
 15298                           ;	unspecified, using default values
 15299  8003                     	org	32771
 15300  8003  3FFF               	dw	16383
 15301                           
 15302                           	psect	config
 15303                           
 15304                           ;Config register CONFIG1 @ 0x8007
 15305                           ;	FEXTOSC External Oscillator mode Selection bits
 15306                           ;	FEXTOSC = OFF, Oscillator not enabled
 15307                           ;	Power-up default value for COSC bits
 15308                           ;	RSTOSC = HFINT1, HFINTOSC (1MHz)
 15309                           ;	Clock Out Enable bit
 15310                           ;	CLKOUTEN = OFF, CLKOUT function is disabled; I/O or oscillator function on OSC2
 15311                           ;	Clock Switch Enable bit
 15312                           ;	CSWEN = ON, Writing to NOSC and NDIV is allowed
 15313                           ;	Fail-Safe Clock Monitor Enable
 15314                           ;	FCMEN = ON, Fail-Safe Clock Monitor is enabled
 15315  8007                     	org	32775
 15316  8007  3FEC               	dw	16364
 15317                           
 15318                           ;Config register CONFIG2 @ 0x8008
 15319                           ;	Master Clear Enable bit
 15320                           ;	MCLRE = ON, MCLR/VPP pin function is MCLR; Weak pull-up enabled
 15321                           ;	Power-up Timer Enable bit
 15322                           ;	PWRTE = OFF, PWRT disabled
 15323                           ;	Watchdog Timer Enable bits
 15324                           ;	WDTE = OFF, WDT disabled; SWDTEN is ignored
 15325                           ;	Low-power BOR enable bit
 15326                           ;	LPBOREN = OFF, ULPBOR disabled
 15327                           ;	Brown-out Reset Enable bits
 15328                           ;	BOREN = ON, Brown-out Reset enabled, SBOREN bit ignored
 15329                           ;	Brown-out Reset Voltage selection bit
 15330                           ;	BORV = LOW, Brown-out voltage (Vbor) set to 2.45V
 15331                           ;	PPSLOCK bit One-Way Set Enable bit
 15332                           ;	PPS1WAY = ON, The PPSLOCK bit can be cleared and set only once; PPS registers remain l
      +                          ocked after one clear/set cycle
 15333                           ;	Stack Overflow/Underflow Reset Enable bit
 15334                           ;	STVREN = ON, Stack Overflow or Underflow will cause a Reset
 15335                           ;	Debugger enable bit
 15336                           ;	DEBUG = OFF, Background debugger disabled
 15337  8008                     	org	32776
 15338  8008  3FF3               	dw	16371
 15339                           
 15340                           ;Config register CONFIG3 @ 0x8009
 15341                           ;	User NVM self-write protection bits
 15342                           ;	WRT = OFF, Write protection off
 15343                           ;	Low Voltage Programming Enable bit
 15344                           ;	LVP = ON, Low Voltage programming enabled. MCLR/VPP pin function is MCLR. MCLRE config
      +                          uration bit is ignored.
 15345  8009                     	org	32777
 15346  8009  3FFF               	dw	16383
 15347                           
 15348                           ;Config register CONFIG4 @ 0x800A
 15349                           ;	User NVM Program Memory Code Protection bit
 15350                           ;	CP = OFF, User NVM code protection disabled
 15351                           ;	Data NVM Memory Code Protection bit
 15352                           ;	CPD = OFF, Data NVM code protection disabled
 15353  800A                     	org	32778
 15354  800A  3FFF               	dw	16383

Data Sizes:
    Strings     55
    Constant    336
    Data        0
    BSS         99
    Persistent  38
    Stack       0

Auto Spaces:
    Space          Size  Autos    Used
    COMMON           14     14      14
    BANK0            80     80      80
    BANK1            80     76      80
    BANK2            80     49      70
    BANK3            80      0      80
    BANK4            80      0       0
    BANK5            80      0       0
    BANK6            80      0       0
    BANK7            80      0       0
    BANK8            80      0       0
    BANK9            80      0       0
    BANK10           80      0       0
    BANK11           80      0       0
    BANK12           80      0       0
    BANK13           80      0       0
    BANK14           80      0       0
    BANK15           80      0       0
    BANK16           80      0       0
    BANK17           80      0       0
    BANK18           80      0       0
    BANK19           80      0       0
    BANK20           80      0       0
    BANK21           80      0       0
    BANK22           80      0       0
    BANK23           80      0       0
    BANK24           80      0       0
    BANK25           32      0       0

Pointer List with Targets:

    ADC_InterruptHandler	PTR FTN()void  size(2) Largest target is 1
		 -> Absolute function(), 

    strncmp@_r	PTR const unsigned char  size(2) Largest target is 3
		 -> STR_13(CODE[3]), 

    strncmp@r	PTR const unsigned char  size(2) Largest target is 3
		 -> STR_13(CODE[3]), 

    strncmp@_l	PTR const unsigned char  size(1) Largest target is 3
		 -> vfpfcnvrt@ct(BANK0[3]), 

    strncmp@l	PTR const unsigned char  size(1) Largest target is 3
		 -> vfpfcnvrt@ct(BANK0[3]), 

    strlen@s	PTR const unsigned char  size(1) Largest target is 80
		 -> dbuf(BANK3[80]), 

    strlen@a	PTR const unsigned char  size(1) Largest target is 80
		 -> dbuf(BANK3[80]), 

    strcpy@dest	PTR unsigned char  size(1) Largest target is 80
		 -> dbuf(BANK3[80]), 

    strcpy@d	PTR unsigned char  size(1) Largest target is 80
		 -> dbuf(BANK3[80]), 

    strcpy@src	PTR const unsigned char  size(2) Largest target is 80
		 -> STR_8(CODE[4]), STR_7(CODE[4]), STR_4(CODE[4]), STR_3(CODE[4]), 
		 -> dbuf(BANK3[80]), 

    strcpy@s	PTR const unsigned char  size(2) Largest target is 80
		 -> STR_8(CODE[4]), STR_7(CODE[4]), STR_4(CODE[4]), STR_3(CODE[4]), 
		 -> dbuf(BANK3[80]), 

    fputs@s	PTR const unsigned char  size(1) Largest target is 80
		 -> dbuf(BANK3[80]), 

    fputs@fp	PTR struct _IO_FILE size(1) Largest target is 6
		 -> sprintf@f(BANK2[5]), 

    fputc@fp.buffer	PTR unsigned char  size(1) Largest target is 20
		 -> main@s(BANK2[20]), 

    fputc@fp	PTR struct _IO_FILE size(1) Largest target is 6
		 -> sprintf@f(BANK2[5]), 

    atoi@s	PTR const unsigned char  size(2) Largest target is 12
		 -> STR_2(CODE[12]), 

    vfprintf@ap	PTR PTR void  size(1) Largest target is 1
		 -> sprintf@ap(BANK2[1]), 

    vfprintf@fp	PTR struct _IO_FILE size(1) Largest target is 6
		 -> sprintf@f(BANK2[5]), 

    vfprintf@fmt	PTR const unsigned char  size(2) Largest target is 12
		 -> STR_2(CODE[12]), 

    vfprintf@cfmt	PTR unsigned char  size(2) Largest target is 12
		 -> STR_2(CODE[12]), 

    vfpfcnvrt@fp	PTR struct _IO_FILE size(1) Largest target is 6
		 -> sprintf@f(BANK2[5]), 

    vfpfcnvrt@ap	PTR PTR void  size(1) Largest target is 1
		 -> sprintf@ap(BANK2[1]), 

    vfpfcnvrt@fmt	PTR PTR unsigned char  size(1) Largest target is 2
		 -> vfprintf@cfmt(BANK1[2]), 

    efgtoa@fp	PTR struct _IO_FILE size(1) Largest target is 6
		 -> sprintf@f(BANK2[5]), 

    sp__strcpy	PTR unsigned char  size(1) Largest target is 80
		 -> dbuf(BANK3[80]), 

    dtoa@fp	PTR struct _IO_FILE size(1) Largest target is 6
		 -> sprintf@f(BANK2[5]), 

    pad@fp	PTR struct _IO_FILE size(1) Largest target is 6
		 -> sprintf@f(BANK2[5]), 

    pad@buf	PTR unsigned char  size(1) Largest target is 80
		 -> dbuf(BANK3[80]), 

    sprintf@fmt	PTR const unsigned char  size(2) Largest target is 12
		 -> STR_2(CODE[12]), 

    sprintf@s	PTR unsigned char  size(1) Largest target is 20
		 -> main@s(BANK2[20]), 

    sprintf@ap	PTR void [1] size(1) Largest target is 2
		 -> ?_sprintf(BANK1[2]), 

    S839_IO_FILE$buffer	PTR unsigned char  size(1) Largest target is 20
		 -> main@s(BANK2[20]), 

    f.buffer	PTR unsigned char  size(1) Largest target is 20
		 -> main@s(BANK2[20]), 

    putstr@p	PTR unsigned char  size(2) Largest target is 24
		 -> main@s(BANK2[20]), STR_1(CODE[24]), 

    EUSART_SetErrorHandler@interruptHandler	PTR FTN()void  size(2) Largest target is 1
		 -> EUSART_DefaultErrorHandler(), 

    EUSART_ErrorHandler	PTR FTN()void  size(2) Largest target is 1
		 -> Absolute function(), EUSART_DefaultErrorHandler(), 

    EUSART_SetOverrunErrorHandler@interruptHandler	PTR FTN()void  size(2) Largest target is 1
		 -> EUSART_DefaultOverrunErrorHandler(), 

    EUSART_OverrunErrorHandler	PTR FTN()void  size(2) Largest target is 1
		 -> Absolute function(), EUSART_DefaultOverrunErrorHandler(), 

    EUSART_SetFramingErrorHandler@interruptHandler	PTR FTN()void  size(2) Largest target is 1
		 -> EUSART_DefaultFramingErrorHandler(), 

    EUSART_FramingErrorHandler	PTR FTN()void  size(2) Largest target is 1
		 -> Absolute function(), EUSART_DefaultFramingErrorHandler(), 


Critical Paths under _main in COMMON

    _main->___xxtofl
    _vfpfcnvrt->_tolower
    _efgtoa->_tolower
    _tolower->_isupper
    _floorf->___fldiv
    ___flmul->___xxtofl
    _dtoa->_pad
    _pad->_fputs
    _fputs->_fputc
    _abs->___aomod
    _atoi->___wmul
    _atoi->_isdigit
    _putstr->_EUSART_Write
    _EUSART_Initialize->_EUSART_SetErrorHandler
    _EUSART_Initialize->_EUSART_SetFramingErrorHandler
    _EUSART_Initialize->_EUSART_SetOverrunErrorHandler

Critical Paths under _main in BANK0

    _sprintf->_vfprintf
    _vfprintf->_vfpfcnvrt
    _vfpfcnvrt->_efgtoa
    _efgtoa->___flge
    _floorf->___fldiv
    ___flsub->___flmul
    ___flge->___flmul
    _dtoa->___aodiv
    _dtoa->___aomod
    _pad->_fputs
    _abs->___aomod

Critical Paths under _main in BANK1

    _main->_sprintf
    _sprintf->_vfprintf
    _vfpfcnvrt->_efgtoa

Critical Paths under _main in BANK2

    _main->_sprintf

Critical Paths under _main in BANK3

    None.

Critical Paths under _main in BANK4

    None.

Critical Paths under _main in BANK5

    None.

Critical Paths under _main in BANK6

    None.

Critical Paths under _main in BANK7

    None.

Critical Paths under _main in BANK8

    None.

Critical Paths under _main in BANK9

    None.

Critical Paths under _main in BANK10

    None.

Critical Paths under _main in BANK11

    None.

Critical Paths under _main in BANK12

    None.

Critical Paths under _main in BANK13

    None.

Critical Paths under _main in BANK14

    None.

Critical Paths under _main in BANK15

    None.

Critical Paths under _main in BANK16

    None.

Critical Paths under _main in BANK17

    None.

Critical Paths under _main in BANK18

    None.

Critical Paths under _main in BANK19

    None.

Critical Paths under _main in BANK20

    None.

Critical Paths under _main in BANK21

    None.

Critical Paths under _main in BANK22

    None.

Critical Paths under _main in BANK23

    None.

Critical Paths under _main in BANK24

    None.

Critical Paths under _main in BANK25

    None.

Call Graph Tables:

 ---------------------------------------------------------------------------------
 (Depth) Function   	        Calls       Base Space   Used Autos Params    Refs
 ---------------------------------------------------------------------------------
 (0) _main                                                44    44      0   42282
                                             72 BANK1      4     4      0
                                              9 BANK2     40    40      0
                  _ADC_GetConversion
                  _SYSTEM_Initialize
                            ___fldiv
                             ___flge
                            ___flmul
                             ___wmul
                           ___xxtofl
                             _putstr
                            _sprintf
 ---------------------------------------------------------------------------------
 (1) _sprintf                                             18    10      8   33737
                                             63 BANK1      9     1      8
                                              0 BANK2      9     9      0
                           _vfprintf
 ---------------------------------------------------------------------------------
 (2) _vfprintf                                             8     5      3   33419
                                             78 BANK0      2     2      0
                                             57 BANK1      6     3      3
                          _vfpfcnvrt
 ---------------------------------------------------------------------------------
 (3) _vfpfcnvrt                                           47    45      2   33078
                                             47 BANK0     31    29      2
                               _atoi
                               _dtoa
                             _efgtoa
                              _fputc
                            _isdigit
                            _isupper
                            _strncmp
                            _tolower
 ---------------------------------------------------------------------------------
 (4) _strncmp                                              9     5      4     410
                                              0 COMMON     9     5      4
 ---------------------------------------------------------------------------------
 (4) _efgtoa                                              66    61      5   22239
                                             38 BANK0      9     4      5
                                              0 BANK1     57    57      0
                            ___awdiv
                            ___awmod
                            ___fladd
                            ___fldiv
                             ___fleq
                             ___flge
                            ___flmul
                            ___flneg
                            ___flsub
                            ___fltol
                      ___fpclassifyf
                             _floorf
                            _isupper
                                _pad
                             _strcpy
                            _tolower
 ---------------------------------------------------------------------------------
 (4) _tolower                                              8     6      2     944
                                              6 COMMON     8     6      2
                            _isupper
 ---------------------------------------------------------------------------------
 (5) _isupper                                              6     4      2     465
                                              0 COMMON     6     4      2
 ---------------------------------------------------------------------------------
 (5) _strcpy                                               8     6      2     641
                                              0 COMMON     8     6      2
 ---------------------------------------------------------------------------------
 (5) _floorf                                              20    16      4     490
                                             13 BANK0     20    16      4
                            ___fldiv (ARG)
 ---------------------------------------------------------------------------------
 (5) ___fpclassifyf                                       16    12      4     287
                                              0 COMMON    10     6      4
                                              0 BANK0      6     6      0
 ---------------------------------------------------------------------------------
 (5) ___fltol                                             11     7      4     381
                                              0 COMMON    11     7      4
 ---------------------------------------------------------------------------------
 (5) ___flsub                                              8     0      8    2637
                                             26 BANK0      8     0      8
                            ___fladd
                            ___flmul (ARG)
 ---------------------------------------------------------------------------------
 (6) ___fladd                                             20    12      8    2288
                                              0 COMMON    12     4      8
                                              0 BANK0      8     8      0
 ---------------------------------------------------------------------------------
 (5) ___flneg                                              4     0      4     121
                                              0 COMMON     4     0      4
 ---------------------------------------------------------------------------------
 (5) ___flmul                                             26    18      8    3481
                                              0 BANK0     26    18      8
                          __Umul8_16
                           ___xxtofl (ARG)
 ---------------------------------------------------------------------------------
 (6) __Umul8_16                                            9     7      2     799
                                              0 COMMON     9     7      2
 ---------------------------------------------------------------------------------
 (5) ___flge                                              12     4      8    1094
                                             26 BANK0     12     4      8
                            ___flmul (ARG)
                             ___wmul (ARG)
 ---------------------------------------------------------------------------------
 (5) ___fleq                                              12     4      8     394
                                              0 COMMON    12     4      8
 ---------------------------------------------------------------------------------
 (5) ___fldiv                                             26    18      8    2033
                                              0 COMMON    13     5      8
                                              0 BANK0     13    13      0
 ---------------------------------------------------------------------------------
 (5) ___awmod                                              7     3      4     448
                                              0 COMMON     7     3      4
 ---------------------------------------------------------------------------------
 (5) ___awdiv                                              9     5      4     452
                                              0 COMMON     9     5      4
 ---------------------------------------------------------------------------------
 (4) _dtoa                                                30    22      8    4698
                                             16 BANK0     30    22      8
                            ___aodiv
                            ___aomod
                                _abs
                                _pad
 ---------------------------------------------------------------------------------
 (5) _pad                                                  9     6      3    3092
                                             12 COMMON     1     1      0
                                              4 BANK0      8     5      3
                              _fputc
                              _fputs
                             _strlen
 ---------------------------------------------------------------------------------
 (6) _strlen                                               5     3      2     123
                                              0 COMMON     5     3      2
 ---------------------------------------------------------------------------------
 (6) _fputs                                                8     7      1    1149
                                              8 COMMON     4     3      1
                                              0 BANK0      4     4      0
                              _fputc
 ---------------------------------------------------------------------------------
 (4) _fputc                                                8     5      3     834
                                              0 COMMON     8     5      3
                              _putch
 ---------------------------------------------------------------------------------
 (5) _putch                                                1     1      0       0
 ---------------------------------------------------------------------------------
 (5) _abs                                                  4     2      2     142
                                              3 COMMON     4     2      2
                            ___aomod (ARG)
 ---------------------------------------------------------------------------------
 (5) ___aomod                                             19     3     16     448
                                              0 COMMON     3     3      0
                                              0 BANK0     16     0     16
 ---------------------------------------------------------------------------------
 (5) ___aodiv                                             27    11     16     452
                                              0 COMMON    11    11      0
                                              0 BANK0     16     0     16
 ---------------------------------------------------------------------------------
 (4) _atoi                                                15    13      2    1693
                                              6 COMMON     6     4      2
                                              0 BANK0      9     9      0
                             ___wmul
                            _isdigit
                            _isspace
 ---------------------------------------------------------------------------------
 (5) _isspace                                              5     3      2     207
                                              0 COMMON     5     3      2
 ---------------------------------------------------------------------------------
 (4) _isdigit                                              6     4      2     313
                                              0 COMMON     6     4      2
 ---------------------------------------------------------------------------------
 (5) ___wmul                                               6     2      4     700
                                              0 COMMON     6     2      4
 ---------------------------------------------------------------------------------
 (1) _putstr                                               3     1      2     219
                                              1 COMMON     3     1      2
                       _EUSART_Write
 ---------------------------------------------------------------------------------
 (2) _EUSART_Write                                         1     1      0      22
                                              0 COMMON     1     1      0
 ---------------------------------------------------------------------------------
 (1) ___xxtofl                                            14    10      4     398
                                              0 COMMON    14    10      4
 ---------------------------------------------------------------------------------
 (1) _SYSTEM_Initialize                                    0     0      0     294
                     _ADC_Initialize
                  _EUSART_Initialize
              _OSCILLATOR_Initialize
             _PIN_MANAGER_Initialize
                     _PMD_Initialize
                     _WDT_Initialize
 ---------------------------------------------------------------------------------
 (2) _WDT_Initialize                                       0     0      0       0
 ---------------------------------------------------------------------------------
 (2) _PMD_Initialize                                       0     0      0       0
 ---------------------------------------------------------------------------------
 (2) _PIN_MANAGER_Initialize                               0     0      0       0
 ---------------------------------------------------------------------------------
 (2) _OSCILLATOR_Initialize                                0     0      0       0
 ---------------------------------------------------------------------------------
 (2) _EUSART_Initialize                                    0     0      0     294
             _EUSART_SetErrorHandler
      _EUSART_SetFramingErrorHandler
      _EUSART_SetOverrunErrorHandler
 ---------------------------------------------------------------------------------
 (3) _EUSART_SetOverrunErrorHandler                        2     0      2      98
                                              0 COMMON     2     0      2
 ---------------------------------------------------------------------------------
 (3) _EUSART_SetFramingErrorHandler                        2     0      2      98
                                              0 COMMON     2     0      2
 ---------------------------------------------------------------------------------
 (3) _EUSART_SetErrorHandler                               2     0      2      98
                                              0 COMMON     2     0      2
 ---------------------------------------------------------------------------------
 (2) _ADC_Initialize                                       0     0      0       0
 ---------------------------------------------------------------------------------
 (1) _ADC_GetConversion                                    4     2      2      22
                                              0 COMMON     4     2      2
 ---------------------------------------------------------------------------------
 Estimated maximum stack depth 6
 ---------------------------------------------------------------------------------

 Call Graph Graphs:

 _main (ROOT)
   _ADC_GetConversion
   _SYSTEM_Initialize
     _ADC_Initialize
     _EUSART_Initialize
       _EUSART_SetErrorHandler
       _EUSART_SetFramingErrorHandler
       _EUSART_SetOverrunErrorHandler
     _OSCILLATOR_Initialize
     _PIN_MANAGER_Initialize
     _PMD_Initialize
     _WDT_Initialize
   ___fldiv
   ___flge
     ___flmul (ARG)
       __Umul8_16
       ___xxtofl (ARG)
     ___wmul (ARG)
   ___flmul
     __Umul8_16
     ___xxtofl (ARG)
   ___wmul
   ___xxtofl
   _putstr
     _EUSART_Write
   _sprintf
     _vfprintf
       _vfpfcnvrt
         _atoi
           ___wmul
           _isdigit
           _isspace
         _dtoa
           ___aodiv
           ___aomod
           _abs
             ___aomod (ARG)
           _pad
             _fputc
               _putch
             _fputs
               _fputc
                 _putch
             _strlen
         _efgtoa
           ___awdiv
           ___awmod
           ___fladd
           ___fldiv
           ___fleq
           ___flge
             ___flmul (ARG)
               __Umul8_16
               ___xxtofl (ARG)
             ___wmul (ARG)
           ___flmul
             __Umul8_16
             ___xxtofl (ARG)
           ___flneg
           ___flsub
             ___fladd
             ___flmul (ARG)
               __Umul8_16
               ___xxtofl (ARG)
           ___fltol
           ___fpclassifyf
           _floorf
             ___fldiv (ARG)
           _isupper
           _pad
             _fputc
               _putch
             _fputs
               _fputc
                 _putch
             _strlen
           _strcpy
           _tolower
             _isupper
         _fputc
           _putch
         _isdigit
         _isupper
         _strncmp
         _tolower
           _isupper

 Address spaces:
Name               Size   Autos  Total    Cost      Usage
BIGRAM             7F0      0       0       0        0.0%
EEDATA             100      0       0       0        0.0%
NULL                 0      0       0       0        0.0%
CODE                 0      0       0       0        0.0%
BITCOMMON            E      0       0       1        0.0%
BITSFR0              0      0       0       1        0.0%
SFR0                 0      0       0       1        0.0%
COMMON               E      E       E       2      100.0%
BITSFR1              0      0       0       2        0.0%
SFR1                 0      0       0       2        0.0%
BITSFR2              0      0       0       3        0.0%
SFR2                 0      0       0       3        0.0%
STACK                0      0       0       3        0.0%
BITBANK0            50      0       0       4        0.0%
BITSFR3              0      0       0       4        0.0%
SFR3                 0      0       0       4        0.0%
BANK0               50     50      50       5      100.0%
BITSFR4              0      0       0       5        0.0%
SFR4                 0      0       0       5        0.0%
BITBANK1            50      0       0       6        0.0%
BITSFR5              0      0       0       6        0.0%
SFR5                 0      0       0       6        0.0%
BANK1               50     4C      50       7      100.0%
BITSFR6              0      0       0       7        0.0%
SFR6                 0      0       0       7        0.0%
BITBANK2            50      0       0       8        0.0%
BITSFR7              0      0       0       8        0.0%
SFR7                 0      0       0       8        0.0%
BANK2               50     31      46       9       87.5%
BITSFR8              0      0       0       9        0.0%
SFR8                 0      0       0       9        0.0%
BITBANK3            50      0       0      10        0.0%
BITSFR9              0      0       0      10        0.0%
SFR9                 0      0       0      10        0.0%
BANK3               50      0      50      11      100.0%
BITSFR10             0      0       0      11        0.0%
SFR10                0      0       0      11        0.0%
BITBANK4            50      0       0      12        0.0%
BITSFR11             0      0       0      12        0.0%
SFR11                0      0       0      12        0.0%
BANK4               50      0       0      13        0.0%
BITSFR12             0      0       0      13        0.0%
SFR12                0      0       0      13        0.0%
BITSFR13             0      0       0      14        0.0%
SFR13                0      0       0      14        0.0%
ABS                  0      0     144      14        0.0%
BITBANK5            50      0       0      15        0.0%
BITSFR14             0      0       0      15        0.0%
SFR14                0      0       0      15        0.0%
BANK5               50      0       0      16        0.0%
BITSFR15             0      0       0      16        0.0%
SFR15                0      0       0      16        0.0%
BITBANK6            50      0       0      17        0.0%
BITSFR16             0      0       0      17        0.0%
SFR16                0      0       0      17        0.0%
BANK6               50      0       0      18        0.0%
BITSFR17             0      0       0      18        0.0%
SFR17                0      0       0      18        0.0%
BITBANK7            50      0       0      19        0.0%
BITSFR18             0      0       0      19        0.0%
SFR18                0      0       0      19        0.0%
BANK7               50      0       0      20        0.0%
BITSFR19             0      0       0      20        0.0%
SFR19                0      0       0      20        0.0%
BITBANK8            50      0       0      21        0.0%
BITSFR20             0      0       0      21        0.0%
SFR20                0      0       0      21        0.0%
BANK8               50      0       0      22        0.0%
BITSFR21             0      0       0      22        0.0%
SFR21                0      0       0      22        0.0%
BITBANK9            50      0       0      23        0.0%
BITSFR22             0      0       0      23        0.0%
SFR22                0      0       0      23        0.0%
BANK9               50      0       0      24        0.0%
BITSFR23             0      0       0      24        0.0%
SFR23                0      0       0      24        0.0%
BITBANK10           50      0       0      25        0.0%
BITSFR24             0      0       0      25        0.0%
SFR24                0      0       0      25        0.0%
BANK10              50      0       0      26        0.0%
BITSFR25             0      0       0      26        0.0%
SFR25                0      0       0      26        0.0%
BITBANK11           50      0       0      27        0.0%
BITSFR26             0      0       0      27        0.0%
SFR26                0      0       0      27        0.0%
BITSFR27             0      0       0      28        0.0%
SFR27                0      0       0      28        0.0%
DATA                 0      0     144      28        0.0%
BANK11              50      0       0      29        0.0%
BITSFR28             0      0       0      29        0.0%
SFR28                0      0       0      29        0.0%
BITBANK12           50      0       0      30        0.0%
BITSFR29             0      0       0      30        0.0%
SFR29                0      0       0      30        0.0%
BANK12              50      0       0      31        0.0%
BITSFR30             0      0       0      31        0.0%
SFR30                0      0       0      31        0.0%
BITBANK13           50      0       0      32        0.0%
BITSFR31             0      0       0      32        0.0%
SFR31                0      0       0      32        0.0%
BANK13              50      0       0      33        0.0%
BITBANK14           50      0       0      34        0.0%
BANK14              50      0       0      35        0.0%
BITBANK15           50      0       0      36        0.0%
BANK15              50      0       0      37        0.0%
BITBANK16           50      0       0      38        0.0%
BANK16              50      0       0      39        0.0%
BITBANK17           50      0       0      40        0.0%
BANK17              50      0       0      41        0.0%
BITBANK18           50      0       0      42        0.0%
BANK18              50      0       0      43        0.0%
BITBANK19           50      0       0      44        0.0%
BANK19              50      0       0      45        0.0%
BITBANK20           50      0       0      46        0.0%
BANK20              50      0       0      47        0.0%
BITBANK21           50      0       0      48        0.0%
BANK21              50      0       0      49        0.0%
BITBANK22           50      0       0      50        0.0%
BANK22              50      0       0      51        0.0%
BITBANK23           50      0       0      52        0.0%
BANK23              50      0       0      53        0.0%
BITBANK24           50      0       0      54        0.0%
BANK24              50      0       0      55        0.0%
BITBANK25           20      0       0      56        0.0%
BANK25              20      0       0      57        0.0%


Microchip Technology PIC Macro Assembler V2.31 build 20201012212115 
Symbol Table                                                                                   Sun Aug 28 14:39:49 2022

                                 ___fldiv@aexp 002C                                   ___fldiv@bexp 002B  
                                 ___fldiv@sign 0024                                             l43 1021  
                                           l70 1A86                                             l82 1A56  
                                           l67 1A7E                                             l85 1A5C  
                                           l88 1A50                                   ___awdiv@sign 0076  
                          ___wmul@multiplicand 0072                            __Umul8_16@word_mpld 0076  
                                          l123 1C02                                            l212 14CA  
                                          l214 14CB                                            l207 14C7  
                                          l209 14C8                                            l410 1B44  
                                          l171 1A4A                                            l252 1AFD  
                                          l412 1B58                                            l237 1A73  
                                          l165 1AA4                                            l174 1A6A  
                                          l510 1371                                            l255 1B05  
                                          l511 1382                                            l168 1A7C  
                                          l600 1A91                                            l194 1ABB  
                                          l523 1185                                            l611 1EBC  
                                          l524 1196                                            l604 1ED1  
                                          l614 1ED1                                            l711 08BA  
                                          l563 1E5D                                            l715 095C  
                                          l580 1CE8                                            l732 09F1  
                                          l724 0A9A                                            l813 0C6D  
                                          l717 0937                                            l742 0A35  
                                          l591 1093                                            l807 0CF1  
                                          l576 1D50                                            l736 0A13  
                                          l921 085B                                            l585 1CFD  
                                          l753 0A90                                            l745 0A6D  
                                          l930 1563                                            l826 1BCD  
                                          l754 0A9A                                            l851 0026  
                                          l579 1CCC                                            l819 0CE5  
                                          l916 081F                                            l924 1525  
                                          l596 10AC                                            l588 103F  
                                          l828 1BDD                                            l853 00AF  
                                          l933 15D4                                            l925 152E  
                                          l757 1B78                                            l919 0841  
                                          l791 17F6                                            l783 1781  
                                          l767 16A3                                            l864 007B  
                                          l865 0087                                            l857 0061  
                                          l929 154B                                            l769 17FF  
                                          l873 1C7A                                            l947 164B  
                                          l788 17CD                                            l980 030E  
                                          l789 17E7                                            l981 02F3  
                                          l965 07E7                                            l991 0351  
                                          _abs 1B06                                            _pad 0803  
               ?_EUSART_SetFramingErrorHandler 0070                        __size_of_PMD_Initialize 0008  
                                 ___awmod@sign 0076                                    main@alc2ppm 014B  
                                          wreg 0009                                   ___flmul@aexp 0032  
                                 ___flmul@bexp 0033                                   ___flmul@sign 002D  
                                 ___flmul@temp 0038                                   ___flmul@prod 0034  
                                 ___fltol@exp1 007A                                           l1011 0583  
                                         l1102 1B1F                                           l1006 056D  
                                         l1120 1F8E                                           l1201 1B39  
                                         ?_abs 0073                                           l1220 1C27  
                                         l1133 1FFF                                           l1205 1DFE  
                                         l1143 1279                                           l1215 1C27  
                                         l3001 088D                                           l1138 11D8  
                                         l3011 089D                                           l3003 0893  
                                         l1139 1281                                           l1163 1AEB  
                                         l1084 1CAF                                           l1149 1AD3  
                                         l1157 1B99                                           l3101 099A  
                                         l3013 08A2                                           l3021 08B2  
                                         l3005 0894                                           l1069 0FFF  
                                         l1094 1F50                                           l3103 09B1  
                                         l3111 09E9                                           l3031 08D0  
                                         l3023 08C0                                           l3015 08A7  
                                         l3007 0898                                           l3201 1B33  
                                         l3121 0A0E                                           l3113 09F9  
                                         l3105 09D5                                           l3041 08E4  
                                         l3033 08D4                                           l3025 08C4  
                                         l3017 08AF                                           l3009 089C  
                                         l4001 0308                                           l1178 1DA6  
                                         l1186 1C50                                           l3211 1B3C  
                                         l1099 1B1F                                           l3131 0A21  
                                         l3123 0A12                                           l3115 09FE  
                                         l3107 09DB                                           l3051 08F8  
                                         l3043 08E8                                           l3035 08D8  
                                         l3027 08C8                                           l3019 08B0  
                                         l1195 1BBA                                           l4011 0328  
                                         l3213 1B40                                           l1189 0802  
                                         l3301 1E0F                                           l3141 0A32  
                                         l3125 0A17                                           l3133 0A23  
                                         l3109 09E0                                           l3061 091C  
                                         l3053 08FC                                           l3045 08EC  
                                         l3037 08DC                                           l3029 08CC  
                                         l3205 1AD4                                           l4101 0607  
                                         l4021 0361                                           l4013 0344  
                                         l3215 1B49                                           l3231 12B8  
                                         l3223 1282                                           l3311 1E23  
                                         l3303 1E14                                           l3151 0A4B  
                                         l3127 0A1A                                           l3119 0A07  
                                         l3135 0A27                                           l3071 0949  
                                         l3063 093B                                           l3055 0900  
                                         l3047 08F0                                           l3039 08E0  
                                         l4111 0626                                           l4103 0613  
                                         l4031 037B                                           l4023 0365  
                                         l4015 034B                                           l4007 0313  
                                         l3217 1B4E                                           l3209 1B3A  
                                         l3241 12F5                                           l3233 12D7  
                                         l3225 1283                                           l3321 1E43  
                                         l3313 1E28                                           l3305 1E18  
                                         l3401 10AB                                           l3161 0A84  
                                         l3153 0A69                                           l3145 0A3A  
                                         l3137 0A28                                           l3129 0A1C  
                                         l3073 0952                                           l3065 0942  
                                         l3049 08F4                                           l3057 0904  
                                         l4121 06A6                                           l4113 0633  
                                         l4105 0618                                           l4041 0391  
                                         l4033 037D                                           l4025 0369  
                                         l4017 0355                                           l4009 0319  
                                         l3219 1B54                                           l4211 1F67  
                                         l4203 1F51                                           l3251 132F  
                                         l3243 12FD                                           l3235 12DB  
                                         l3227 128D                                           l3331 1E59  
                                         l3323 1E44                                           l3315 1E2C  
                                         l3307 1E1A                                           l3171 0A99  
                                         l3163 0A85                                           l3155 0A72  
                                         l3147 0A3F                                           l3139 0A2C  
                                         l3091 0985                                           l3083 096E  
                                         l3067 0944                                           l3075 0956  
                                         l3059 0905                                           l4131 06D7  
                                         l4123 06AA                                           l4115 0638  
                                         l4107 061C                                           l4051 04AC  
                                         l4043 039A                                           l4035 0383  
                                         l4027 036F                                           l4019 035B  
                                         l4221 1F8A                                           l4213 1F7B  
                                         l4205 1F57                                           l3253 133F  
                                         l3245 1301                                           l3237 12E5  
                                         l3229 12AE                                           l3261 10AD  
                                         l3325 1E49                                           l3317 1E30  
                                         l3309 1E20                                           l3341 1D08  
                                         l3181 1BD4                                           l3173 1BBC  
                                         l3405 1A87                                           l3165 0A89  
                                         l3157 0A77                                           l3149 0A47  
                                         l3093 0987                                           l3085 0976  
                                         l3077 0960                                           l3069 0948  
                                         l3421 1E85                                           l3413 1E5E  
                                         l4141 06F8                                           l4133 06DB  
                                         l4109 0620                                           l4117 063C  
                                         l4125 06AE                                           l4061 04F8  
                                         l4053 04B6                                           l4045 0444  
                                         l4029 0373                                           l4037 0387  
                                         l4301 0D4C                                           l4223 1F93  
                                         l4215 1F7C                                           l4207 1F5B  
                                         l3255 1340                                           l3247 1305  
                                         l3239 12F2                                           l3271 1102  
                                         l3263 10AE                                           l3191 1C3B  
                                         l3319 1E3F                                           l3327 1E4F  
                                         l3351 1D1C                                           l3343 1D0A  
                                         l3335 1CFE                                           l3511 16E2  
                                         l3503 16C4                                           l3183 1BD9  
                                         l3175 1BBE                                           l3407 1A8F  
                                         l3167 0A8B                                           l3159 0A7F  
                                         l3095 098B                                           l3087 097A  
                                         l3079 0965                                           l3423 1E86  
                                         l3415 1E69                                           l4151 070C  
                                         l4143 06FC                                           l4135 06E7  
                                         l4127 06C0                                           l4119 068A  
                                         l4071 0576                                           l4063 0532  
                                         l4055 04CE                                           l4047 0448  
                                         l4039 0389                                           l4303 0D5C  
                                         l4311 0D8E                                           l4233 1FE3  
                                         l4225 1FA7                                           l4209 1F5D  
                                         l3249 130D                                           l3257 134E  
                                         l3281 1122                                           l3273 110F  
                                         l3265 10B8                                           l3193 1C40  
                                         l3329 1E54                                           l3361 1D37  
                                         l3353 1D21                                           l3345 1D0E  
                                         l3337 1CFF                                           l3521 1701  
                                         l3513 16EA                                           l3505 16C9  
                                         l3177 1BC5                                           l3601 0AA9  
                                         l3409 1A91                                           l3169 0A95  
                                         l3097 098C                                           l3089 097E  
                                         l3425 1E8E                                           l4161 0744  
                                         l4153 0711                                           l4145 0702  
                                         l4137 06EC                                           l4129 06D0  
                                         l4081 05CE                                           l4073 057C  
                                         l4065 0537                                           l4057 04D3  
                                         l4049 045A                                           l4321 0DC5  
                                         l4313 0DA0                                           l4305 0D64  
                                         l4401 0FDC                                           l4411 1009  
                                         l4235 1FE9                                           l4219 1F83  
                                         l3259 1353                                           l3283 1144  
                                         l3275 1112                                           l3267 10D9  
                                         l3187 1C2A                                           l3195 1B21  
                                         l3291 1DFF                                           l3363 1D3C  
                                         l3355 1D25                                           l3347 1D13  
                                         l3339 1D03                                           l3531 172D  
                                         l3523 170F                                           l3515 16F2  
                                         l3179 1BC9                                           l3611 0ABE  
                                         l3603 0AAA                                           l3099 0995  
                                         l3451 1B5C                                           l3443 1EB3  
                                         l3435 1E9C                                           l3427 1E90  
                                         l3419 1E72                                           l4171 0766  
                                         l4163 0748                                           l4155 0716  
                                         l4147 0704                                           l4139 06F2  
                                         l4091 05E9                                           l4083 05D4  
                                         l4075 0581                                           l4067 0563  
                                         l4059 04DB                                           l4251 1DB0  
                                         l4403 0FF5                                           l4331 0E10  
                                         l4323 0DD4                                           l4315 0DA3  
                                         l4413 100A                                           l4421 1A7E  
                                         l4501 1AA6                                           l4237 1FEF  
                                         l4229 1FC7                                           l3285 1154  
                                         l3277 111A                                           l3269 10E3  
                                         l3189 1C2D                                           l3197 1B26  
                                         l3293 1E00                                           l3357 1D29  
                                         l3349 1D19                                           l3365 1D42  
                                         l3541 1748                                           l3533 172E  
                                         l3525 1713                                           l3517 16FA  
                                         l3509 16D2                                           l3461 165A  
                                         l3381 1CFC                                           l3373 1CB0  
                                         l3621 0AD4                                           l3613 0AC6  
                                         l3605 0AAF                                           l3445 1EC1  
                                         l3429 1E94                                           l3437 1EAC  
                                         l4181 0786                                           l4173 076C  
                                         l4157 071B                                           l4165 074C  
                                         l4149 0708                                           l4093 05ED  
                                         l4085 05DA                                           l4077 058A  
                                         l4069 0569                                           l4261 1DC7  
                                         l4253 1DBC                                           l4341 0E58  
                                         l4325 0DE4                                           l4317 0DAC  
                                         l4333 0E16                                           l4309 0D88  
                                         l4511 1AF8                                           l4415 1011  
                                         l4431 1BE6                                           l4423 1A83  
                                         l4503 1AAE                                           l4239 1FFB  
                                         l3279 111E                                           l3287 1162  
                                         l3199 1B2A                                           l3295 1E04  
                                         l3367 1D47                                           l3359 1D33  
                                         l3551 175D                                           l3543 174A  
                                         l3535 1736                                           l3527 1714  
                                         l3519 16FC                                           l3471 166E  
                                         l3463 165B                                           l3455 164C  
                                         l3375 1CC4                                           l3391 105B  
                                         l3711 0C9B                                           l3703 0C72  
                                         l3631 0AF0                                           l3623 0AD9  
                                         l3615 0ACB                                           l3607 0AB4  
                                         l3447 1EC6                                           l4191 07B1  
                                         l4183 078A                                           l4175 0771  
                                         l4167 0752                                           l4159 0733  
                                         l4095 05F9                                           l4087 05DE  
                                         l4079 05CA                                           l4271 1DF1  
                                         l4263 1DCB                                           l4351 0EB9  
                                         l4343 0E75                                           l4335 0E31  
                                         l4327 0DEC                                           l4319 0DBD  
                                         l4513 1AFB                                           l4417 1018  
                                         l4409 1000                                           l4441 1BF2  
                                         l4433 1BE9                                           l4425 1BDE  
                                         l4505 1AB2                                           l3289 1167  
                                         l3297 1E09                                           l3369 1D4C  
                                         l3561 177E                                           l3545 1751  
                                         l3553 1761                                           l3529 171B  
                                         l3537 173A                                           l3481 1685  
                                         l3465 1660                                           l3473 1670  
                                         l3457 1652                                           l3377 1CE0  
                                         l3393 105F                                           l3385 1022  
                                         l3721 0CCD                                           l3705 0C77  
                                         l3713 0C9F                                           l3641 0B10  
                                         l3633 0AF5                                           l3625 0ADE  
                                         l3617 0ACF                                           l3609 0ABC  
                                         l3449 1B59                                           l3801 11AF  
                                         l4193 07B5                                           l4177 0775  
                                         l4169 0761                                           l4097 05FE  
                                         l4089 05E3                                           l4265 1DD3  
                                         l4257 1DBF                                           l4249 1DA8  
                                         l4361 0EF0                                           l4345 0E86  
                                         l4337 0E36                                           l4281 0CF4  
                                         l4521 1C5F                                           l4515 1B01  
                                         l4507 1AED                                           l4275 1A51  
                                         l4419 101F                                           l4451 1BFF  
                                         l4443 1BF5                                           l4435 1BED  
                                         l4427 1BE1                                           l4531 0005  
                                         l3299 1E0B                                           l3571 1797  
                                         l3555 1765                                           l3547 1755  
                                         l3539 1740                                           l3491 1699  
                                         l3483 1686                                           l3475 1678  
                                         l3467 1665                                           l3459 1656  
                                         l3379 1CFA                                           l3395 1077  
                                         l3387 1037                                           l3731 0CE9  
                                         l3723 0CCF                                           l3715 0CAC  
                                         l3707 0C7F                                           l3651 0B6B  
                                         l3643 0B1D                                           l3635 0AFA  
                                         l3627 0AE6                                           l3619 0AD3  
                                         l3803 11CA                                           l4195 07C1  
                                         l4187 07A6                                           l4179 0781  
                                         l4099 0602                                           l4267 1DDC  
                                         l4259 1DC3                                           l4363 0F01  
                                         l4355 0ED3                                           l4347 0E97  
                                         l4339 0E53                                           l4291 0D29  
                                         l4283 0D05                                           l4523 1C61  
                                         l4611 13C4                                           l4509 1AF7  
                                         l4277 1A57                                           l4461 1A7B  
                                         l4445 1BF7                                           l4437 1BEF  
                                         l4429 1BE4                                           l4453 1A63  
                                         l4533 000A                                           l3741 0818  
                                         l3581 17DE                                           l3573 17AF  
                                         l3565 1786                                           l3557 1766  
                                         l3549 1756                                           l3485 168B  
                                         l3493 169B                                           l3477 167D  
                                         l3469 166D                                           l3397 107B  
                                         l3389 1053                                           l3725 0CDC  
                                         l3717 0CB6                                           l3709 0C83  
                                         l3661 0BA0                                           l3653 0B78  
                                         l3645 0B37                                           l3629 0AE8  
                                         l3821 1251                                           l3813 120A  
                                         l3805 11D7                                           l4197 07C6  
                                         l4189 07AC                                           l4269 1DE2  
                                         l4381 0F90                                           l4373 0F5F  
                                         l4357 0ED9                                           l4349 0E9F  
                                         l4293 0D31                                           l4285 0D0D  
                                         l4525 1C63                                           l4621 1459  
                                         l4613 1412                                           l4605 13A5  
                                         ?_pad 0024                                           l4471 1A70  
                                         l4279 1A4B                                           l4455 1A74  
                                         l4447 1BFA                                           l4439 1BF1  
                                         l4463 1A47                                           l4551 0052  
                                         l4543 0037                                           l4535 000E  
                                         l3751 0846                                           l3743 081D  
                                         l3735 0805                                           l3583 17E6  
                                         l3567 178B                                           l3575 17B3  
                                         l3559 176A                                           l3495 16AB  
                                         l3487 1690                                           l3479 1681  
                                         l3399 10A9                                           l3727 0CE0  
                                         l3719 0CC4                                           l3671 0BE3  
                                         l3663 0BA7                                           l3655 0B7F  
                                         l3647 0B44                                           l3639 0B03  
                                         l3823 125A                                           l3815 1221  
                                         l3807 11DD                                           l4199 07D0  
                                         l3911 00E7                                           l3903 00B2  
                                         l4391 0FCB                                           l4375 0F65  
                                         l4359 0EE8                                           l4367 0F17  
                                         l4295 0D3F                                           l4287 0D13  
                                         l4527 1C70                                           l4519 1C53  
                                         l4631 14BD                                           l4623 145E  
                                         l4615 1414                                           l4607 13B1  
                                         l4473 1A71                                           l4465 1A6B  
                                         l4457 1A77                                           l4449 1BFC  
                                         l4561 007F                                           l4553 005A  
                                         l4545 003C                                           l4537 001E  
                                         l3841 1B92                                           l3833 1B79  
                                         l3753 084F                                           l3745 0822  
                                         l3737 080A                                           l3585 17EC  
                                         l3577 17C0                                           l3569 1793  
                                         l3497 16B7                                           l3489 1698  
                                         l3729 0CE1                                           l3681 0C36  
                                         l3673 0BF7                                           l3665 0BBB  
                                         l3657 0B8C                                           l3649 0B5E  
                                         l3761 1ED2                                           l3825 1271  
                                         l3817 1229                                           l3809 11F5  
                                         l3921 0110                                           l3913 00FB  
                                         l3905 00B4                                           l4377 0F77  
                                         l4369 0F29                                           l4385 0FA6  
                                         l4297 0D43                                           l4289 0D17  
                                         l4481 1C9D                                           l4633 14CC  
                                         l4625 147C                                           l4617 1415  
                                         l4609 13B5                                           l4467 1A6E  
                                         l4459 1A78                                           l4491 1A98  
                                         l4571 00A7                                           l4563 0089  
                                         l4555 0068                                           l4547 0047  
                                         l4539 002E                                           l3835 1B7B  
                                         l2971 1D6B                                           l2963 1D51  
                                         l3747 082E                                           l3739 0813  
                                         l3851 1507                                           l3587 17F0  
                                         l3579 17DB                                           l3499 16BB  
                                         l3683 0C3D                                           l3691 0C4D  
                                         l3675 0C0C                                           l3667 0BC2  
                                         l3659 0B93                                           l3595 0A9B  
                                         l3771 1F21                                           l3763 1EEA  
                                         l3819 123A                                           l3931 012A  
                                         l3923 0116                                           l3915 00FE  
                                         l3907 00C4                                           l4387 0FB8  
                                         l4395 0FD1                                           l4379 0F88  
                                         l4299 0D45                                           l4483 1CA7  
                                         l4475 1C7D                                           l4627 1495  
                                         l4469 1A6F                                           l4493 1A9B  
                                         l4565 009D                                           l4557 0071  
                                         l4549 004E                                           l3829 1ABC  
                                         l3837 1B82                                           l3757 1B06  
                                         l2973 1D8A                                           l2965 1D56  
                                         l3749 0833                                           l3861 1559  
                                         l3853 152A                                           l3845 14DE  
                                         l3589 17F2                                           l3693 0C51  
                                         l3685 0C41                                           l3677 0C23  
                                         l3669 0BD6                                           l3597 0AA1  
                                         l2981 0862                                           l3781 1F4C  
                                         l3765 1EFF                                           l3941 0161  
                                         l3925 011B                                           l3933 012E  
                                         l3917 0106                                           l3909 00E2  
                                         l4397 0FD9                                           l4389 0FC0  
                                         l4477 1C81                                           l4629 14B6  
                                         l4495 1A9E                                           l4487 1A92  
                                         l4567 00A2                                           l4559 0075  
                                         l3839 1B91                                           l3759 1B13  
                                         l2975 1D9D                                           l2967 1D5B  
                                         l3871 159F                                           l3863 155E  
                                         l3855 153D                                           l3847 14EE  
                                         l3695 0C52                                           l3687 0C42  
                                         l3679 0C2A                                           l3599 0AA5  
                                         l2991 0875                                           l2983 0866  
                                         l3767 1F05                                           l3775 1F26  
                                         l3943 016B                                           l3935 013F  
                                         l3951 0191                                           l3927 011F  
                                         l3919 010C                                           l4479 1C85  
                                         l4591 1386                                           l4497 1AA1  
                                         l4489 1A95                                           l4569 00A6  
                                         l4665 1F9F                                           l2969 1D60  
                                         l3881 15FC                                           l3873 15A3  
                                         l3865 1568                                           l3857 1543  
                                         l3849 1501                                           l3697 0C56  
                                         l3689 0C49                                           l2993 087D  
                                         l2985 086A                                           l3777 1F2C  
                                         l3769 1F1C                                           l3785 1B9B  
                                         l3793 1C1A                                           l3961 01CF  
                                         l3953 01A3                                           l3945 0174  
                                         l3929 0125                                           l4593 1393  
                                         l4499 1AA5                                           l3891 1620  
                                         l3883 160A                                           l3875 15A7  
                                         l3867 156B                                           l3859 1553  
                                         l3699 0C6A                                           l2995 087E  
                                         l2987 086B                                           l2979 085C  
                                         l3787 1BA3                                           l3795 1C20  
                                         l3971 01FE                                           l3963 01D8  
                                         l3947 0179                                           l3939 015B  
                                         l4595 139A                                           l4587 1383  
                                         l3893 1626                                           l3877 15E2  
                                         l3885 160F                                           l3869 1570  
                                         l2989 0870                                           l2997 0880  
                                         l3789 1C03                                           l3981 0248  
                                         l3973 0200                                           l3965 01DD  
                                         l3957 01BF                                           l4597 139A  
                                         l4589 1383                                           l3895 162B  
                                         l3887 1616                                           l3879 15EF  
                                         l2999 0888                                           l3799 1197  
                                         l3991 02DD                                           l3983 0284  
                                         l3959 01C5                                           l4599 13A3  
                                         l3897 162F                                           l3889 161B  
                                         l3993 02E3                                           l3985 02A1  
                                         l3977 0218                                           l3969 01F5  
                                         l3899 1638                                           l3995 02E9  
                                         l3987 02A5                                           l3979 0244  
                                         l3997 02EF                                           l3989 02CC  
                                         l3999 0302                                           STR_1 2000  
                                         STR_2 2018                                           STR_3 2024  
                                         STR_4 202C                                           STR_7 2028  
                                         STR_8 2030                                           _LATA 010C  
                                         _LATC 010E                                           u4000 134E  
                                         u4001 134D                                           u4010 1353  
                                         u4011 1352                                           u4100 1162  
                                         u4101 1161                                           u4110 1167  
                                         u4030 10B8                                           u4111 1166  
                                         u4031 10B7                                           u5000 0C77  
                                         u3400 0875                                           u5001 0C76  
                                         u3401 0874                                           u4050 10E3  
                                         u4210 1E4F                                           u4130 1E04  
                                         u5010 0C83                                           u3410 0893  
                                         u4051 10E2                                           u4211 1E4E  
                                         u4131 1E03                                           u5011 0C82  
                                         u3411 0892                                           u5100 1B13  
                                         u3340 1D56                                           u4220 1E54  
                                         u4140 1E0F                                           u4300 1D42  
                                         u5020 0C91                                           u3500 093B  
                                         u3420 089C                                           u5101 1B12  
                                         u3341 1D55                                           u4221 1E53  
                                         u4205 1E45                                           u4141 1E0E  
                                         u4301 1D41                                           u3501 093A  
                                         u3421 089B                                           u4070 110F  
                                         u3350 1D5B                                           u4150 1E20  
                                         u4310 1D47                                           u4230 1D03  
                                         u5030 0CAC                                           u3510 0948  
                                         u3430 08A2                                           u5110 1EF7  
                                         u4071 110E                                           u3351 1D5A  
                                         u4151 1E1F                                           u4311 1D46  
                                         u4231 1D02                                           u5031 0CAB  
                                         u3511 0947                                           u3431 08A1  
                                         u4080 1122                                           u3360 1D6B  
                                         u4240 1D0E                                           u4320 1CC4  
                                         u5040 0CC4                                           u4400 1A8F  
                                         u3600 09B1                                           u3440 08A7  
                                         u5120 1F05                                           u5200 1C13  
                                         u6000 06F8                                           u4081 1121  
                                         u5105 1B0F                                           u3361 1D6A  
                                         u4241 1D0D                                           u4321 1CC3  
                                         u5041 0CC3                                           u5025 0C8D  
                                         u4401 1A8E                                           u3601 09B0  
                                         u3441 08A6                                           u5121 1F04  
                                         u5201 1C11                                           u6001 06F7  
                                         u4090 1144                                           u3370 1D8A  
                                         u4170 1E30                                           u4250 1D19  
                                         u4330 1CE0                                           u5050 0CE0  
                                         u3610 09E0                                           u3530 095C  
                                         u3450 08C0                                           u4410 1E69  
                                         u5130 1F12                                           u5210 1C14  
                                         u6010 0708                                           u4091 1143  
                                         u3371 1D89                                           u4171 1E2F  
                                         u4251 1D18                                           u4331 1CDF  
                                         u5051 0CDF                                           u5035 0CA8  
                                         u3611 09DF                                           u3603 09AD  
                                         u3531 095B                                           u3451 08BF  
                                         u4411 1E68                                           u5115 1EF3  
                                         u6011 0707                                           u6100 1F89  
                                         u5060 080A                                           u4340 1CFA  
                                         u3700 0A32                                           u3620 09F9  
                                         u3540 0960                                           u3460 08C4  
                                         u3380 086A                                           u4500 1EC6  
                                         u4420 1E7F                                           u5140 1F1C  
                                         u5300 1247                                           u5220 1C20  
                                         u6020 0752                                           u6101 1F88  
                                         u5061 0809                                           u4165 1E24  
                                         u4341 1CF9                                           u5045 0CC0  
                                         u3701 0A31                                           u3621 09F8  
                                         u3541 095F                                           u3525 094C  
                                         u3461 08C3                                           u3381 0869  
                                         u4501 1EC5                                           u5141 1F1B  
                                         u5221 1C1F                                           u6021 0751  
                                         u6110 1FDC                                           u5070 0818  
                                         u4190 1E3F                                           u4270 1D29  
                                         u4510 165A                                           u4350 1037  
                                         u3710 0A39                                           u3630 09FE  
                                         u3550 0965                                           u3470 091C  
                                         u3390 0870                                           u4430 1E94  
                                         u5150 1F2C                                           u5310 1251  
                                         u5230 11BC                                           u6030 0761  
                                         u6111 1FDA                                           u4095 1140  
                                         u3375 1D86                                           u5071 0817  
                                         u4191 1E3E                                           u4271 1D28  
                                         u4511 1659                                           u4351 1036  
                                         u3711 0A38                                           u3631 09FD  
                                         u3551 0964                                           u3471 091B  
                                         u3391 086F                                           u4431 1E93  
                                         u5151 1F2B                                           u5135 1F0E  
                                         u5311 1250                                           u6031 0760  
                                         u6120 1FDD                                           u5080 0841  
                                         u5400 1507                                           u4280 1D33  
                                         u4520 1660                                           u4360 1053  
                                         u3800 0A99                                           u3720 0A3F  
                                         u3560 097A                                           u3480 0925  
                                         u4440 1E9B                                           u5160 1F39  
                                         u5320 1267                                           u5240 11D7  
                                         u6040 076C                                           u6200 0D05  
                                         u5081 0840                                           u5401 1506  
                                         u4185 1E31                                           u4281 1D32  
                                         u4265 1D1D                                           u4521 165F  
                                         u4345 1CF6                                           u4361 1052  
                                         u3801 0A98                                           u3721 0A3E  
                                         u3561 0979                                           u3481 0923  
                                         u4441 1E9A                                           u4425 1E7B  
                                         u5305 1243                                           u5241 11D6  
                                         u6041 076B                                           u6201 0D04  
                                         u6130 1FE9                                           u5090 0846  
                                         u4530 1665                                           u4370 105F  
                                         u3810 1BC9                                           u3730 0A4B  
                                         u3650 0A12                                           u3570 097E  
                                         u3490 0926                                           u5170 1F44  
                                         u5330 1271                                           u5250 11DD  
                                         u6050 079C                                           u6210 0D29  
                                         u6131 1FE8                                           u5091 0845  
                                         u4195 1E3B                                           u4531 1664  
                                         u4371 105E                                           u3811 1BC8  
                                         u3731 0A4A                                           u3651 0A11  
                                         u3571 097D                                           u3475 0918  
                                         u5171 1F42                                           u5331 1270  
                                         u5251 11DC                                           u5235 11B8  
                                         u6051 079A                                           u6035 075D  
                                         u6211 0D28                                           u5340 1ACC  
                                         u6140 1FEF                                           u5500 160F  
                                         u5420 152A                                           u4700 1765  
                                         u4620 1713                                           u4540 1685  
                                         u4380 107B                                           u3740 0A5A  
                                         u3660 0A17                                           u3580 098B  
                                         u4460 1EAB                                           u5180 1F45  
                                         u5260 11EB                                           u6060 079D  
                                         u6300 0E16                                           u6220 0D43  
                                         _PMD0 0911                                           u5341 1ACA  
                                         u6141 1FEE                                           u5085 083D  
                                         u5501 160E                                           u5421 1529  
                                         u4285 1D2F                                           u4701 1764  
                                         u4621 1712                                           u4605 1702  
                                         u4541 1684                                           u4381 107A  
                                         u3661 0A16                                           u3645 0A08  
                                         u3581 098A                                           u4461 1EAA  
                                         u5165 1F35                                           u5325 1263  
                                         u5245 11D3                                           u6301 0E15  
                                         u6221 0D42                                           _PMD1 0912  
                                         u3910 1B54                                           u5350 1ACD  
                                         u5510 1616                                           u5430 153D  
                                         u4710 176A                                           u4550 168B  
                                         u4390 10A9                                           u3830 1BD9  
                                         u3750 0A69                                           u3670 0A21  
                                         u4470 1EB2                                           u5270 1209  
                                         u5190 1BBA                                           u6070 07AC  
                                         u6150 1DBC                                           u6310 0E36  
                                         u6230 0D81                                           _PMD2 0913  
                                         u3911 1B53                                           u5511 1615  
                                         u5431 153C                                           u4295 1D38  
                                         u4711 1769                                           u4615 1709  
                                         u4551 168A                                           u4391 10A8  
                                         u3831 1BD8                                           u3751 0A68  
                                         u3671 0A20                                           u4471 1EB1  
                                         u4455 1E9D                                           u5271 1208  
                                         u5191 1BB9                                           u6071 07AB  
                                         u6151 1DBB                                           u6311 0E35  
                                         u6231 0D7F                                           _PMD3 0914  
                                         u5360 1B82                                           u6080 1F67  
                                         u3920 128D                                           u3840 1C50  
                                         u5520 161B                                           u5440 1559  
                                         u4720 177E                                           u4640 172D  
                                         u4560 1690                                           u4800 0AA9  
                                         u3760 0A72                                           u3680 0A27  
                                         u5280 1217                                           u5600 0152  
                                         u6160 1DD3                                           u6400 0FB8  
                                         u6320 0E58                                           u6240 0D82  
                                         _PMD4 0915                                           u3905 1B4A  
                                         u5361 1B81                                           u6081 1F66  
                                         u3921 128C                                           u3841 1C4F  
                                         u5521 161A                                           u5441 1558  
                                         u4721 177D                                           u4641 172C  
                                         u4561 168F                                           u3825 1BCE  
                                         u4801 0AA8                                           u3761 0A71  
                                         u3745 0A56                                           u3681 0A26  
                                         u5265 11E7                                           u6161 1DD2  
                                         u6401 0FB7                                           u6321 0E57  
                                         _PMD5 0916                                           u6410 1A83  
                                         u5370 1B91                                           u6090 1F7B  
                                         u3850 1B33                                           u5530 1626  
                                         u5450 155E                                           u4730 1785  
                                         u4650 1740                                           u4570 16AB  
                                         u4810 0AAF                                           u3770 0A77  
                                         u3690 0A2C                                           u4490 1EC1  
                                         u5290 1221                                           u5610 0161  
                                         u6170 1DDC                                           u6330 0E86  
                                         u6250 0D8E                                           u6411 1A82  
                                         u5371 1B90                                           u6091 1F7A  
                                         u3851 1B32                                           u5531 1625  
                                         u5451 155D                                           u5435 1539  
                                         u4731 1784                                           u4651 173F  
                                         u4635 1715                                           u4571 16AA  
                                         u4395 10A5                                           u4811 0AAE  
                                         u3771 0A76                                           u3691 0A2B  
                                         u3595 098F                                           u4491 1EC0  
                                         u5291 1220                                           u5611 0160  
                                         u6171 1DDB                                           u6331 0E85  
                                         u6251 0D8D                                           u3940 12B8  
                                         u5460 15E2                                           u5380 14F9  
                                         u4740 178B                                           u4660 1748  
                                         u4580 16C9                                           u4900 0C02  
                                         u4820 0AB4                                           u3780 0A84  
                                         u3860 1AE4                                           u5700 02EF  
                                         u5620 01A3                                           u5540 00E2  
                                         u6180 1DE2                                           u6340 0E97  
                                         u6260 0DA0                                           u6420 1CA7  
                                         u3941 12B7                                           u5461 15E1  
                                         u5381 14F7                                           u4741 178A  
                                         u4661 1747                                           u4645 1729  
                                         u4581 16C8                                           u4821 0AB3  
                                         u3781 0A83                                           u4485 1EB4  
                                         u5285 1213                                           u3861 1AE2  
                                         u5701 02EE                                           u5621 01A2  
                                         u5541 00E1                                           u6181 1DE1  
                                         u6341 0E96                                           u6261 0D9F  
                                         u6421 1CA6                                           u6510 0067  
                                         u6430 1ABB                                           u5470 15EF  
                                         u5390 14FA                                           u4750 1797  
                                         u4590 1701                                           u4910 0C19  
                                         u4830 0AD3                                           u3790 0A89  
                                         u3870 1AE5                                           u5710 0302  
                                         u5630 01B5                                           u5550 010C  
                                         u6190 1DF1                                           u6350 0ED9  
                                         u6270 0DBD                                           u6511 0066  
                                         u6431 1ABA                                           u5471 15EE  
                                         u4751 1796                                           u4591 1700  
                                         u4831 0AD2                                           u3791 0A88  
                                         u5711 0301                                           u5631 01B3  
                                         u5551 010B                                           u6191 1DF0  
                                         u6351 0ED8                                           u6271 0DBC  
                                         u6440 1B01                                           u3880 1B40  
                                         u3960 12E2                                           u5480 15FC  
                                         u4760 17A5                                           u4680 1755  
                                         u4840 0AD9                                           u5800 0373  
                                         u5720 0312                                           u5640 01B6  
                                         u5560 0110                                           u6360 0F29  
                                         u6280 0E09                                           u6441 1B00  
                                         u6505 005B                                           u3881 1B3F  
                                         u5481 15FB                                           u5465 15DE  
                                         u4681 1754                                           u4905 0BFE  
                                         u4841 0AD8                                           u5801 0372  
                                         u5721 0311                                           u5561 010F  
                                         u6361 0F28                                           u6281 0E07  
                                         u6530 0075                                           u6450 000A  
                                         u3970 12F2                                           u5490 160A  
                                         u4770 17C0                                           u4850 0ADE  
                                         u5810 0383                                           u5730 0319  
                                         u5650 01C5                                           u5570 0116  
                                         u6370 0F58                                           u6290 0E0A  
                                         u6610 13C4                                           u6531 0074  
                                         u6451 0009                                           u3971 12F1  
                                         u5491 1609                                           u4771 17BF  
                                         u4675 174B                                           u4915 0C15  
                                         u4851 0ADD                                           u5811 0382  
                                         u5731 0318                                           u5715 02FE  
                                         u5651 01C4                                           u5571 0115  
                                         u6371 0F56                                           u6611 13C3  
                                         u6540 007B                                           u6460 000E  
                                         u3980 1305                                           u4780 17DB  
                                         u4940 0C41                                           u4860 0AF5  
                                         u5900 05D4                                           u5820 045A  
                                         u5740 0328                                           u5660 0217  
                                         u5580 013F                                           u6380 0F59  
                                         u6620 1458                                           u6541 007A  
                                         u6525 006B                                           u6461 000D  
                                         u3981 1304                                           u5485 15F8  
                                         u4781 17DA                                           u4765 17A1  
                                         u4941 0C40                                           u4925 0C24  
                                         u4861 0AF4                                           u5901 05D3  
                                         u5821 0459                                           u5741 0327  
                                         u5661 0216                                           u5581 013E  
                                         u6621 1457                                           u6550 007F  
                                         u6470 002E                                           u3990 132F  
                                         u4790 17F0                                           u4870 0AFA  
                                         u5910 05DA                                           u5830 04AC  
                                         u5750 0344                                           u5670 0283  
                                         u5590 0151                                           u6390 0F65  
                                         u6630 147C                                           u6551 007E  
                                         u6471 002D                                           u3895 1B45  
                                         u3991 132E                                           u5495 1606  
                                         u4791 17EF                                           u4775 17BC  
                                         u4695 1757                                           u4935 0C37  
                                         u4871 0AF9                                           u5911 05D9  
                                         u5831 04AB                                           u5751 0343  
                                         u5671 0282                                           u5591 014F  
                                         u6391 0F64                                           u6631 147B  
                                         u6615 13C0                                           u6560 0093  
                                         u4960 0C51                                           u5920 05DE  
                                         u5840 04CE                                           u5760 035B  
                                         u5680 02CC                                           u6640 14C7  
                                         u4785 17D7                                           u4961 0C50  
                                         u5921 05DD                                           u5841 04CD  
                                         u5825 0456                                           u5761 035A  
                                         u5745 0324                                           u5681 02CB  
                                         u6641 14C6                                           u6570 00A2  
                                         u6490 004D                                           u4970 0C56  
                                         u5930 05E9                                           u5850 04D3  
                                         u5770 0361                                           u5690 02E9  
                                         u6571 00A1                                           u6491 004C  
                                         u3995 132B                                           u4971 0C55  
                                         u4955 0C43                                           u5931 05E8  
                                         u5851 04D2                                           u5771 0360  
                                         u5755 0340                                           u5691 02E8  
                                         u6580 00A6                                           u4980 0C6A  
                                         u5940 05ED                                           u5860 0532  
                                         u5780 0365                                           u6581 00A5  
                                         u6565 008F                                           u6485 0041  
                                         u4981 0C69                                           u4885 0B79  
                                         u5941 05EC                                           u5861 0531  
                                         u5781 0364                                           u4990 0C71  
                                         u5950 0626                                           u5870 0569  
                                         u5790 036F                                           u4991 0C70  
                                         u4895 0BA8                                           u5951 0625  
                                         u5871 0568                                           u5791 036E  
                                         u5960 06C0                                           u5880 057C  
                                         u5961 06BF                                           u5881 057B  
                                         u6657 138C                                           u5970 06D0  
                                         u5890 05CE                                           u5971 06CF  
                                         u5891 05CD                                           u6667 14D2  
                                         u5980 06D7                                           u5981 06D6  
                                         u5965 06BC                                           u5990 06DB  
                                         u5991 06DA                                           u5975 06CC  
                                         _WPUA 020C                                           _WPUC 020E  
                                         abs@a 0073                                           _dbuf 01A0  
                                         _atoi 1F51                                           _main 1383  
                                         _dtoa 14DC                                           _prec 00EC  
                                         _nout 0159                                           pad@i 0027  
                                         pad@p 0025                                           fsr0h 0005  
                                         fsr1h 0007                                           indf0 0000  
                                         fsr0l 0004                                           indf1 0001  
                                         fsr1l 0006                                           pad@w 0029  
                                         btemp 007E                                  ___fpclassifyf 1ED2  
                                         start 0002                                ___fldiv@new_exp 0025  
                                 _tolower$1141 007C                                          ??_abs 0075  
                                        ??_pad 007C                                  ?_EUSART_Write 0070  
               __size_of_OSCILLATOR_Initialize 0009                  __end_of_OSCILLATOR_Initialize 1A7D  
                                ___fltol@sign1 0079                                __end_of___aodiv 1383  
                                        _ADACT 009F                                          ?_atoi 0076  
                              __end_of___fladd 0A9B                                          ?_main 0070  
                                        ?_dtoa 0030                                __end_of___aomod 1197  
                              __end_of___fldiv 1800                                __end_of___awdiv 1E5E  
                              __end_of___flneg 1A92                                          STR_11 2034  
                                        STR_13 2034                                __end_of___awmod 1D51  
                              __end_of___flmul 0CF2                                __end_of___flsub 1B79  
                              __end_of___fltol 1ED2                                ___awdiv@divisor 0070  
                              ___awdiv@counter 0075                                          _OSCEN 091D  
                                 vfpfcnvrt@fmt 004F                                          _TRISA 008C  
                                        _TRISC 008E                                          _RXPPS 0E24  
                                        _flags 00EE                                 _WDT_Initialize 1A47  
                                        _fputc 1D51                                          _fputs 1C28  
                              __end_of_isdigit 1AD4                                          atoi@n 0027  
                                        pad@fp 002B                                          atoi@s 0076  
                                        _width 015B                                          _putch 0802  
                                        main@i 014D                                          main@n 014F  
                                        dtoa@d 0030                                          main@s 0129  
                                        dtoa@i 004C                                          dtoa@n 0044  
                                        dtoa@p 003E                                          dtoa@s 0042  
                                        dtoa@w 0040                                __end_of_isspace 1B9A  
                              __end_of_isupper 1AEC                                          status 0003  
                                        wtemp0 007E                                __end_of_sprintf 1C7B  
                               ?___fpclassifyf 0070                                __end_of_tolower 1C28  
                              __end_of_strncmp 1DFF                                __initialization 07E8  
                                 __end_of_atoi 2000                                   __end_of_main 14DC  
                                 __end_of_dtoa 164C                                 ??_EUSART_Write 0070  
                                       ??_atoi 0078                                         ??_main 00E8  
                                       ??_dtoa 0038                         __end_of_WDT_Initialize 1A4B  
            _EUSART_DefaultFramingErrorHandler 0000                                         _ADCON0 009D  
                                       _ADCON1 009E                     _EUSART_OverrunErrorHandler 0162  
                                       ?_fputc 0070                                         ?_fputs 0078  
                                       _ADRESH 009C                                         _ADRESL 009B  
                             ___awdiv@dividend 0072                                         _ANSELA 018C  
                                       ?_putch 0070                                         _ANSELC 018E  
                                       _RC1REG 0199                                         _RC1STA 019D  
                                       _RC4PPS 0EA4                                         _ODCONA 028C  
                                       _ODCONC 028E                                         _INLVLA 038C  
                                       _INLVLC 038E                                         _OSCFRQ 091F  
                                       u402lld 1371                                         u412lld 1185  
                                       u404lld 10D7                                         u406lld 1102  
                                       _TX1REG 019A                                         _WDTCON 0097  
                                       _TX1STA 019E                                         u541lld 1525  
                                       u393lld 12AC                                         u395lld 12D7  
                             __end_of___xxtofl 00B0                                   vfprintf@cfmt 00DD  
                                       ___flge 1022                                         ___fleq 1CB0  
                                    ??___aodiv 0070                                      ??___fladd 0020  
                                    ??___aomod 0070                                         ___wmul 1B3A  
                                    ??___fldiv 0078                                      ??___awdiv 0074  
                                    ??___flneg 0074                                      ??___awmod 0074  
                                    ??___flmul 0028                                      ??___flsub 007E  
                                    ??___fltol 0074                                         _efgtoa 00B0  
                                       _floorf 1197                               ___awdiv@quotient 0077  
                              ___awmod@divisor 0070                                ___awmod@counter 0075  
                                       pad@buf 0024                                         dtoa@fp 003D  
                                       _strcpy 1B9A                                         _putstr 1AA5  
                                       _strlen 1B20                                         fputc@c 0070  
                               _PMD_Initialize 1A63                                         fputs@c 0020  
                                       fputs@i 0021                                         fputs@s 0023  
                                    ??_isdigit 0072                             __size_of__Umul8_16 0023  
                              ___fpclassifyf@e 0020                                ___fpclassifyf@u 0022  
                              ___fpclassifyf@x 0070                                      ??_isspace 0072  
                              ?_WDT_Initialize 0070                                      ??_isupper 0072  
                     ADC_GetConversion@channel 0073                                         putch@c 0070  
                             __end_of_vfprintf 1CB0                                      ??_sprintf 00E7  
                                    ??_tolower 0078                                      ??_strncmp 0074  
                                   ___flge@ff1 003A                                     ___flge@ff2 003E  
                              ??___fpclassifyf 0074                                   ___xxtofl@arg 007A  
                                 ___xxtofl@exp 0079                              _SYSTEM_Initialize 1A92  
                                 ___xxtofl@val 0070                                     ___fleq@ff1 0070  
                                   ___fleq@ff2 0074                        __end_of__initialization 07FD  
                                   ___flneg@f1 0070                             ?_SYSTEM_Initialize 0070  
                                   ___fltol@f1 0070                                 __pcstackCOMMON 0070  
                          ??_SYSTEM_Initialize 0072                                  __end_of_fputc 1DA7  
                                __end_of_fputs 1C51                                  __end_of_putch 0803  
                       __end_of_PMD_Initialize 1A6B                ??_EUSART_SetOverrunErrorHandler 0072  
                                      ??_fputc 0073                      __end_of_SYSTEM_Initialize 1AA5  
                                      ??_fputs 0079                                        ??_putch 0070  
                                   __pbssBANK1 00EC                                     __pbssBANK2 0151  
                                   __pbssBANK3 01A0                           __end_of_EUSART_Write 1A87  
                            __end_of__Umul8_16 1BDE                                     _efgtoa$980 00A2  
                                   _efgtoa$990 00AA                                     _efgtoa$984 00A4  
                                   _efgtoa$979 00A0                                     _efgtoa$988 00A6  
                                   _efgtoa$989 00A8                                     __pmaintext 1383  
                                      ?___flge 003A                                        ?___fleq 0070  
                                      ?___wmul 0070                                        ?_efgtoa 0046  
                                      ?_floorf 002D                                ?_PMD_Initialize 0070  
                      __size_of_ADC_Initialize 0009                                        ?_strcpy 0070  
                                      ?_putstr 0071                                        ?_strlen 0070  
                                    ?___xxtofl 0070                                        _SP1BRGH 019C  
                                      _SP1BRGL 019B                                        _OSCCON1 0919  
                                      _OSCCON3 091B                             __size_of_vfpfcnvrt 030E  
                                      _OSCTUNE 091E                                        _SLRCONA 030C  
                                      _SLRCONC 030E                       ??_EUSART_SetErrorHandler 0072  
                         _ADC_InterruptHandler 015D                                __size_of___flge 008B  
                              __size_of___fleq 004E                                        ___aodiv 1282  
                                      ___fladd 085C                                        ___aomod 10AD  
                                      ___fldiv 164C                                        ___awdiv 1DFF  
                                      ___flneg 1A87                                        ___awmod 1CFE  
                                      ___flmul 0A9B                                        ___flsub 1B59  
                                      ___fltol 1E5E                                __size_of___wmul 001F  
                                    ?_vfprintf 00D9                                __size_of_efgtoa 0738  
                              __size_of_floorf 00EB                                        __ptext1 1C51  
                                      __ptext2 1C7B                                        __ptext3 0CF2  
                                      __ptext4 1DA7                                        __ptext5 00B0  
                                      __ptext6 1C03                                        __ptext7 1AD4  
                                      __ptext8 1B9A                                        __ptext9 1197  
                              __size_of_strcpy 0021                                __size_of_putstr 0017  
                              __size_of_strlen 001A                          _OSCILLATOR_Initialize 1A74  
                                 __size_of_abs 001A                                   __size_of_pad 0059  
                                      _isdigit 1ABC                                     ??___xxtofl 0074  
                             ___awmod@dividend 0072                       ??_PIN_MANAGER_Initialize 0070  
                                      _isspace 1B79                                        _isupper 1AD4  
                                      efgtoa@c 004A                                        efgtoa@d 00B8  
                                      efgtoa@e 00D1                                        efgtoa@f 0046  
                                      efgtoa@g 00CD                                        efgtoa@h 00C3  
                                      efgtoa@i 00CB                                        efgtoa@l 00C7  
                                      efgtoa@m 00B2                                        efgtoa@n 00D3  
                                      efgtoa@p 00BD                                        efgtoa@t 00AC  
                                      efgtoa@u 00D5                                        efgtoa@w 00BF  
                                      atoi@neg 0020                     __size_of_SYSTEM_Initialize 0013  
                                      _sprintf 1C51                                        _tolower 1C03  
                                      clrloop0 1A5E                                        _strncmp 1DA7  
                         end_of_initialization 07FD                                        floorf@e 003B  
                                      floorf@m 0037                                        floorf@u 003D  
                                      floorf@x 002D          __end_of_EUSART_SetOverrunErrorHandler 1A5D  
       __size_of_EUSART_SetOverrunErrorHandler 0006                  _EUSART_SetOverrunErrorHandler 1A57  
                                      fputc@fp 0072                                        fputs@fp 0078  
                            _EUSART_Initialize 1000                             ?_EUSART_Initialize 0070  
                            __end_of_vfpfcnvrt 1000                                     efgtoa@mode 00C2  
                                   efgtoa@sign 00BA                              __end_of_tvalTable 1950  
                                   ??_vfprintf 006E                                        strcpy@d 0076  
                                      strlen@a 0073                                        strcpy@s 0074  
                                      putstr@p 0071                                        strlen@s 0074  
                          ??_EUSART_Initialize 0072                               ??_WDT_Initialize 0070  
                                  ___fladd@grs 007B                                  ___xxtofl@sign 0078  
                        __size_of_EUSART_Write 000A                                    ___fldiv@grs 0027  
                                  ___fldiv@rem 0020                __size_of_EUSART_SetErrorHandler 0006  
                                  ___flmul@grs 002E                      __end_of_EUSART_Initialize 1022  
                                   main@ftotal 013F                                 __end_of___flge 10AD  
                               __end_of___fleq 1CFE                     _EUSART_DefaultErrorHandler 0000  
                                  vfpfcnvrt@ap 0050                                    vfpfcnvrt@ct 0069  
                                  vfpfcnvrt@fp 006D                                    vfpfcnvrt@ll 0057  
                               __end_of___wmul 1B59                                 __end_of_efgtoa 07E8  
                                 _EUSART_Write 1A7D                                 _ADC_Initialize 1A6B  
                               __end_of_floorf 1282                         ?_OSCILLATOR_Initialize 0070  
                                   floorf@F527 0151                                 __end_of_strcpy 1BBB  
                               __end_of_putstr 1ABC                                 __end_of_strlen 1B3A  
                          start_initialization 07E8                __size_of_PIN_MANAGER_Initialize 0025  
                                  __end_of_abs 1B20                                    __end_of_pad 085C  
                        __end_of___fpclassifyf 1F51                 ?_EUSART_SetOverrunErrorHandler 0070  
                                  vfprintf@fmt 00D9                     _EUSART_FramingErrorHandler 0164  
                                     ??___flge 0042                                       ??___fleq 0078  
                             ??_PMD_Initialize 0070                                       ??___wmul 0074  
                       _EUSART_SetErrorHandler 1A4B                                       ??_efgtoa 004B  
                       __end_of_ADC_Initialize 1A74                                      __Umul8_16 1BBB  
                                     ??_floorf 0031                                       ??_strcpy 0072  
                                     ??_putstr 0073                                       ??_strlen 0072  
                                    ___fladd@a 0074                                      ___fladd@b 0070  
                                    ___fldiv@a 0070                                      ___fldiv@b 0074  
                                    ___flmul@a 0024                                      ___flmul@b 0020  
                                    ___flsub@a 003A                                      ___flsub@b 003E  
                                    ___latbits 0003                                  __pcstackBANK0 0020  
                                __pcstackBANK1 00A0                                  __pcstackBANK2 0120  
                             ___aodiv@dividend 0028                              __size_of___xxtofl 00AC  
                   __size_of_EUSART_Initialize 0022                                      _atoi$1046 0022  
                                    _atoi$1047 0026                                      _atoi$1048 0024  
                                    __pnvBANK2 0160                         _PIN_MANAGER_Initialize 1BDE  
                                     ?___aodiv 0020                                       ?___fladd 0070  
                                     ?___aomod 0020                                       ?___fldiv 0070  
                                     ?___awdiv 0070                               ___aodiv@quotient 0073  
                                     ?___flneg 0070                                       ?___awmod 0070  
                                     ?___flmul 0020                                       ?___flsub 003A  
                                     ?___fltol 0070                                     ?__Umul8_16 0070  
                              ?_ADC_Initialize 0070                              __size_of_vfprintf 0035  
                                     _BAUD1CON 019F                                       ?_isdigit 0070  
                                     ?_isspace 0070                                       ?_isupper 0070  
                                     ?_sprintf 00DF                                       ?_tolower 0076  
                               __size_of_fputc 0056                                 __size_of_fputs 0029  
                                     ?_strncmp 0070                                 __size_of_putch 0001  
                               ___wmul@product 0074         EUSART_SetErrorHandler@interruptHandler 0070  
                                     _LATCbits 010E                                      clear_ram0 1A5D  
                            _eusartRxLastError 015F                                       _PIR1bits 0011  
              ??_EUSART_SetFramingErrorHandler 0072              _EUSART_DefaultOverrunErrorHandler 0000  
                                    _vfpfcnvrt 0CF2                                     _ADCON0bits 009D  
                                    _tvalTable 1800                              ___wmul@multiplier 0070  
                                    main@total 0143                                   _isspace$1077 0074  
                                   vfpfcnvrt@c 006C                                     vfpfcnvrt@f 0065  
                                   vfprintf@ap 00DB                                     vfprintf@fp 00DC  
                            _ADC_GetConversion 1AEC                        ??_OSCILLATOR_Initialize 0070  
                                  ??__Umul8_16 0072                            _EUSART_ErrorHandler 0160  
                           ?_ADC_GetConversion 0070                               __size_of___aodiv 0101  
                             __size_of___fladd 023F                               __size_of___aomod 00EA  
                             __size_of___fldiv 01B4                               __size_of___awdiv 005F  
                             __size_of___flneg 000B                               __size_of___awmod 0053  
                             __size_of___flmul 0257                               __size_of___flsub 0020  
                             __size_of___fltol 0074                                     ?_vfpfcnvrt 004F  
                              ___aodiv@divisor 0020                                ___aodiv@counter 0071  
                           ___fpclassifyf@F465 0155                            ??_ADC_GetConversion 0072  
                                   sprintf@fmt 00DF                                       ___xxtofl 0004  
                             __size_of_isdigit 0018                                       _dtoa$955 003B  
                             __size_of_isspace 0021                                       __ptext10 1ED2  
                                     __ptext11 1E5E                                       __ptext20 1CFE  
                                     __ptext12 1B59                                       __ptext21 1DFF  
                                     __ptext13 085C                                       __ptext30 1282  
                                     __ptext22 14DC                                       __ptext14 1A87  
                                     __ptext31 1F51                                       __ptext23 0803  
                                     __ptext15 0A9B                                       __ptext40 1A63  
                                     __ptext32 1B79                                       __ptext24 1B20  
                                     __ptext16 1BBB                                       __ptext41 1BDE  
                                     __ptext33 1ABC                                       __ptext25 1C28  
                                     __ptext17 1022                                       __ptext42 1A74  
                                     __ptext34 1B3A                                       __ptext26 1D51  
                                     __ptext18 1CB0                                       __ptext43 1000  
                                     __ptext35 1AA5                                       __ptext27 0802  
                                     __ptext19 164C                                       __ptext44 1A57  
                                     __ptext36 1A7D                                       __ptext28 1B06  
                                     __ptext45 1A51                                       __ptext37 0004  
                                     __ptext29 10AD                                       __ptext46 1A4B  
                                     __ptext38 1A92                                       __ptext47 1A6B  
                                     __ptext39 1A47                                       __ptext48 1AEC  
                             __size_of_isupper 0018                               __size_of_sprintf 002A  
                             __size_of_tolower 0025                                     strcpy@dest 0077  
                             __size_of_strncmp 0058                                  __size_of_atoi 00AF  
                                __size_of_main 0159                                  __size_of_dtoa 0170  
                    __end_of_ADC_GetConversion 1B06                        ?_EUSART_SetErrorHandler 0070  
                                   _RC1STAbits 019D                                       efgtoa@fp 00BC  
                                     efgtoa@ne 00B0                                       efgtoa@pp 00AE  
                                     efgtoa@ou 00B4  EUSART_SetOverrunErrorHandler@interruptHandler 0070  
                                     _vfprintf 1C7B          __end_of_EUSART_SetFramingErrorHandler 1A57  
       __size_of_EUSART_SetFramingErrorHandler 0006                  _EUSART_SetFramingErrorHandler 1A51  
                                     main@fvrl 0147                               ___aomod@dividend 0028  
                               _vfpfcnvrt$1010 0063                                 _vfpfcnvrt$1004 005F  
                               _vfpfcnvrt$1005 0061                                       isdigit@c 0070  
                      __size_of_WDT_Initialize 0004                                      sprintf@ap 0123  
                                     isspace@c 0070                        ?_PIN_MANAGER_Initialize 0070  
               __end_of_EUSART_SetErrorHandler 1A51                                      strcpy@src 0070  
                                     isupper@c 0070                                      strncmp@_l 0075  
                                    strncmp@_r 0070                               ??_ADC_Initialize 0070  
                                  efgtoa@nmode 00C1  EUSART_SetFramingErrorHandler@interruptHandler 0070  
                              ___aomod@divisor 0020                                    ??_vfpfcnvrt 0051  
                              ___aomod@counter 0071                                  __pstringtext1 1800  
                                __pstringtext2 2000                                  __pstringtext3 2018  
                                __pstringtext4 2024                                  __pstringtext5 2028  
                                __pstringtext6 202C                                  __pstringtext7 2030  
                                __pstringtext8 2034                                  __pstringtext9 0000  
                       __Umul8_16@multiplicand 0070                                       sprintf@f 0124  
                                     tolower@c 0076                                       sprintf@s 0122  
                       __size_of___fpclassifyf 007F                                       strncmp@l 0078  
                                     strncmp@n 0072                                       strncmp@r 0076  
                                   _TX1STAbits 019E                                  ___fladd@signs 0078  
                           EUSART_Write@txData 0070                                   ___aodiv@sign 0072  
               __end_of_PIN_MANAGER_Initialize 1C03                                   ___fladd@aexp 0079  
                                 ___fladd@bexp 007A                           __Umul8_16@multiplier 0078  
                   __size_of_ADC_GetConversion 001A                                   ___aomod@sign 0072  
                            __Umul8_16@product 0074  
